
CDC_libUSB_basic.elf:     file format elf32-littlearm

Sections:
Idx Name          Size      VMA       LMA       File off  Algn
  0 .isr_vector   000001d8  08000000  08000000  00010000  2**0
                  CONTENTS, ALLOC, LOAD, READONLY, DATA
  1 .text         000060b8  080001d8  080001d8  000101d8  2**2
                  CONTENTS, ALLOC, LOAD, READONLY, CODE
  2 .rodata       0000004c  08006290  08006290  00016290  2**2
                  CONTENTS, ALLOC, LOAD, READONLY, DATA
  3 .ARM.extab    00000000  080062dc  080062dc  00020180  2**0
                  CONTENTS
  4 .ARM          00000000  080062dc  080062dc  00020180  2**0
                  CONTENTS
  5 .preinit_array 00000000  080062dc  080062dc  00020180  2**0
                  CONTENTS, ALLOC, LOAD, DATA
  6 .init_array   00000004  080062dc  080062dc  000162dc  2**2
                  CONTENTS, ALLOC, LOAD, DATA
  7 .fini_array   00000004  080062e0  080062e0  000162e0  2**2
                  CONTENTS, ALLOC, LOAD, DATA
  8 .data         00000180  20000000  080062e4  00020000  2**2
                  CONTENTS, ALLOC, LOAD, DATA
  9 .bss          000021b8  20000180  08006464  00020180  2**2
                  ALLOC
 10 ._user_heap_stack 00000c00  20002338  08006464  00022338  2**0
                  ALLOC
 11 .ARM.attributes 00000030  00000000  00000000  00020180  2**0
                  CONTENTS, READONLY
 12 .debug_info   00016a35  00000000  00000000  000201b0  2**0
                  CONTENTS, READONLY, DEBUGGING
 13 .debug_abbrev 00003261  00000000  00000000  00036be5  2**0
                  CONTENTS, READONLY, DEBUGGING
 14 .debug_aranges 00000f48  00000000  00000000  00039e48  2**3
                  CONTENTS, READONLY, DEBUGGING
 15 .debug_ranges 00000dc0  00000000  00000000  0003ad90  2**3
                  CONTENTS, READONLY, DEBUGGING
 16 .debug_macro  0002052a  00000000  00000000  0003bb50  2**0
                  CONTENTS, READONLY, DEBUGGING
 17 .debug_line   0000eff9  00000000  00000000  0005c07a  2**0
                  CONTENTS, READONLY, DEBUGGING
 18 .debug_str    000ba8f4  00000000  00000000  0006b073  2**0
                  CONTENTS, READONLY, DEBUGGING
 19 .comment      0000007b  00000000  00000000  00125967  2**0
                  CONTENTS, READONLY
 20 .debug_frame  00003d20  00000000  00000000  001259e4  2**2
                  CONTENTS, READONLY, DEBUGGING

Disassembly of section .text:

080001d8 <__do_global_dtors_aux>:
 80001d8:	b510      	push	{r4, lr}
 80001da:	4c05      	ldr	r4, [pc, #20]	; (80001f0 <__do_global_dtors_aux+0x18>)
 80001dc:	7823      	ldrb	r3, [r4, #0]
 80001de:	b933      	cbnz	r3, 80001ee <__do_global_dtors_aux+0x16>
 80001e0:	4b04      	ldr	r3, [pc, #16]	; (80001f4 <__do_global_dtors_aux+0x1c>)
 80001e2:	b113      	cbz	r3, 80001ea <__do_global_dtors_aux+0x12>
 80001e4:	4804      	ldr	r0, [pc, #16]	; (80001f8 <__do_global_dtors_aux+0x20>)
 80001e6:	f3af 8000 	nop.w
 80001ea:	2301      	movs	r3, #1
 80001ec:	7023      	strb	r3, [r4, #0]
 80001ee:	bd10      	pop	{r4, pc}
 80001f0:	20000180 	.word	0x20000180
 80001f4:	00000000 	.word	0x00000000
 80001f8:	08006278 	.word	0x08006278

080001fc <frame_dummy>:
 80001fc:	b508      	push	{r3, lr}
 80001fe:	4b03      	ldr	r3, [pc, #12]	; (800020c <frame_dummy+0x10>)
 8000200:	b11b      	cbz	r3, 800020a <frame_dummy+0xe>
 8000202:	4903      	ldr	r1, [pc, #12]	; (8000210 <frame_dummy+0x14>)
 8000204:	4803      	ldr	r0, [pc, #12]	; (8000214 <frame_dummy+0x18>)
 8000206:	f3af 8000 	nop.w
 800020a:	bd08      	pop	{r3, pc}
 800020c:	00000000 	.word	0x00000000
 8000210:	20000184 	.word	0x20000184
 8000214:	08006278 	.word	0x08006278

08000218 <HAL_Init>:
  *         each 1ms in the SysTick_Handler() interrupt handler.
  *
  * @retval HAL status
  */
HAL_StatusTypeDef HAL_Init(void)
{
 8000218:	b580      	push	{r7, lr}
 800021a:	b082      	sub	sp, #8
 800021c:	af00      	add	r7, sp, #0
  HAL_StatusTypeDef  status = HAL_OK;
 800021e:	2300      	movs	r3, #0
 8000220:	71fb      	strb	r3, [r7, #7]
#if (PREFETCH_ENABLE != 0U)
  __HAL_FLASH_PREFETCH_BUFFER_ENABLE();
#endif /* PREFETCH_ENABLE */

  /* Set Interrupt Group Priority */
  HAL_NVIC_SetPriorityGrouping(NVIC_PRIORITYGROUP_4);
 8000222:	2003      	movs	r0, #3
 8000224:	f000 f938 	bl	8000498 <HAL_NVIC_SetPriorityGrouping>

  /* Use SysTick as time base source and configure 1ms tick (default clock after Reset is HSI) */
  if (HAL_InitTick(TICK_INT_PRIORITY) != HAL_OK)
 8000228:	2000      	movs	r0, #0
 800022a:	f000 f80d 	bl	8000248 <HAL_InitTick>
 800022e:	4603      	mov	r3, r0
 8000230:	2b00      	cmp	r3, #0
 8000232:	d002      	beq.n	800023a <HAL_Init+0x22>
  {
    status = HAL_ERROR;
 8000234:	2301      	movs	r3, #1
 8000236:	71fb      	strb	r3, [r7, #7]
 8000238:	e001      	b.n	800023e <HAL_Init+0x26>
  }
  else
  {
    /* Init the low level hardware */
    HAL_MspInit();
 800023a:	f005 f9f5 	bl	8005628 <HAL_MspInit>
  }

  /* Return function status */
  return status;
 800023e:	79fb      	ldrb	r3, [r7, #7]

}
 8000240:	4618      	mov	r0, r3
 8000242:	3708      	adds	r7, #8
 8000244:	46bd      	mov	sp, r7
 8000246:	bd80      	pop	{r7, pc}

08000248 <HAL_InitTick>:
  *       implementation  in user file.
  * @param TickPriority: Tick interrupt priority.
  * @retval HAL status
  */
__weak HAL_StatusTypeDef HAL_InitTick(uint32_t TickPriority)
{
 8000248:	b580      	push	{r7, lr}
 800024a:	b084      	sub	sp, #16
 800024c:	af00      	add	r7, sp, #0
 800024e:	6078      	str	r0, [r7, #4]
  HAL_StatusTypeDef  status = HAL_OK;
 8000250:	2300      	movs	r3, #0
 8000252:	73fb      	strb	r3, [r7, #15]

  if (uwTickFreq != 0U)
 8000254:	4b16      	ldr	r3, [pc, #88]	; (80002b0 <HAL_InitTick+0x68>)
 8000256:	681b      	ldr	r3, [r3, #0]
 8000258:	2b00      	cmp	r3, #0
 800025a:	d022      	beq.n	80002a2 <HAL_InitTick+0x5a>
  {
    /* Configure the SysTick to have interrupt in 1ms time basis*/
    if (HAL_SYSTICK_Config(SystemCoreClock / (1000U / uwTickFreq)) == 0U)
 800025c:	4b15      	ldr	r3, [pc, #84]	; (80002b4 <HAL_InitTick+0x6c>)
 800025e:	681a      	ldr	r2, [r3, #0]
 8000260:	4b13      	ldr	r3, [pc, #76]	; (80002b0 <HAL_InitTick+0x68>)
 8000262:	681b      	ldr	r3, [r3, #0]
 8000264:	f44f 717a 	mov.w	r1, #1000	; 0x3e8
 8000268:	fbb1 f3f3 	udiv	r3, r1, r3
 800026c:	fbb2 f3f3 	udiv	r3, r2, r3
 8000270:	4618      	mov	r0, r3
 8000272:	f000 f944 	bl	80004fe <HAL_SYSTICK_Config>
 8000276:	4603      	mov	r3, r0
 8000278:	2b00      	cmp	r3, #0
 800027a:	d10f      	bne.n	800029c <HAL_InitTick+0x54>
    {
      /* Configure the SysTick IRQ priority */
      if (TickPriority < (1UL << __NVIC_PRIO_BITS))
 800027c:	687b      	ldr	r3, [r7, #4]
 800027e:	2b0f      	cmp	r3, #15
 8000280:	d809      	bhi.n	8000296 <HAL_InitTick+0x4e>
      {
        HAL_NVIC_SetPriority(SysTick_IRQn, TickPriority, 0U);
 8000282:	2200      	movs	r2, #0
 8000284:	6879      	ldr	r1, [r7, #4]
 8000286:	f04f 30ff 	mov.w	r0, #4294967295
 800028a:	f000 f910 	bl	80004ae <HAL_NVIC_SetPriority>
        uwTickPrio = TickPriority;
 800028e:	4a0a      	ldr	r2, [pc, #40]	; (80002b8 <HAL_InitTick+0x70>)
 8000290:	687b      	ldr	r3, [r7, #4]
 8000292:	6013      	str	r3, [r2, #0]
 8000294:	e007      	b.n	80002a6 <HAL_InitTick+0x5e>
      }
      else
      {
        status = HAL_ERROR;
 8000296:	2301      	movs	r3, #1
 8000298:	73fb      	strb	r3, [r7, #15]
 800029a:	e004      	b.n	80002a6 <HAL_InitTick+0x5e>
      }
    }
    else
    {
      status = HAL_ERROR;
 800029c:	2301      	movs	r3, #1
 800029e:	73fb      	strb	r3, [r7, #15]
 80002a0:	e001      	b.n	80002a6 <HAL_InitTick+0x5e>
    }
  }
  else
  {
    status = HAL_ERROR;
 80002a2:	2301      	movs	r3, #1
 80002a4:	73fb      	strb	r3, [r7, #15]
  }

  /* Return function status */
  return status;
 80002a6:	7bfb      	ldrb	r3, [r7, #15]
}
 80002a8:	4618      	mov	r0, r3
 80002aa:	3710      	adds	r7, #16
 80002ac:	46bd      	mov	sp, r7
 80002ae:	bd80      	pop	{r7, pc}
 80002b0:	20000004 	.word	0x20000004
 80002b4:	20000118 	.word	0x20000118
 80002b8:	20000000 	.word	0x20000000

080002bc <HAL_IncTick>:
  * @note This function is declared as __weak to be overwritten in case of other
  *      implementations in user file.
  * @retval None
  */
__weak void HAL_IncTick(void)
{
 80002bc:	b480      	push	{r7}
 80002be:	af00      	add	r7, sp, #0
  uwTick += uwTickFreq;
 80002c0:	4b05      	ldr	r3, [pc, #20]	; (80002d8 <HAL_IncTick+0x1c>)
 80002c2:	681a      	ldr	r2, [r3, #0]
 80002c4:	4b05      	ldr	r3, [pc, #20]	; (80002dc <HAL_IncTick+0x20>)
 80002c6:	681b      	ldr	r3, [r3, #0]
 80002c8:	4413      	add	r3, r2
 80002ca:	4a03      	ldr	r2, [pc, #12]	; (80002d8 <HAL_IncTick+0x1c>)
 80002cc:	6013      	str	r3, [r2, #0]
}
 80002ce:	bf00      	nop
 80002d0:	46bd      	mov	sp, r7
 80002d2:	f85d 7b04 	ldr.w	r7, [sp], #4
 80002d6:	4770      	bx	lr
 80002d8:	200003c0 	.word	0x200003c0
 80002dc:	20000004 	.word	0x20000004

080002e0 <HAL_GetTick>:
  * @note This function is declared as __weak to be overwritten in case of other
  *       implementations in user file.
  * @retval tick value
  */
__weak uint32_t HAL_GetTick(void)
{
 80002e0:	b480      	push	{r7}
 80002e2:	af00      	add	r7, sp, #0
  return uwTick;
 80002e4:	4b03      	ldr	r3, [pc, #12]	; (80002f4 <HAL_GetTick+0x14>)
 80002e6:	681b      	ldr	r3, [r3, #0]
}
 80002e8:	4618      	mov	r0, r3
 80002ea:	46bd      	mov	sp, r7
 80002ec:	f85d 7b04 	ldr.w	r7, [sp], #4
 80002f0:	4770      	bx	lr
 80002f2:	bf00      	nop
 80002f4:	200003c0 	.word	0x200003c0

080002f8 <__NVIC_SetPriorityGrouping>:
           In case of a conflict between priority grouping and available
           priority bits (__NVIC_PRIO_BITS), the smallest possible priority group is set.
  \param [in]      PriorityGroup  Priority grouping field.
 */
__STATIC_INLINE void __NVIC_SetPriorityGrouping(uint32_t PriorityGroup)
{
 80002f8:	b480      	push	{r7}
 80002fa:	b085      	sub	sp, #20
 80002fc:	af00      	add	r7, sp, #0
 80002fe:	6078      	str	r0, [r7, #4]
  uint32_t reg_value;
  uint32_t PriorityGroupTmp = (PriorityGroup & (uint32_t)0x07UL);             /* only values 0..7 are used          */
 8000300:	687b      	ldr	r3, [r7, #4]
 8000302:	f003 0307 	and.w	r3, r3, #7
 8000306:	60fb      	str	r3, [r7, #12]

  reg_value  =  SCB->AIRCR;                                                   /* read old register configuration    */
 8000308:	4b0c      	ldr	r3, [pc, #48]	; (800033c <__NVIC_SetPriorityGrouping+0x44>)
 800030a:	68db      	ldr	r3, [r3, #12]
 800030c:	60bb      	str	r3, [r7, #8]
  reg_value &= ~((uint32_t)(SCB_AIRCR_VECTKEY_Msk | SCB_AIRCR_PRIGROUP_Msk)); /* clear bits to change               */
 800030e:	68ba      	ldr	r2, [r7, #8]
 8000310:	f64f 03ff 	movw	r3, #63743	; 0xf8ff
 8000314:	4013      	ands	r3, r2
 8000316:	60bb      	str	r3, [r7, #8]
  reg_value  =  (reg_value                                   |
                ((uint32_t)0x5FAUL << SCB_AIRCR_VECTKEY_Pos) |
                (PriorityGroupTmp << SCB_AIRCR_PRIGROUP_Pos)  );              /* Insert write key and priority group */
 8000318:	68fb      	ldr	r3, [r7, #12]
 800031a:	021a      	lsls	r2, r3, #8
                ((uint32_t)0x5FAUL << SCB_AIRCR_VECTKEY_Pos) |
 800031c:	68bb      	ldr	r3, [r7, #8]
 800031e:	4313      	orrs	r3, r2
  reg_value  =  (reg_value                                   |
 8000320:	f043 63bf 	orr.w	r3, r3, #100139008	; 0x5f80000
 8000324:	f443 3300 	orr.w	r3, r3, #131072	; 0x20000
 8000328:	60bb      	str	r3, [r7, #8]
  SCB->AIRCR =  reg_value;
 800032a:	4a04      	ldr	r2, [pc, #16]	; (800033c <__NVIC_SetPriorityGrouping+0x44>)
 800032c:	68bb      	ldr	r3, [r7, #8]
 800032e:	60d3      	str	r3, [r2, #12]
}
 8000330:	bf00      	nop
 8000332:	3714      	adds	r7, #20
 8000334:	46bd      	mov	sp, r7
 8000336:	f85d 7b04 	ldr.w	r7, [sp], #4
 800033a:	4770      	bx	lr
 800033c:	e000ed00 	.word	0xe000ed00

08000340 <__NVIC_GetPriorityGrouping>:
  \brief   Get Priority Grouping
  \details Reads the priority grouping field from the NVIC Interrupt Controller.
  \return                Priority grouping field (SCB->AIRCR [10:8] PRIGROUP field).
 */
__STATIC_INLINE uint32_t __NVIC_GetPriorityGrouping(void)
{
 8000340:	b480      	push	{r7}
 8000342:	af00      	add	r7, sp, #0
  return ((uint32_t)((SCB->AIRCR & SCB_AIRCR_PRIGROUP_Msk) >> SCB_AIRCR_PRIGROUP_Pos));
 8000344:	4b04      	ldr	r3, [pc, #16]	; (8000358 <__NVIC_GetPriorityGrouping+0x18>)
 8000346:	68db      	ldr	r3, [r3, #12]
 8000348:	0a1b      	lsrs	r3, r3, #8
 800034a:	f003 0307 	and.w	r3, r3, #7
}
 800034e:	4618      	mov	r0, r3
 8000350:	46bd      	mov	sp, r7
 8000352:	f85d 7b04 	ldr.w	r7, [sp], #4
 8000356:	4770      	bx	lr
 8000358:	e000ed00 	.word	0xe000ed00

0800035c <__NVIC_EnableIRQ>:
  \details Enables a device specific interrupt in the NVIC interrupt controller.
  \param [in]      IRQn  Device specific interrupt number.
  \note    IRQn must not be negative.
 */
__STATIC_INLINE void __NVIC_EnableIRQ(IRQn_Type IRQn)
{
 800035c:	b480      	push	{r7}
 800035e:	b083      	sub	sp, #12
 8000360:	af00      	add	r7, sp, #0
 8000362:	4603      	mov	r3, r0
 8000364:	71fb      	strb	r3, [r7, #7]
  if ((int32_t)(IRQn) >= 0)
 8000366:	f997 3007 	ldrsb.w	r3, [r7, #7]
 800036a:	2b00      	cmp	r3, #0
 800036c:	db0b      	blt.n	8000386 <__NVIC_EnableIRQ+0x2a>
  {
    NVIC->ISER[(((uint32_t)IRQn) >> 5UL)] = (uint32_t)(1UL << (((uint32_t)IRQn) & 0x1FUL));
 800036e:	79fb      	ldrb	r3, [r7, #7]
 8000370:	f003 021f 	and.w	r2, r3, #31
 8000374:	4907      	ldr	r1, [pc, #28]	; (8000394 <__NVIC_EnableIRQ+0x38>)
 8000376:	f997 3007 	ldrsb.w	r3, [r7, #7]
 800037a:	095b      	lsrs	r3, r3, #5
 800037c:	2001      	movs	r0, #1
 800037e:	fa00 f202 	lsl.w	r2, r0, r2
 8000382:	f841 2023 	str.w	r2, [r1, r3, lsl #2]
  }
}
 8000386:	bf00      	nop
 8000388:	370c      	adds	r7, #12
 800038a:	46bd      	mov	sp, r7
 800038c:	f85d 7b04 	ldr.w	r7, [sp], #4
 8000390:	4770      	bx	lr
 8000392:	bf00      	nop
 8000394:	e000e100 	.word	0xe000e100

08000398 <__NVIC_SetPriority>:
  \param [in]      IRQn  Interrupt number.
  \param [in]  priority  Priority to set.
  \note    The priority cannot be set for every processor exception.
 */
__STATIC_INLINE void __NVIC_SetPriority(IRQn_Type IRQn, uint32_t priority)
{
 8000398:	b480      	push	{r7}
 800039a:	b083      	sub	sp, #12
 800039c:	af00      	add	r7, sp, #0
 800039e:	4603      	mov	r3, r0
 80003a0:	6039      	str	r1, [r7, #0]
 80003a2:	71fb      	strb	r3, [r7, #7]
  if ((int32_t)(IRQn) >= 0)
 80003a4:	f997 3007 	ldrsb.w	r3, [r7, #7]
 80003a8:	2b00      	cmp	r3, #0
 80003aa:	db0a      	blt.n	80003c2 <__NVIC_SetPriority+0x2a>
  {
    NVIC->IP[((uint32_t)IRQn)]               = (uint8_t)((priority << (8U - __NVIC_PRIO_BITS)) & (uint32_t)0xFFUL);
 80003ac:	683b      	ldr	r3, [r7, #0]
 80003ae:	b2da      	uxtb	r2, r3
 80003b0:	490c      	ldr	r1, [pc, #48]	; (80003e4 <__NVIC_SetPriority+0x4c>)
 80003b2:	f997 3007 	ldrsb.w	r3, [r7, #7]
 80003b6:	0112      	lsls	r2, r2, #4
 80003b8:	b2d2      	uxtb	r2, r2
 80003ba:	440b      	add	r3, r1
 80003bc:	f883 2300 	strb.w	r2, [r3, #768]	; 0x300
  }
  else
  {
    SCB->SHP[(((uint32_t)IRQn) & 0xFUL)-4UL] = (uint8_t)((priority << (8U - __NVIC_PRIO_BITS)) & (uint32_t)0xFFUL);
  }
}
 80003c0:	e00a      	b.n	80003d8 <__NVIC_SetPriority+0x40>
    SCB->SHP[(((uint32_t)IRQn) & 0xFUL)-4UL] = (uint8_t)((priority << (8U - __NVIC_PRIO_BITS)) & (uint32_t)0xFFUL);
 80003c2:	683b      	ldr	r3, [r7, #0]
 80003c4:	b2da      	uxtb	r2, r3
 80003c6:	4908      	ldr	r1, [pc, #32]	; (80003e8 <__NVIC_SetPriority+0x50>)
 80003c8:	79fb      	ldrb	r3, [r7, #7]
 80003ca:	f003 030f 	and.w	r3, r3, #15
 80003ce:	3b04      	subs	r3, #4
 80003d0:	0112      	lsls	r2, r2, #4
 80003d2:	b2d2      	uxtb	r2, r2
 80003d4:	440b      	add	r3, r1
 80003d6:	761a      	strb	r2, [r3, #24]
}
 80003d8:	bf00      	nop
 80003da:	370c      	adds	r7, #12
 80003dc:	46bd      	mov	sp, r7
 80003de:	f85d 7b04 	ldr.w	r7, [sp], #4
 80003e2:	4770      	bx	lr
 80003e4:	e000e100 	.word	0xe000e100
 80003e8:	e000ed00 	.word	0xe000ed00

080003ec <NVIC_EncodePriority>:
  \param [in]   PreemptPriority  Preemptive priority value (starting from 0).
  \param [in]       SubPriority  Subpriority value (starting from 0).
  \return                        Encoded priority. Value can be used in the function \ref NVIC_SetPriority().
 */
__STATIC_INLINE uint32_t NVIC_EncodePriority (uint32_t PriorityGroup, uint32_t PreemptPriority, uint32_t SubPriority)
{
 80003ec:	b480      	push	{r7}
 80003ee:	b089      	sub	sp, #36	; 0x24
 80003f0:	af00      	add	r7, sp, #0
 80003f2:	60f8      	str	r0, [r7, #12]
 80003f4:	60b9      	str	r1, [r7, #8]
 80003f6:	607a      	str	r2, [r7, #4]
  uint32_t PriorityGroupTmp = (PriorityGroup & (uint32_t)0x07UL);   /* only values 0..7 are used          */
 80003f8:	68fb      	ldr	r3, [r7, #12]
 80003fa:	f003 0307 	and.w	r3, r3, #7
 80003fe:	61fb      	str	r3, [r7, #28]
  uint32_t PreemptPriorityBits;
  uint32_t SubPriorityBits;

  PreemptPriorityBits = ((7UL - PriorityGroupTmp) > (uint32_t)(__NVIC_PRIO_BITS)) ? (uint32_t)(__NVIC_PRIO_BITS) : (uint32_t)(7UL - PriorityGroupTmp);
 8000400:	69fb      	ldr	r3, [r7, #28]
 8000402:	f1c3 0307 	rsb	r3, r3, #7
 8000406:	2b04      	cmp	r3, #4
 8000408:	bf28      	it	cs
 800040a:	2304      	movcs	r3, #4
 800040c:	61bb      	str	r3, [r7, #24]
  SubPriorityBits     = ((PriorityGroupTmp + (uint32_t)(__NVIC_PRIO_BITS)) < (uint32_t)7UL) ? (uint32_t)0UL : (uint32_t)((PriorityGroupTmp - 7UL) + (uint32_t)(__NVIC_PRIO_BITS));
 800040e:	69fb      	ldr	r3, [r7, #28]
 8000410:	3304      	adds	r3, #4
 8000412:	2b06      	cmp	r3, #6
 8000414:	d902      	bls.n	800041c <NVIC_EncodePriority+0x30>
 8000416:	69fb      	ldr	r3, [r7, #28]
 8000418:	3b03      	subs	r3, #3
 800041a:	e000      	b.n	800041e <NVIC_EncodePriority+0x32>
 800041c:	2300      	movs	r3, #0
 800041e:	617b      	str	r3, [r7, #20]

  return (
           ((PreemptPriority & (uint32_t)((1UL << (PreemptPriorityBits)) - 1UL)) << SubPriorityBits) |
 8000420:	f04f 32ff 	mov.w	r2, #4294967295
 8000424:	69bb      	ldr	r3, [r7, #24]
 8000426:	fa02 f303 	lsl.w	r3, r2, r3
 800042a:	43da      	mvns	r2, r3
 800042c:	68bb      	ldr	r3, [r7, #8]
 800042e:	401a      	ands	r2, r3
 8000430:	697b      	ldr	r3, [r7, #20]
 8000432:	409a      	lsls	r2, r3
           ((SubPriority     & (uint32_t)((1UL << (SubPriorityBits    )) - 1UL)))
 8000434:	f04f 31ff 	mov.w	r1, #4294967295
 8000438:	697b      	ldr	r3, [r7, #20]
 800043a:	fa01 f303 	lsl.w	r3, r1, r3
 800043e:	43d9      	mvns	r1, r3
 8000440:	687b      	ldr	r3, [r7, #4]
 8000442:	400b      	ands	r3, r1
           ((PreemptPriority & (uint32_t)((1UL << (PreemptPriorityBits)) - 1UL)) << SubPriorityBits) |
 8000444:	4313      	orrs	r3, r2
         );
}
 8000446:	4618      	mov	r0, r3
 8000448:	3724      	adds	r7, #36	; 0x24
 800044a:	46bd      	mov	sp, r7
 800044c:	f85d 7b04 	ldr.w	r7, [sp], #4
 8000450:	4770      	bx	lr
	...

08000454 <SysTick_Config>:
  \note    When the variable <b>__Vendor_SysTickConfig</b> is set to 1, then the
           function <b>SysTick_Config</b> is not included. In this case, the file <b><i>device</i>.h</b>
           must contain a vendor-specific implementation of this function.
 */
__STATIC_INLINE uint32_t SysTick_Config(uint32_t ticks)
{
 8000454:	b580      	push	{r7, lr}
 8000456:	b082      	sub	sp, #8
 8000458:	af00      	add	r7, sp, #0
 800045a:	6078      	str	r0, [r7, #4]
  if ((ticks - 1UL) > SysTick_LOAD_RELOAD_Msk)
 800045c:	687b      	ldr	r3, [r7, #4]
 800045e:	3b01      	subs	r3, #1
 8000460:	f1b3 7f80 	cmp.w	r3, #16777216	; 0x1000000
 8000464:	d301      	bcc.n	800046a <SysTick_Config+0x16>
  {
    return (1UL);                                                   /* Reload value impossible */
 8000466:	2301      	movs	r3, #1
 8000468:	e00f      	b.n	800048a <SysTick_Config+0x36>
  }

  SysTick->LOAD  = (uint32_t)(ticks - 1UL);                         /* set reload register */
 800046a:	4a0a      	ldr	r2, [pc, #40]	; (8000494 <SysTick_Config+0x40>)
 800046c:	687b      	ldr	r3, [r7, #4]
 800046e:	3b01      	subs	r3, #1
 8000470:	6053      	str	r3, [r2, #4]
  NVIC_SetPriority (SysTick_IRQn, (1UL << __NVIC_PRIO_BITS) - 1UL); /* set Priority for Systick Interrupt */
 8000472:	210f      	movs	r1, #15
 8000474:	f04f 30ff 	mov.w	r0, #4294967295
 8000478:	f7ff ff8e 	bl	8000398 <__NVIC_SetPriority>
  SysTick->VAL   = 0UL;                                             /* Load the SysTick Counter Value */
 800047c:	4b05      	ldr	r3, [pc, #20]	; (8000494 <SysTick_Config+0x40>)
 800047e:	2200      	movs	r2, #0
 8000480:	609a      	str	r2, [r3, #8]
  SysTick->CTRL  = SysTick_CTRL_CLKSOURCE_Msk |
 8000482:	4b04      	ldr	r3, [pc, #16]	; (8000494 <SysTick_Config+0x40>)
 8000484:	2207      	movs	r2, #7
 8000486:	601a      	str	r2, [r3, #0]
                   SysTick_CTRL_TICKINT_Msk   |
                   SysTick_CTRL_ENABLE_Msk;                         /* Enable SysTick IRQ and SysTick Timer */
  return (0UL);                                                     /* Function successful */
 8000488:	2300      	movs	r3, #0
}
 800048a:	4618      	mov	r0, r3
 800048c:	3708      	adds	r7, #8
 800048e:	46bd      	mov	sp, r7
 8000490:	bd80      	pop	{r7, pc}
 8000492:	bf00      	nop
 8000494:	e000e010 	.word	0xe000e010

08000498 <HAL_NVIC_SetPriorityGrouping>:
  * @note   When the NVIC_PriorityGroup_0 is selected, IRQ pre-emption is no more possible.
  *         The pending IRQ priority will be managed only by the subpriority.
  * @retval None
  */
void HAL_NVIC_SetPriorityGrouping(uint32_t PriorityGroup)
{
 8000498:	b580      	push	{r7, lr}
 800049a:	b082      	sub	sp, #8
 800049c:	af00      	add	r7, sp, #0
 800049e:	6078      	str	r0, [r7, #4]
  /* Check the parameters */
  assert_param(IS_NVIC_PRIORITY_GROUP(PriorityGroup));

  /* Set the PRIGROUP[10:8] bits according to the PriorityGroup parameter value */
  NVIC_SetPriorityGrouping(PriorityGroup);
 80004a0:	6878      	ldr	r0, [r7, #4]
 80004a2:	f7ff ff29 	bl	80002f8 <__NVIC_SetPriorityGrouping>
}
 80004a6:	bf00      	nop
 80004a8:	3708      	adds	r7, #8
 80004aa:	46bd      	mov	sp, r7
 80004ac:	bd80      	pop	{r7, pc}

080004ae <HAL_NVIC_SetPriority>:
  *         This parameter can be a value between 0 and 15
  *         A lower priority value indicates a higher priority.
  * @retval None
  */
void HAL_NVIC_SetPriority(IRQn_Type IRQn, uint32_t PreemptPriority, uint32_t SubPriority)
{
 80004ae:	b580      	push	{r7, lr}
 80004b0:	b086      	sub	sp, #24
 80004b2:	af00      	add	r7, sp, #0
 80004b4:	4603      	mov	r3, r0
 80004b6:	60b9      	str	r1, [r7, #8]
 80004b8:	607a      	str	r2, [r7, #4]
 80004ba:	73fb      	strb	r3, [r7, #15]

  /* Check the parameters */
  assert_param(IS_NVIC_SUB_PRIORITY(SubPriority));
  assert_param(IS_NVIC_PREEMPTION_PRIORITY(PreemptPriority));

  prioritygroup = NVIC_GetPriorityGrouping();
 80004bc:	f7ff ff40 	bl	8000340 <__NVIC_GetPriorityGrouping>
 80004c0:	6178      	str	r0, [r7, #20]

  NVIC_SetPriority(IRQn, NVIC_EncodePriority(prioritygroup, PreemptPriority, SubPriority));
 80004c2:	687a      	ldr	r2, [r7, #4]
 80004c4:	68b9      	ldr	r1, [r7, #8]
 80004c6:	6978      	ldr	r0, [r7, #20]
 80004c8:	f7ff ff90 	bl	80003ec <NVIC_EncodePriority>
 80004cc:	4602      	mov	r2, r0
 80004ce:	f997 300f 	ldrsb.w	r3, [r7, #15]
 80004d2:	4611      	mov	r1, r2
 80004d4:	4618      	mov	r0, r3
 80004d6:	f7ff ff5f 	bl	8000398 <__NVIC_SetPriority>
}
 80004da:	bf00      	nop
 80004dc:	3718      	adds	r7, #24
 80004de:	46bd      	mov	sp, r7
 80004e0:	bd80      	pop	{r7, pc}

080004e2 <HAL_NVIC_EnableIRQ>:
  *         This parameter can be an enumerator of IRQn_Type enumeration
  *         (For the complete STM32 Devices IRQ Channels list, please refer to the appropriate CMSIS device file (stm32g4xxxx.h))
  * @retval None
  */
void HAL_NVIC_EnableIRQ(IRQn_Type IRQn)
{
 80004e2:	b580      	push	{r7, lr}
 80004e4:	b082      	sub	sp, #8
 80004e6:	af00      	add	r7, sp, #0
 80004e8:	4603      	mov	r3, r0
 80004ea:	71fb      	strb	r3, [r7, #7]
  /* Check the parameters */
  assert_param(IS_NVIC_DEVICE_IRQ(IRQn));
  
  /* Enable interrupt */
  NVIC_EnableIRQ(IRQn);
 80004ec:	f997 3007 	ldrsb.w	r3, [r7, #7]
 80004f0:	4618      	mov	r0, r3
 80004f2:	f7ff ff33 	bl	800035c <__NVIC_EnableIRQ>
}
 80004f6:	bf00      	nop
 80004f8:	3708      	adds	r7, #8
 80004fa:	46bd      	mov	sp, r7
 80004fc:	bd80      	pop	{r7, pc}

080004fe <HAL_SYSTICK_Config>:
  * @param  TicksNumb: Specifies the ticks Number of ticks between two interrupts.
  * @retval status:  - 0  Function succeeded.
  *                  - 1  Function failed.
  */
uint32_t HAL_SYSTICK_Config(uint32_t TicksNumb)
{
 80004fe:	b580      	push	{r7, lr}
 8000500:	b082      	sub	sp, #8
 8000502:	af00      	add	r7, sp, #0
 8000504:	6078      	str	r0, [r7, #4]
   return SysTick_Config(TicksNumb);
 8000506:	6878      	ldr	r0, [r7, #4]
 8000508:	f7ff ffa4 	bl	8000454 <SysTick_Config>
 800050c:	4603      	mov	r3, r0
}
 800050e:	4618      	mov	r0, r3
 8000510:	3708      	adds	r7, #8
 8000512:	46bd      	mov	sp, r7
 8000514:	bd80      	pop	{r7, pc}
	...

08000518 <HAL_FDCAN_Init>:
  * @param  hfdcan pointer to an FDCAN_HandleTypeDef structure that contains
  *         the configuration information for the specified FDCAN.
  * @retval HAL status
  */
HAL_StatusTypeDef HAL_FDCAN_Init(FDCAN_HandleTypeDef *hfdcan)
{
 8000518:	b580      	push	{r7, lr}
 800051a:	b084      	sub	sp, #16
 800051c:	af00      	add	r7, sp, #0
 800051e:	6078      	str	r0, [r7, #4]
  uint32_t tickstart;

  /* Check FDCAN handle */
  if (hfdcan == NULL)
 8000520:	687b      	ldr	r3, [r7, #4]
 8000522:	2b00      	cmp	r3, #0
 8000524:	d101      	bne.n	800052a <HAL_FDCAN_Init+0x12>
  {
    return HAL_ERROR;
 8000526:	2301      	movs	r3, #1
 8000528:	e147      	b.n	80007ba <HAL_FDCAN_Init+0x2a2>

    /* Init the low level hardware: CLOCK, NVIC */
    hfdcan->MspInitCallback(hfdcan);
  }
#else
  if (hfdcan->State == HAL_FDCAN_STATE_RESET)
 800052a:	687b      	ldr	r3, [r7, #4]
 800052c:	f893 305c 	ldrb.w	r3, [r3, #92]	; 0x5c
 8000530:	b2db      	uxtb	r3, r3
 8000532:	2b00      	cmp	r3, #0
 8000534:	d106      	bne.n	8000544 <HAL_FDCAN_Init+0x2c>
  {
    /* Allocate lock resource and initialize it */
    hfdcan->Lock = HAL_UNLOCKED;
 8000536:	687b      	ldr	r3, [r7, #4]
 8000538:	2200      	movs	r2, #0
 800053a:	f883 205d 	strb.w	r2, [r3, #93]	; 0x5d

    /* Init the low level hardware: CLOCK, NVIC */
    HAL_FDCAN_MspInit(hfdcan);
 800053e:	6878      	ldr	r0, [r7, #4]
 8000540:	f005 f896 	bl	8005670 <HAL_FDCAN_MspInit>
  }
#endif /* USE_HAL_FDCAN_REGISTER_CALLBACKS */

  /* Exit from Sleep mode */
  CLEAR_BIT(hfdcan->Instance->CCCR, FDCAN_CCCR_CSR);
 8000544:	687b      	ldr	r3, [r7, #4]
 8000546:	681b      	ldr	r3, [r3, #0]
 8000548:	699a      	ldr	r2, [r3, #24]
 800054a:	687b      	ldr	r3, [r7, #4]
 800054c:	681b      	ldr	r3, [r3, #0]
 800054e:	f022 0210 	bic.w	r2, r2, #16
 8000552:	619a      	str	r2, [r3, #24]

  /* Get tick */
  tickstart = HAL_GetTick();
 8000554:	f7ff fec4 	bl	80002e0 <HAL_GetTick>
 8000558:	60f8      	str	r0, [r7, #12]

  /* Check Sleep mode acknowledge */
  while ((hfdcan->Instance->CCCR & FDCAN_CCCR_CSA) == FDCAN_CCCR_CSA)
 800055a:	e012      	b.n	8000582 <HAL_FDCAN_Init+0x6a>
  {
    if ((HAL_GetTick() - tickstart) > FDCAN_TIMEOUT_VALUE)
 800055c:	f7ff fec0 	bl	80002e0 <HAL_GetTick>
 8000560:	4602      	mov	r2, r0
 8000562:	68fb      	ldr	r3, [r7, #12]
 8000564:	1ad3      	subs	r3, r2, r3
 8000566:	2b0a      	cmp	r3, #10
 8000568:	d90b      	bls.n	8000582 <HAL_FDCAN_Init+0x6a>
    {
      /* Update error code */
      hfdcan->ErrorCode |= HAL_FDCAN_ERROR_TIMEOUT;
 800056a:	687b      	ldr	r3, [r7, #4]
 800056c:	6e1b      	ldr	r3, [r3, #96]	; 0x60
 800056e:	f043 0201 	orr.w	r2, r3, #1
 8000572:	687b      	ldr	r3, [r7, #4]
 8000574:	661a      	str	r2, [r3, #96]	; 0x60

      /* Change FDCAN state */
      hfdcan->State = HAL_FDCAN_STATE_ERROR;
 8000576:	687b      	ldr	r3, [r7, #4]
 8000578:	2203      	movs	r2, #3
 800057a:	f883 205c 	strb.w	r2, [r3, #92]	; 0x5c

      return HAL_ERROR;
 800057e:	2301      	movs	r3, #1
 8000580:	e11b      	b.n	80007ba <HAL_FDCAN_Init+0x2a2>
  while ((hfdcan->Instance->CCCR & FDCAN_CCCR_CSA) == FDCAN_CCCR_CSA)
 8000582:	687b      	ldr	r3, [r7, #4]
 8000584:	681b      	ldr	r3, [r3, #0]
 8000586:	699b      	ldr	r3, [r3, #24]
 8000588:	f003 0308 	and.w	r3, r3, #8
 800058c:	2b08      	cmp	r3, #8
 800058e:	d0e5      	beq.n	800055c <HAL_FDCAN_Init+0x44>
    }
  }

  /* Request initialisation */
  SET_BIT(hfdcan->Instance->CCCR, FDCAN_CCCR_INIT);
 8000590:	687b      	ldr	r3, [r7, #4]
 8000592:	681b      	ldr	r3, [r3, #0]
 8000594:	699a      	ldr	r2, [r3, #24]
 8000596:	687b      	ldr	r3, [r7, #4]
 8000598:	681b      	ldr	r3, [r3, #0]
 800059a:	f042 0201 	orr.w	r2, r2, #1
 800059e:	619a      	str	r2, [r3, #24]

  /* Get tick */
  tickstart = HAL_GetTick();
 80005a0:	f7ff fe9e 	bl	80002e0 <HAL_GetTick>
 80005a4:	60f8      	str	r0, [r7, #12]

  /* Wait until the INIT bit into CCCR register is set */
  while ((hfdcan->Instance->CCCR & FDCAN_CCCR_INIT) == 0U)
 80005a6:	e012      	b.n	80005ce <HAL_FDCAN_Init+0xb6>
  {
    /* Check for the Timeout */
    if ((HAL_GetTick() - tickstart) > FDCAN_TIMEOUT_VALUE)
 80005a8:	f7ff fe9a 	bl	80002e0 <HAL_GetTick>
 80005ac:	4602      	mov	r2, r0
 80005ae:	68fb      	ldr	r3, [r7, #12]
 80005b0:	1ad3      	subs	r3, r2, r3
 80005b2:	2b0a      	cmp	r3, #10
 80005b4:	d90b      	bls.n	80005ce <HAL_FDCAN_Init+0xb6>
    {
      /* Update error code */
      hfdcan->ErrorCode |= HAL_FDCAN_ERROR_TIMEOUT;
 80005b6:	687b      	ldr	r3, [r7, #4]
 80005b8:	6e1b      	ldr	r3, [r3, #96]	; 0x60
 80005ba:	f043 0201 	orr.w	r2, r3, #1
 80005be:	687b      	ldr	r3, [r7, #4]
 80005c0:	661a      	str	r2, [r3, #96]	; 0x60

      /* Change FDCAN state */
      hfdcan->State = HAL_FDCAN_STATE_ERROR;
 80005c2:	687b      	ldr	r3, [r7, #4]
 80005c4:	2203      	movs	r2, #3
 80005c6:	f883 205c 	strb.w	r2, [r3, #92]	; 0x5c

      return HAL_ERROR;
 80005ca:	2301      	movs	r3, #1
 80005cc:	e0f5      	b.n	80007ba <HAL_FDCAN_Init+0x2a2>
  while ((hfdcan->Instance->CCCR & FDCAN_CCCR_INIT) == 0U)
 80005ce:	687b      	ldr	r3, [r7, #4]
 80005d0:	681b      	ldr	r3, [r3, #0]
 80005d2:	699b      	ldr	r3, [r3, #24]
 80005d4:	f003 0301 	and.w	r3, r3, #1
 80005d8:	2b00      	cmp	r3, #0
 80005da:	d0e5      	beq.n	80005a8 <HAL_FDCAN_Init+0x90>
    }
  }

  /* Enable configuration change */
  SET_BIT(hfdcan->Instance->CCCR, FDCAN_CCCR_CCE);
 80005dc:	687b      	ldr	r3, [r7, #4]
 80005de:	681b      	ldr	r3, [r3, #0]
 80005e0:	699a      	ldr	r2, [r3, #24]
 80005e2:	687b      	ldr	r3, [r7, #4]
 80005e4:	681b      	ldr	r3, [r3, #0]
 80005e6:	f042 0202 	orr.w	r2, r2, #2
 80005ea:	619a      	str	r2, [r3, #24]

  /* Check FDCAN instance */
  if (hfdcan->Instance == FDCAN1)
 80005ec:	687b      	ldr	r3, [r7, #4]
 80005ee:	681b      	ldr	r3, [r3, #0]
 80005f0:	4a74      	ldr	r2, [pc, #464]	; (80007c4 <HAL_FDCAN_Init+0x2ac>)
 80005f2:	4293      	cmp	r3, r2
 80005f4:	d103      	bne.n	80005fe <HAL_FDCAN_Init+0xe6>
  {
    /* Configure Clock divider */
    FDCAN_CONFIG->CKDIV = hfdcan->Init.ClockDivider;
 80005f6:	4a74      	ldr	r2, [pc, #464]	; (80007c8 <HAL_FDCAN_Init+0x2b0>)
 80005f8:	687b      	ldr	r3, [r7, #4]
 80005fa:	685b      	ldr	r3, [r3, #4]
 80005fc:	6013      	str	r3, [r2, #0]
  }

  /* Set the no automatic retransmission */
  if (hfdcan->Init.AutoRetransmission == ENABLE)
 80005fe:	687b      	ldr	r3, [r7, #4]
 8000600:	7c1b      	ldrb	r3, [r3, #16]
 8000602:	2b01      	cmp	r3, #1
 8000604:	d108      	bne.n	8000618 <HAL_FDCAN_Init+0x100>
  {
    CLEAR_BIT(hfdcan->Instance->CCCR, FDCAN_CCCR_DAR);
 8000606:	687b      	ldr	r3, [r7, #4]
 8000608:	681b      	ldr	r3, [r3, #0]
 800060a:	699a      	ldr	r2, [r3, #24]
 800060c:	687b      	ldr	r3, [r7, #4]
 800060e:	681b      	ldr	r3, [r3, #0]
 8000610:	f022 0240 	bic.w	r2, r2, #64	; 0x40
 8000614:	619a      	str	r2, [r3, #24]
 8000616:	e007      	b.n	8000628 <HAL_FDCAN_Init+0x110>
  }
  else
  {
    SET_BIT(hfdcan->Instance->CCCR, FDCAN_CCCR_DAR);
 8000618:	687b      	ldr	r3, [r7, #4]
 800061a:	681b      	ldr	r3, [r3, #0]
 800061c:	699a      	ldr	r2, [r3, #24]
 800061e:	687b      	ldr	r3, [r7, #4]
 8000620:	681b      	ldr	r3, [r3, #0]
 8000622:	f042 0240 	orr.w	r2, r2, #64	; 0x40
 8000626:	619a      	str	r2, [r3, #24]
  }

  /* Set the transmit pause feature */
  if (hfdcan->Init.TransmitPause == ENABLE)
 8000628:	687b      	ldr	r3, [r7, #4]
 800062a:	7c5b      	ldrb	r3, [r3, #17]
 800062c:	2b01      	cmp	r3, #1
 800062e:	d108      	bne.n	8000642 <HAL_FDCAN_Init+0x12a>
  {
    SET_BIT(hfdcan->Instance->CCCR, FDCAN_CCCR_TXP);
 8000630:	687b      	ldr	r3, [r7, #4]
 8000632:	681b      	ldr	r3, [r3, #0]
 8000634:	699a      	ldr	r2, [r3, #24]
 8000636:	687b      	ldr	r3, [r7, #4]
 8000638:	681b      	ldr	r3, [r3, #0]
 800063a:	f442 4280 	orr.w	r2, r2, #16384	; 0x4000
 800063e:	619a      	str	r2, [r3, #24]
 8000640:	e007      	b.n	8000652 <HAL_FDCAN_Init+0x13a>
  }
  else
  {
    CLEAR_BIT(hfdcan->Instance->CCCR, FDCAN_CCCR_TXP);
 8000642:	687b      	ldr	r3, [r7, #4]
 8000644:	681b      	ldr	r3, [r3, #0]
 8000646:	699a      	ldr	r2, [r3, #24]
 8000648:	687b      	ldr	r3, [r7, #4]
 800064a:	681b      	ldr	r3, [r3, #0]
 800064c:	f422 4280 	bic.w	r2, r2, #16384	; 0x4000
 8000650:	619a      	str	r2, [r3, #24]
  }

  /* Set the Protocol Exception Handling */
  if (hfdcan->Init.ProtocolException == ENABLE)
 8000652:	687b      	ldr	r3, [r7, #4]
 8000654:	7c9b      	ldrb	r3, [r3, #18]
 8000656:	2b01      	cmp	r3, #1
 8000658:	d108      	bne.n	800066c <HAL_FDCAN_Init+0x154>
  {
    CLEAR_BIT(hfdcan->Instance->CCCR, FDCAN_CCCR_PXHD);
 800065a:	687b      	ldr	r3, [r7, #4]
 800065c:	681b      	ldr	r3, [r3, #0]
 800065e:	699a      	ldr	r2, [r3, #24]
 8000660:	687b      	ldr	r3, [r7, #4]
 8000662:	681b      	ldr	r3, [r3, #0]
 8000664:	f422 5280 	bic.w	r2, r2, #4096	; 0x1000
 8000668:	619a      	str	r2, [r3, #24]
 800066a:	e007      	b.n	800067c <HAL_FDCAN_Init+0x164>
  }
  else
  {
    SET_BIT(hfdcan->Instance->CCCR, FDCAN_CCCR_PXHD);
 800066c:	687b      	ldr	r3, [r7, #4]
 800066e:	681b      	ldr	r3, [r3, #0]
 8000670:	699a      	ldr	r2, [r3, #24]
 8000672:	687b      	ldr	r3, [r7, #4]
 8000674:	681b      	ldr	r3, [r3, #0]
 8000676:	f442 5280 	orr.w	r2, r2, #4096	; 0x1000
 800067a:	619a      	str	r2, [r3, #24]
  }

  /* Set FDCAN Frame Format */
  MODIFY_REG(hfdcan->Instance->CCCR, FDCAN_FRAME_FD_BRS, hfdcan->Init.FrameFormat);
 800067c:	687b      	ldr	r3, [r7, #4]
 800067e:	681b      	ldr	r3, [r3, #0]
 8000680:	699b      	ldr	r3, [r3, #24]
 8000682:	f423 7140 	bic.w	r1, r3, #768	; 0x300
 8000686:	687b      	ldr	r3, [r7, #4]
 8000688:	689a      	ldr	r2, [r3, #8]
 800068a:	687b      	ldr	r3, [r7, #4]
 800068c:	681b      	ldr	r3, [r3, #0]
 800068e:	430a      	orrs	r2, r1
 8000690:	619a      	str	r2, [r3, #24]

  /* Reset FDCAN Operation Mode */
  CLEAR_BIT(hfdcan->Instance->CCCR, (FDCAN_CCCR_TEST | FDCAN_CCCR_MON | FDCAN_CCCR_ASM));
 8000692:	687b      	ldr	r3, [r7, #4]
 8000694:	681b      	ldr	r3, [r3, #0]
 8000696:	699a      	ldr	r2, [r3, #24]
 8000698:	687b      	ldr	r3, [r7, #4]
 800069a:	681b      	ldr	r3, [r3, #0]
 800069c:	f022 02a4 	bic.w	r2, r2, #164	; 0xa4
 80006a0:	619a      	str	r2, [r3, #24]
  CLEAR_BIT(hfdcan->Instance->TEST, FDCAN_TEST_LBCK);
 80006a2:	687b      	ldr	r3, [r7, #4]
 80006a4:	681b      	ldr	r3, [r3, #0]
 80006a6:	691a      	ldr	r2, [r3, #16]
 80006a8:	687b      	ldr	r3, [r7, #4]
 80006aa:	681b      	ldr	r3, [r3, #0]
 80006ac:	f022 0210 	bic.w	r2, r2, #16
 80006b0:	611a      	str	r2, [r3, #16]
     CCCR.TEST |   0    |     0      |     0      |    1     |    1
     CCCR.MON  |   0    |     0      |     1      |    1     |    0
     TEST.LBCK |   0    |     0      |     0      |    1     |    1
     CCCR.ASM  |   0    |     1      |     0      |    0     |    0
  */
  if (hfdcan->Init.Mode == FDCAN_MODE_RESTRICTED_OPERATION)
 80006b2:	687b      	ldr	r3, [r7, #4]
 80006b4:	68db      	ldr	r3, [r3, #12]
 80006b6:	2b01      	cmp	r3, #1
 80006b8:	d108      	bne.n	80006cc <HAL_FDCAN_Init+0x1b4>
  {
    /* Enable Restricted Operation mode */
    SET_BIT(hfdcan->Instance->CCCR, FDCAN_CCCR_ASM);
 80006ba:	687b      	ldr	r3, [r7, #4]
 80006bc:	681b      	ldr	r3, [r3, #0]
 80006be:	699a      	ldr	r2, [r3, #24]
 80006c0:	687b      	ldr	r3, [r7, #4]
 80006c2:	681b      	ldr	r3, [r3, #0]
 80006c4:	f042 0204 	orr.w	r2, r2, #4
 80006c8:	619a      	str	r2, [r3, #24]
 80006ca:	e02c      	b.n	8000726 <HAL_FDCAN_Init+0x20e>
  }
  else if (hfdcan->Init.Mode != FDCAN_MODE_NORMAL)
 80006cc:	687b      	ldr	r3, [r7, #4]
 80006ce:	68db      	ldr	r3, [r3, #12]
 80006d0:	2b00      	cmp	r3, #0
 80006d2:	d028      	beq.n	8000726 <HAL_FDCAN_Init+0x20e>
  {
    if (hfdcan->Init.Mode != FDCAN_MODE_BUS_MONITORING)
 80006d4:	687b      	ldr	r3, [r7, #4]
 80006d6:	68db      	ldr	r3, [r3, #12]
 80006d8:	2b02      	cmp	r3, #2
 80006da:	d01c      	beq.n	8000716 <HAL_FDCAN_Init+0x1fe>
    {
      /* Enable write access to TEST register */
      SET_BIT(hfdcan->Instance->CCCR, FDCAN_CCCR_TEST);
 80006dc:	687b      	ldr	r3, [r7, #4]
 80006de:	681b      	ldr	r3, [r3, #0]
 80006e0:	699a      	ldr	r2, [r3, #24]
 80006e2:	687b      	ldr	r3, [r7, #4]
 80006e4:	681b      	ldr	r3, [r3, #0]
 80006e6:	f042 0280 	orr.w	r2, r2, #128	; 0x80
 80006ea:	619a      	str	r2, [r3, #24]

      /* Enable LoopBack mode */
      SET_BIT(hfdcan->Instance->TEST, FDCAN_TEST_LBCK);
 80006ec:	687b      	ldr	r3, [r7, #4]
 80006ee:	681b      	ldr	r3, [r3, #0]
 80006f0:	691a      	ldr	r2, [r3, #16]
 80006f2:	687b      	ldr	r3, [r7, #4]
 80006f4:	681b      	ldr	r3, [r3, #0]
 80006f6:	f042 0210 	orr.w	r2, r2, #16
 80006fa:	611a      	str	r2, [r3, #16]

      if (hfdcan->Init.Mode == FDCAN_MODE_INTERNAL_LOOPBACK)
 80006fc:	687b      	ldr	r3, [r7, #4]
 80006fe:	68db      	ldr	r3, [r3, #12]
 8000700:	2b03      	cmp	r3, #3
 8000702:	d110      	bne.n	8000726 <HAL_FDCAN_Init+0x20e>
      {
        SET_BIT(hfdcan->Instance->CCCR, FDCAN_CCCR_MON);
 8000704:	687b      	ldr	r3, [r7, #4]
 8000706:	681b      	ldr	r3, [r3, #0]
 8000708:	699a      	ldr	r2, [r3, #24]
 800070a:	687b      	ldr	r3, [r7, #4]
 800070c:	681b      	ldr	r3, [r3, #0]
 800070e:	f042 0220 	orr.w	r2, r2, #32
 8000712:	619a      	str	r2, [r3, #24]
 8000714:	e007      	b.n	8000726 <HAL_FDCAN_Init+0x20e>
      }
    }
    else
    {
      /* Enable bus monitoring mode */
      SET_BIT(hfdcan->Instance->CCCR, FDCAN_CCCR_MON);
 8000716:	687b      	ldr	r3, [r7, #4]
 8000718:	681b      	ldr	r3, [r3, #0]
 800071a:	699a      	ldr	r2, [r3, #24]
 800071c:	687b      	ldr	r3, [r7, #4]
 800071e:	681b      	ldr	r3, [r3, #0]
 8000720:	f042 0220 	orr.w	r2, r2, #32
 8000724:	619a      	str	r2, [r3, #24]
  {
    /* Nothing to do: normal mode */
  }

  /* Set the nominal bit timing register */
  hfdcan->Instance->NBTP = ((((uint32_t)hfdcan->Init.NominalSyncJumpWidth - 1U) << FDCAN_NBTP_NSJW_Pos) | \
 8000726:	687b      	ldr	r3, [r7, #4]
 8000728:	699b      	ldr	r3, [r3, #24]
 800072a:	3b01      	subs	r3, #1
 800072c:	065a      	lsls	r2, r3, #25
                            (((uint32_t)hfdcan->Init.NominalTimeSeg1 - 1U) << FDCAN_NBTP_NTSEG1_Pos)    | \
 800072e:	687b      	ldr	r3, [r7, #4]
 8000730:	69db      	ldr	r3, [r3, #28]
 8000732:	3b01      	subs	r3, #1
 8000734:	021b      	lsls	r3, r3, #8
  hfdcan->Instance->NBTP = ((((uint32_t)hfdcan->Init.NominalSyncJumpWidth - 1U) << FDCAN_NBTP_NSJW_Pos) | \
 8000736:	431a      	orrs	r2, r3
                            (((uint32_t)hfdcan->Init.NominalTimeSeg2 - 1U) << FDCAN_NBTP_NTSEG2_Pos)    | \
 8000738:	687b      	ldr	r3, [r7, #4]
 800073a:	6a1b      	ldr	r3, [r3, #32]
 800073c:	3b01      	subs	r3, #1
                            (((uint32_t)hfdcan->Init.NominalTimeSeg1 - 1U) << FDCAN_NBTP_NTSEG1_Pos)    | \
 800073e:	ea42 0103 	orr.w	r1, r2, r3
                            (((uint32_t)hfdcan->Init.NominalPrescaler - 1U) << FDCAN_NBTP_NBRP_Pos));
 8000742:	687b      	ldr	r3, [r7, #4]
 8000744:	695b      	ldr	r3, [r3, #20]
 8000746:	3b01      	subs	r3, #1
 8000748:	041a      	lsls	r2, r3, #16
  hfdcan->Instance->NBTP = ((((uint32_t)hfdcan->Init.NominalSyncJumpWidth - 1U) << FDCAN_NBTP_NSJW_Pos) | \
 800074a:	687b      	ldr	r3, [r7, #4]
 800074c:	681b      	ldr	r3, [r3, #0]
                            (((uint32_t)hfdcan->Init.NominalTimeSeg2 - 1U) << FDCAN_NBTP_NTSEG2_Pos)    | \
 800074e:	430a      	orrs	r2, r1
  hfdcan->Instance->NBTP = ((((uint32_t)hfdcan->Init.NominalSyncJumpWidth - 1U) << FDCAN_NBTP_NSJW_Pos) | \
 8000750:	61da      	str	r2, [r3, #28]

  /* If FD operation with BRS is selected, set the data bit timing register */
  if (hfdcan->Init.FrameFormat == FDCAN_FRAME_FD_BRS)
 8000752:	687b      	ldr	r3, [r7, #4]
 8000754:	689b      	ldr	r3, [r3, #8]
 8000756:	f5b3 7f40 	cmp.w	r3, #768	; 0x300
 800075a:	d115      	bne.n	8000788 <HAL_FDCAN_Init+0x270>
  {
    hfdcan->Instance->DBTP = ((((uint32_t)hfdcan->Init.DataSyncJumpWidth - 1U) << FDCAN_DBTP_DSJW_Pos)  | \
 800075c:	687b      	ldr	r3, [r7, #4]
 800075e:	6a9b      	ldr	r3, [r3, #40]	; 0x28
 8000760:	1e5a      	subs	r2, r3, #1
                              (((uint32_t)hfdcan->Init.DataTimeSeg1 - 1U) << FDCAN_DBTP_DTSEG1_Pos)     | \
 8000762:	687b      	ldr	r3, [r7, #4]
 8000764:	6adb      	ldr	r3, [r3, #44]	; 0x2c
 8000766:	3b01      	subs	r3, #1
 8000768:	021b      	lsls	r3, r3, #8
    hfdcan->Instance->DBTP = ((((uint32_t)hfdcan->Init.DataSyncJumpWidth - 1U) << FDCAN_DBTP_DSJW_Pos)  | \
 800076a:	431a      	orrs	r2, r3
                              (((uint32_t)hfdcan->Init.DataTimeSeg2 - 1U) << FDCAN_DBTP_DTSEG2_Pos)     | \
 800076c:	687b      	ldr	r3, [r7, #4]
 800076e:	6b1b      	ldr	r3, [r3, #48]	; 0x30
 8000770:	3b01      	subs	r3, #1
 8000772:	011b      	lsls	r3, r3, #4
                              (((uint32_t)hfdcan->Init.DataTimeSeg1 - 1U) << FDCAN_DBTP_DTSEG1_Pos)     | \
 8000774:	ea42 0103 	orr.w	r1, r2, r3
                              (((uint32_t)hfdcan->Init.DataPrescaler - 1U) << FDCAN_DBTP_DBRP_Pos));
 8000778:	687b      	ldr	r3, [r7, #4]
 800077a:	6a5b      	ldr	r3, [r3, #36]	; 0x24
 800077c:	3b01      	subs	r3, #1
 800077e:	041a      	lsls	r2, r3, #16
    hfdcan->Instance->DBTP = ((((uint32_t)hfdcan->Init.DataSyncJumpWidth - 1U) << FDCAN_DBTP_DSJW_Pos)  | \
 8000780:	687b      	ldr	r3, [r7, #4]
 8000782:	681b      	ldr	r3, [r3, #0]
                              (((uint32_t)hfdcan->Init.DataTimeSeg2 - 1U) << FDCAN_DBTP_DTSEG2_Pos)     | \
 8000784:	430a      	orrs	r2, r1
    hfdcan->Instance->DBTP = ((((uint32_t)hfdcan->Init.DataSyncJumpWidth - 1U) << FDCAN_DBTP_DSJW_Pos)  | \
 8000786:	60da      	str	r2, [r3, #12]
  }

  /* Select between Tx FIFO and Tx Queue operation modes */
  SET_BIT(hfdcan->Instance->TXBC, hfdcan->Init.TxFifoQueueMode);
 8000788:	687b      	ldr	r3, [r7, #4]
 800078a:	681b      	ldr	r3, [r3, #0]
 800078c:	f8d3 10c0 	ldr.w	r1, [r3, #192]	; 0xc0
 8000790:	687b      	ldr	r3, [r7, #4]
 8000792:	6bda      	ldr	r2, [r3, #60]	; 0x3c
 8000794:	687b      	ldr	r3, [r7, #4]
 8000796:	681b      	ldr	r3, [r3, #0]
 8000798:	430a      	orrs	r2, r1
 800079a:	f8c3 20c0 	str.w	r2, [r3, #192]	; 0xc0

  /* Calculate each RAM block address */
  FDCAN_CalcultateRamBlockAddresses(hfdcan);
 800079e:	6878      	ldr	r0, [r7, #4]
 80007a0:	f000 f814 	bl	80007cc <FDCAN_CalcultateRamBlockAddresses>

  /* Initialize the Latest Tx request buffer index */
  hfdcan->LatestTxFifoQRequest = 0U;
 80007a4:	687b      	ldr	r3, [r7, #4]
 80007a6:	2200      	movs	r2, #0
 80007a8:	659a      	str	r2, [r3, #88]	; 0x58

  /* Initialize the error code */
  hfdcan->ErrorCode = HAL_FDCAN_ERROR_NONE;
 80007aa:	687b      	ldr	r3, [r7, #4]
 80007ac:	2200      	movs	r2, #0
 80007ae:	661a      	str	r2, [r3, #96]	; 0x60

  /* Initialize the FDCAN state */
  hfdcan->State = HAL_FDCAN_STATE_READY;
 80007b0:	687b      	ldr	r3, [r7, #4]
 80007b2:	2201      	movs	r2, #1
 80007b4:	f883 205c 	strb.w	r2, [r3, #92]	; 0x5c

  /* Return function status */
  return HAL_OK;
 80007b8:	2300      	movs	r3, #0
}
 80007ba:	4618      	mov	r0, r3
 80007bc:	3710      	adds	r7, #16
 80007be:	46bd      	mov	sp, r7
 80007c0:	bd80      	pop	{r7, pc}
 80007c2:	bf00      	nop
 80007c4:	40006400 	.word	0x40006400
 80007c8:	40006500 	.word	0x40006500

080007cc <FDCAN_CalcultateRamBlockAddresses>:
  * @param  hfdcan pointer to an FDCAN_HandleTypeDef structure that contains
  *         the configuration information for the specified FDCAN.
  * @retval none
 */
static void FDCAN_CalcultateRamBlockAddresses(FDCAN_HandleTypeDef *hfdcan)
{
 80007cc:	b480      	push	{r7}
 80007ce:	b085      	sub	sp, #20
 80007d0:	af00      	add	r7, sp, #0
 80007d2:	6078      	str	r0, [r7, #4]
  uint32_t RAMcounter;
  uint32_t SramCanInstanceBase = SRAMCAN_BASE;
 80007d4:	4b27      	ldr	r3, [pc, #156]	; (8000874 <FDCAN_CalcultateRamBlockAddresses+0xa8>)
 80007d6:	60bb      	str	r3, [r7, #8]
    SramCanInstanceBase += SRAMCAN_SIZE * 2U;
  }
#endif /* FDCAN3 */

  /* Standard filter list start address */
  hfdcan->msgRam.StandardFilterSA = SramCanInstanceBase + SRAMCAN_FLSSA;
 80007d8:	687b      	ldr	r3, [r7, #4]
 80007da:	68ba      	ldr	r2, [r7, #8]
 80007dc:	641a      	str	r2, [r3, #64]	; 0x40

  /* Standard filter elements number */
  MODIFY_REG(hfdcan->Instance->RXGFC, FDCAN_RXGFC_LSS, (hfdcan->Init.StdFiltersNbr << FDCAN_RXGFC_LSS_Pos));
 80007de:	687b      	ldr	r3, [r7, #4]
 80007e0:	681b      	ldr	r3, [r3, #0]
 80007e2:	f8d3 3080 	ldr.w	r3, [r3, #128]	; 0x80
 80007e6:	f423 11f8 	bic.w	r1, r3, #2031616	; 0x1f0000
 80007ea:	687b      	ldr	r3, [r7, #4]
 80007ec:	6b5b      	ldr	r3, [r3, #52]	; 0x34
 80007ee:	041a      	lsls	r2, r3, #16
 80007f0:	687b      	ldr	r3, [r7, #4]
 80007f2:	681b      	ldr	r3, [r3, #0]
 80007f4:	430a      	orrs	r2, r1
 80007f6:	f8c3 2080 	str.w	r2, [r3, #128]	; 0x80

  /* Extended filter list start address */
  hfdcan->msgRam.ExtendedFilterSA = SramCanInstanceBase + SRAMCAN_FLESA;
 80007fa:	68bb      	ldr	r3, [r7, #8]
 80007fc:	f103 0270 	add.w	r2, r3, #112	; 0x70
 8000800:	687b      	ldr	r3, [r7, #4]
 8000802:	645a      	str	r2, [r3, #68]	; 0x44

  /* Extended filter elements number */
  MODIFY_REG(hfdcan->Instance->RXGFC, FDCAN_RXGFC_LSE, (hfdcan->Init.ExtFiltersNbr << FDCAN_RXGFC_LSE_Pos));
 8000804:	687b      	ldr	r3, [r7, #4]
 8000806:	681b      	ldr	r3, [r3, #0]
 8000808:	f8d3 3080 	ldr.w	r3, [r3, #128]	; 0x80
 800080c:	f023 6170 	bic.w	r1, r3, #251658240	; 0xf000000
 8000810:	687b      	ldr	r3, [r7, #4]
 8000812:	6b9b      	ldr	r3, [r3, #56]	; 0x38
 8000814:	061a      	lsls	r2, r3, #24
 8000816:	687b      	ldr	r3, [r7, #4]
 8000818:	681b      	ldr	r3, [r3, #0]
 800081a:	430a      	orrs	r2, r1
 800081c:	f8c3 2080 	str.w	r2, [r3, #128]	; 0x80

  /* Rx FIFO 0 start address */
  hfdcan->msgRam.RxFIFO0SA = SramCanInstanceBase + SRAMCAN_RF0SA;
 8000820:	68bb      	ldr	r3, [r7, #8]
 8000822:	f103 02b0 	add.w	r2, r3, #176	; 0xb0
 8000826:	687b      	ldr	r3, [r7, #4]
 8000828:	649a      	str	r2, [r3, #72]	; 0x48

  /* Rx FIFO 1 start address */
  hfdcan->msgRam.RxFIFO1SA = SramCanInstanceBase + SRAMCAN_RF1SA;
 800082a:	68bb      	ldr	r3, [r7, #8]
 800082c:	f503 72c4 	add.w	r2, r3, #392	; 0x188
 8000830:	687b      	ldr	r3, [r7, #4]
 8000832:	64da      	str	r2, [r3, #76]	; 0x4c

  /* Tx event FIFO start address */
  hfdcan->msgRam.TxEventFIFOSA = SramCanInstanceBase + SRAMCAN_TEFSA;
 8000834:	68bb      	ldr	r3, [r7, #8]
 8000836:	f503 7218 	add.w	r2, r3, #608	; 0x260
 800083a:	687b      	ldr	r3, [r7, #4]
 800083c:	651a      	str	r2, [r3, #80]	; 0x50

  /* Tx FIFO/queue start address */
  hfdcan->msgRam.TxFIFOQSA = SramCanInstanceBase + SRAMCAN_TFQSA;
 800083e:	68bb      	ldr	r3, [r7, #8]
 8000840:	f503 721e 	add.w	r2, r3, #632	; 0x278
 8000844:	687b      	ldr	r3, [r7, #4]
 8000846:	655a      	str	r2, [r3, #84]	; 0x54

  /* Flush the allocated Message RAM area */
  for (RAMcounter = SramCanInstanceBase; RAMcounter < (SramCanInstanceBase + SRAMCAN_SIZE); RAMcounter += 4U)
 8000848:	68bb      	ldr	r3, [r7, #8]
 800084a:	60fb      	str	r3, [r7, #12]
 800084c:	e005      	b.n	800085a <FDCAN_CalcultateRamBlockAddresses+0x8e>
  {
    *(uint32_t *)(RAMcounter) = 0x00000000U;
 800084e:	68fb      	ldr	r3, [r7, #12]
 8000850:	2200      	movs	r2, #0
 8000852:	601a      	str	r2, [r3, #0]
  for (RAMcounter = SramCanInstanceBase; RAMcounter < (SramCanInstanceBase + SRAMCAN_SIZE); RAMcounter += 4U)
 8000854:	68fb      	ldr	r3, [r7, #12]
 8000856:	3304      	adds	r3, #4
 8000858:	60fb      	str	r3, [r7, #12]
 800085a:	68bb      	ldr	r3, [r7, #8]
 800085c:	f503 7354 	add.w	r3, r3, #848	; 0x350
 8000860:	68fa      	ldr	r2, [r7, #12]
 8000862:	429a      	cmp	r2, r3
 8000864:	d3f3      	bcc.n	800084e <FDCAN_CalcultateRamBlockAddresses+0x82>
  }
}
 8000866:	bf00      	nop
 8000868:	3714      	adds	r7, #20
 800086a:	46bd      	mov	sp, r7
 800086c:	f85d 7b04 	ldr.w	r7, [sp], #4
 8000870:	4770      	bx	lr
 8000872:	bf00      	nop
 8000874:	4000a400 	.word	0x4000a400

08000878 <HAL_GPIO_Init>:
  * @param  GPIO_Init pointer to a GPIO_InitTypeDef structure that contains
  *         the configuration information for the specified GPIO peripheral.
  * @retval None
  */
void HAL_GPIO_Init(GPIO_TypeDef  *GPIOx, GPIO_InitTypeDef *GPIO_Init)
{
 8000878:	b480      	push	{r7}
 800087a:	b087      	sub	sp, #28
 800087c:	af00      	add	r7, sp, #0
 800087e:	6078      	str	r0, [r7, #4]
 8000880:	6039      	str	r1, [r7, #0]
  uint32_t position = 0x00U;
 8000882:	2300      	movs	r3, #0
 8000884:	617b      	str	r3, [r7, #20]
  assert_param(IS_GPIO_PIN(GPIO_Init->Pin));
  assert_param(IS_GPIO_MODE(GPIO_Init->Mode));
  assert_param(IS_GPIO_PULL(GPIO_Init->Pull));

  /* Configure the port pins */
  while (((GPIO_Init->Pin) >> position) != 0U)
 8000886:	e15a      	b.n	8000b3e <HAL_GPIO_Init+0x2c6>
  {
    /* Get current io position */
    iocurrent = (GPIO_Init->Pin) & (1UL << position);
 8000888:	683b      	ldr	r3, [r7, #0]
 800088a:	681a      	ldr	r2, [r3, #0]
 800088c:	2101      	movs	r1, #1
 800088e:	697b      	ldr	r3, [r7, #20]
 8000890:	fa01 f303 	lsl.w	r3, r1, r3
 8000894:	4013      	ands	r3, r2
 8000896:	60fb      	str	r3, [r7, #12]

    if (iocurrent != 0x00u)
 8000898:	68fb      	ldr	r3, [r7, #12]
 800089a:	2b00      	cmp	r3, #0
 800089c:	f000 814c 	beq.w	8000b38 <HAL_GPIO_Init+0x2c0>
    {
      /*--------------------- GPIO Mode Configuration ------------------------*/
      /* In case of Output or Alternate function mode selection */
      if ((GPIO_Init->Mode == GPIO_MODE_OUTPUT_PP) || (GPIO_Init->Mode == GPIO_MODE_AF_PP) ||
 80008a0:	683b      	ldr	r3, [r7, #0]
 80008a2:	685b      	ldr	r3, [r3, #4]
 80008a4:	2b01      	cmp	r3, #1
 80008a6:	d00b      	beq.n	80008c0 <HAL_GPIO_Init+0x48>
 80008a8:	683b      	ldr	r3, [r7, #0]
 80008aa:	685b      	ldr	r3, [r3, #4]
 80008ac:	2b02      	cmp	r3, #2
 80008ae:	d007      	beq.n	80008c0 <HAL_GPIO_Init+0x48>
          (GPIO_Init->Mode == GPIO_MODE_OUTPUT_OD) || (GPIO_Init->Mode == GPIO_MODE_AF_OD))
 80008b0:	683b      	ldr	r3, [r7, #0]
 80008b2:	685b      	ldr	r3, [r3, #4]
      if ((GPIO_Init->Mode == GPIO_MODE_OUTPUT_PP) || (GPIO_Init->Mode == GPIO_MODE_AF_PP) ||
 80008b4:	2b11      	cmp	r3, #17
 80008b6:	d003      	beq.n	80008c0 <HAL_GPIO_Init+0x48>
          (GPIO_Init->Mode == GPIO_MODE_OUTPUT_OD) || (GPIO_Init->Mode == GPIO_MODE_AF_OD))
 80008b8:	683b      	ldr	r3, [r7, #0]
 80008ba:	685b      	ldr	r3, [r3, #4]
 80008bc:	2b12      	cmp	r3, #18
 80008be:	d130      	bne.n	8000922 <HAL_GPIO_Init+0xaa>
      {
        /* Check the Speed parameter */
        assert_param(IS_GPIO_SPEED(GPIO_Init->Speed));
        /* Configure the IO Speed */
        temp = GPIOx->OSPEEDR;
 80008c0:	687b      	ldr	r3, [r7, #4]
 80008c2:	689b      	ldr	r3, [r3, #8]
 80008c4:	613b      	str	r3, [r7, #16]
        temp &= ~(GPIO_OSPEEDR_OSPEED0 << (position * 2U));
 80008c6:	697b      	ldr	r3, [r7, #20]
 80008c8:	005b      	lsls	r3, r3, #1
 80008ca:	2203      	movs	r2, #3
 80008cc:	fa02 f303 	lsl.w	r3, r2, r3
 80008d0:	43db      	mvns	r3, r3
 80008d2:	693a      	ldr	r2, [r7, #16]
 80008d4:	4013      	ands	r3, r2
 80008d6:	613b      	str	r3, [r7, #16]
        temp |= (GPIO_Init->Speed << (position * 2U));
 80008d8:	683b      	ldr	r3, [r7, #0]
 80008da:	68da      	ldr	r2, [r3, #12]
 80008dc:	697b      	ldr	r3, [r7, #20]
 80008de:	005b      	lsls	r3, r3, #1
 80008e0:	fa02 f303 	lsl.w	r3, r2, r3
 80008e4:	693a      	ldr	r2, [r7, #16]
 80008e6:	4313      	orrs	r3, r2
 80008e8:	613b      	str	r3, [r7, #16]
        GPIOx->OSPEEDR = temp;
 80008ea:	687b      	ldr	r3, [r7, #4]
 80008ec:	693a      	ldr	r2, [r7, #16]
 80008ee:	609a      	str	r2, [r3, #8]

        /* Configure the IO Output Type */
        temp = GPIOx->OTYPER;
 80008f0:	687b      	ldr	r3, [r7, #4]
 80008f2:	685b      	ldr	r3, [r3, #4]
 80008f4:	613b      	str	r3, [r7, #16]
        temp &= ~(GPIO_OTYPER_OT0 << position) ;
 80008f6:	2201      	movs	r2, #1
 80008f8:	697b      	ldr	r3, [r7, #20]
 80008fa:	fa02 f303 	lsl.w	r3, r2, r3
 80008fe:	43db      	mvns	r3, r3
 8000900:	693a      	ldr	r2, [r7, #16]
 8000902:	4013      	ands	r3, r2
 8000904:	613b      	str	r3, [r7, #16]
        temp |= (((GPIO_Init->Mode & GPIO_OUTPUT_TYPE) >> 4U) << position);
 8000906:	683b      	ldr	r3, [r7, #0]
 8000908:	685b      	ldr	r3, [r3, #4]
 800090a:	091b      	lsrs	r3, r3, #4
 800090c:	f003 0201 	and.w	r2, r3, #1
 8000910:	697b      	ldr	r3, [r7, #20]
 8000912:	fa02 f303 	lsl.w	r3, r2, r3
 8000916:	693a      	ldr	r2, [r7, #16]
 8000918:	4313      	orrs	r3, r2
 800091a:	613b      	str	r3, [r7, #16]
        GPIOx->OTYPER = temp;
 800091c:	687b      	ldr	r3, [r7, #4]
 800091e:	693a      	ldr	r2, [r7, #16]
 8000920:	605a      	str	r2, [r3, #4]
      }

      /* Activate the Pull-up or Pull down resistor for the current IO */
      temp = GPIOx->PUPDR;
 8000922:	687b      	ldr	r3, [r7, #4]
 8000924:	68db      	ldr	r3, [r3, #12]
 8000926:	613b      	str	r3, [r7, #16]
      temp &= ~(GPIO_PUPDR_PUPD0 << (position * 2U));
 8000928:	697b      	ldr	r3, [r7, #20]
 800092a:	005b      	lsls	r3, r3, #1
 800092c:	2203      	movs	r2, #3
 800092e:	fa02 f303 	lsl.w	r3, r2, r3
 8000932:	43db      	mvns	r3, r3
 8000934:	693a      	ldr	r2, [r7, #16]
 8000936:	4013      	ands	r3, r2
 8000938:	613b      	str	r3, [r7, #16]
      temp |= ((GPIO_Init->Pull) << (position * 2U));
 800093a:	683b      	ldr	r3, [r7, #0]
 800093c:	689a      	ldr	r2, [r3, #8]
 800093e:	697b      	ldr	r3, [r7, #20]
 8000940:	005b      	lsls	r3, r3, #1
 8000942:	fa02 f303 	lsl.w	r3, r2, r3
 8000946:	693a      	ldr	r2, [r7, #16]
 8000948:	4313      	orrs	r3, r2
 800094a:	613b      	str	r3, [r7, #16]
      GPIOx->PUPDR = temp;
 800094c:	687b      	ldr	r3, [r7, #4]
 800094e:	693a      	ldr	r2, [r7, #16]
 8000950:	60da      	str	r2, [r3, #12]

      /* In case of Alternate function mode selection */
      if ((GPIO_Init->Mode == GPIO_MODE_AF_PP) || (GPIO_Init->Mode == GPIO_MODE_AF_OD))
 8000952:	683b      	ldr	r3, [r7, #0]
 8000954:	685b      	ldr	r3, [r3, #4]
 8000956:	2b02      	cmp	r3, #2
 8000958:	d003      	beq.n	8000962 <HAL_GPIO_Init+0xea>
 800095a:	683b      	ldr	r3, [r7, #0]
 800095c:	685b      	ldr	r3, [r3, #4]
 800095e:	2b12      	cmp	r3, #18
 8000960:	d123      	bne.n	80009aa <HAL_GPIO_Init+0x132>
        /* Check the Alternate function parameters */
        assert_param(IS_GPIO_AF_INSTANCE(GPIOx));
        assert_param(IS_GPIO_AF(GPIO_Init->Alternate));

        /* Configure Alternate function mapped with the current IO */
        temp = GPIOx->AFR[position >> 3U];
 8000962:	697b      	ldr	r3, [r7, #20]
 8000964:	08da      	lsrs	r2, r3, #3
 8000966:	687b      	ldr	r3, [r7, #4]
 8000968:	3208      	adds	r2, #8
 800096a:	f853 3022 	ldr.w	r3, [r3, r2, lsl #2]
 800096e:	613b      	str	r3, [r7, #16]
        temp &= ~(0xFU << ((position & 0x07U) * 4U));
 8000970:	697b      	ldr	r3, [r7, #20]
 8000972:	f003 0307 	and.w	r3, r3, #7
 8000976:	009b      	lsls	r3, r3, #2
 8000978:	220f      	movs	r2, #15
 800097a:	fa02 f303 	lsl.w	r3, r2, r3
 800097e:	43db      	mvns	r3, r3
 8000980:	693a      	ldr	r2, [r7, #16]
 8000982:	4013      	ands	r3, r2
 8000984:	613b      	str	r3, [r7, #16]
        temp |= ((GPIO_Init->Alternate) << ((position & 0x07U) * 4U));
 8000986:	683b      	ldr	r3, [r7, #0]
 8000988:	691a      	ldr	r2, [r3, #16]
 800098a:	697b      	ldr	r3, [r7, #20]
 800098c:	f003 0307 	and.w	r3, r3, #7
 8000990:	009b      	lsls	r3, r3, #2
 8000992:	fa02 f303 	lsl.w	r3, r2, r3
 8000996:	693a      	ldr	r2, [r7, #16]
 8000998:	4313      	orrs	r3, r2
 800099a:	613b      	str	r3, [r7, #16]
        GPIOx->AFR[position >> 3U] = temp;
 800099c:	697b      	ldr	r3, [r7, #20]
 800099e:	08da      	lsrs	r2, r3, #3
 80009a0:	687b      	ldr	r3, [r7, #4]
 80009a2:	3208      	adds	r2, #8
 80009a4:	6939      	ldr	r1, [r7, #16]
 80009a6:	f843 1022 	str.w	r1, [r3, r2, lsl #2]
      }

      /* Configure IO Direction mode (Input, Output, Alternate or Analog) */
      temp = GPIOx->MODER;
 80009aa:	687b      	ldr	r3, [r7, #4]
 80009ac:	681b      	ldr	r3, [r3, #0]
 80009ae:	613b      	str	r3, [r7, #16]
      temp &= ~(GPIO_MODER_MODE0 << (position * 2U));
 80009b0:	697b      	ldr	r3, [r7, #20]
 80009b2:	005b      	lsls	r3, r3, #1
 80009b4:	2203      	movs	r2, #3
 80009b6:	fa02 f303 	lsl.w	r3, r2, r3
 80009ba:	43db      	mvns	r3, r3
 80009bc:	693a      	ldr	r2, [r7, #16]
 80009be:	4013      	ands	r3, r2
 80009c0:	613b      	str	r3, [r7, #16]
      temp |= ((GPIO_Init->Mode & GPIO_MODE) << (position * 2U));
 80009c2:	683b      	ldr	r3, [r7, #0]
 80009c4:	685b      	ldr	r3, [r3, #4]
 80009c6:	f003 0203 	and.w	r2, r3, #3
 80009ca:	697b      	ldr	r3, [r7, #20]
 80009cc:	005b      	lsls	r3, r3, #1
 80009ce:	fa02 f303 	lsl.w	r3, r2, r3
 80009d2:	693a      	ldr	r2, [r7, #16]
 80009d4:	4313      	orrs	r3, r2
 80009d6:	613b      	str	r3, [r7, #16]
      GPIOx->MODER = temp;
 80009d8:	687b      	ldr	r3, [r7, #4]
 80009da:	693a      	ldr	r2, [r7, #16]
 80009dc:	601a      	str	r2, [r3, #0]

      /*--------------------- EXTI Mode Configuration ------------------------*/
      /* Configure the External Interrupt or event for the current IO */
      if ((GPIO_Init->Mode & EXTI_MODE) == EXTI_MODE)
 80009de:	683b      	ldr	r3, [r7, #0]
 80009e0:	685b      	ldr	r3, [r3, #4]
 80009e2:	f003 5380 	and.w	r3, r3, #268435456	; 0x10000000
 80009e6:	2b00      	cmp	r3, #0
 80009e8:	f000 80a6 	beq.w	8000b38 <HAL_GPIO_Init+0x2c0>
      {
        /* Enable SYSCFG Clock */
        __HAL_RCC_SYSCFG_CLK_ENABLE();
 80009ec:	4b5b      	ldr	r3, [pc, #364]	; (8000b5c <HAL_GPIO_Init+0x2e4>)
 80009ee:	6e1b      	ldr	r3, [r3, #96]	; 0x60
 80009f0:	4a5a      	ldr	r2, [pc, #360]	; (8000b5c <HAL_GPIO_Init+0x2e4>)
 80009f2:	f043 0301 	orr.w	r3, r3, #1
 80009f6:	6613      	str	r3, [r2, #96]	; 0x60
 80009f8:	4b58      	ldr	r3, [pc, #352]	; (8000b5c <HAL_GPIO_Init+0x2e4>)
 80009fa:	6e1b      	ldr	r3, [r3, #96]	; 0x60
 80009fc:	f003 0301 	and.w	r3, r3, #1
 8000a00:	60bb      	str	r3, [r7, #8]
 8000a02:	68bb      	ldr	r3, [r7, #8]

        temp = SYSCFG->EXTICR[position >> 2U];
 8000a04:	4a56      	ldr	r2, [pc, #344]	; (8000b60 <HAL_GPIO_Init+0x2e8>)
 8000a06:	697b      	ldr	r3, [r7, #20]
 8000a08:	089b      	lsrs	r3, r3, #2
 8000a0a:	3302      	adds	r3, #2
 8000a0c:	f852 3023 	ldr.w	r3, [r2, r3, lsl #2]
 8000a10:	613b      	str	r3, [r7, #16]
        temp &= ~(0x0FUL << (4U * (position & 0x03U)));
 8000a12:	697b      	ldr	r3, [r7, #20]
 8000a14:	f003 0303 	and.w	r3, r3, #3
 8000a18:	009b      	lsls	r3, r3, #2
 8000a1a:	220f      	movs	r2, #15
 8000a1c:	fa02 f303 	lsl.w	r3, r2, r3
 8000a20:	43db      	mvns	r3, r3
 8000a22:	693a      	ldr	r2, [r7, #16]
 8000a24:	4013      	ands	r3, r2
 8000a26:	613b      	str	r3, [r7, #16]
        temp |= (GPIO_GET_INDEX(GPIOx) << (4U * (position & 0x03U)));
 8000a28:	687b      	ldr	r3, [r7, #4]
 8000a2a:	f1b3 4f90 	cmp.w	r3, #1207959552	; 0x48000000
 8000a2e:	d01f      	beq.n	8000a70 <HAL_GPIO_Init+0x1f8>
 8000a30:	687b      	ldr	r3, [r7, #4]
 8000a32:	4a4c      	ldr	r2, [pc, #304]	; (8000b64 <HAL_GPIO_Init+0x2ec>)
 8000a34:	4293      	cmp	r3, r2
 8000a36:	d019      	beq.n	8000a6c <HAL_GPIO_Init+0x1f4>
 8000a38:	687b      	ldr	r3, [r7, #4]
 8000a3a:	4a4b      	ldr	r2, [pc, #300]	; (8000b68 <HAL_GPIO_Init+0x2f0>)
 8000a3c:	4293      	cmp	r3, r2
 8000a3e:	d013      	beq.n	8000a68 <HAL_GPIO_Init+0x1f0>
 8000a40:	687b      	ldr	r3, [r7, #4]
 8000a42:	4a4a      	ldr	r2, [pc, #296]	; (8000b6c <HAL_GPIO_Init+0x2f4>)
 8000a44:	4293      	cmp	r3, r2
 8000a46:	d00d      	beq.n	8000a64 <HAL_GPIO_Init+0x1ec>
 8000a48:	687b      	ldr	r3, [r7, #4]
 8000a4a:	4a49      	ldr	r2, [pc, #292]	; (8000b70 <HAL_GPIO_Init+0x2f8>)
 8000a4c:	4293      	cmp	r3, r2
 8000a4e:	d007      	beq.n	8000a60 <HAL_GPIO_Init+0x1e8>
 8000a50:	687b      	ldr	r3, [r7, #4]
 8000a52:	4a48      	ldr	r2, [pc, #288]	; (8000b74 <HAL_GPIO_Init+0x2fc>)
 8000a54:	4293      	cmp	r3, r2
 8000a56:	d101      	bne.n	8000a5c <HAL_GPIO_Init+0x1e4>
 8000a58:	2305      	movs	r3, #5
 8000a5a:	e00a      	b.n	8000a72 <HAL_GPIO_Init+0x1fa>
 8000a5c:	2306      	movs	r3, #6
 8000a5e:	e008      	b.n	8000a72 <HAL_GPIO_Init+0x1fa>
 8000a60:	2304      	movs	r3, #4
 8000a62:	e006      	b.n	8000a72 <HAL_GPIO_Init+0x1fa>
 8000a64:	2303      	movs	r3, #3
 8000a66:	e004      	b.n	8000a72 <HAL_GPIO_Init+0x1fa>
 8000a68:	2302      	movs	r3, #2
 8000a6a:	e002      	b.n	8000a72 <HAL_GPIO_Init+0x1fa>
 8000a6c:	2301      	movs	r3, #1
 8000a6e:	e000      	b.n	8000a72 <HAL_GPIO_Init+0x1fa>
 8000a70:	2300      	movs	r3, #0
 8000a72:	697a      	ldr	r2, [r7, #20]
 8000a74:	f002 0203 	and.w	r2, r2, #3
 8000a78:	0092      	lsls	r2, r2, #2
 8000a7a:	4093      	lsls	r3, r2
 8000a7c:	693a      	ldr	r2, [r7, #16]
 8000a7e:	4313      	orrs	r3, r2
 8000a80:	613b      	str	r3, [r7, #16]
        SYSCFG->EXTICR[position >> 2U] = temp;
 8000a82:	4937      	ldr	r1, [pc, #220]	; (8000b60 <HAL_GPIO_Init+0x2e8>)
 8000a84:	697b      	ldr	r3, [r7, #20]
 8000a86:	089b      	lsrs	r3, r3, #2
 8000a88:	3302      	adds	r3, #2
 8000a8a:	693a      	ldr	r2, [r7, #16]
 8000a8c:	f841 2023 	str.w	r2, [r1, r3, lsl #2]

        /* Clear EXTI line configuration */
        temp = EXTI->IMR1;
 8000a90:	4b39      	ldr	r3, [pc, #228]	; (8000b78 <HAL_GPIO_Init+0x300>)
 8000a92:	681b      	ldr	r3, [r3, #0]
 8000a94:	613b      	str	r3, [r7, #16]
        temp &= ~(iocurrent);
 8000a96:	68fb      	ldr	r3, [r7, #12]
 8000a98:	43db      	mvns	r3, r3
 8000a9a:	693a      	ldr	r2, [r7, #16]
 8000a9c:	4013      	ands	r3, r2
 8000a9e:	613b      	str	r3, [r7, #16]
        if ((GPIO_Init->Mode & GPIO_MODE_IT) == GPIO_MODE_IT)
 8000aa0:	683b      	ldr	r3, [r7, #0]
 8000aa2:	685b      	ldr	r3, [r3, #4]
 8000aa4:	f403 3380 	and.w	r3, r3, #65536	; 0x10000
 8000aa8:	2b00      	cmp	r3, #0
 8000aaa:	d003      	beq.n	8000ab4 <HAL_GPIO_Init+0x23c>
        {
          temp |= iocurrent;
 8000aac:	693a      	ldr	r2, [r7, #16]
 8000aae:	68fb      	ldr	r3, [r7, #12]
 8000ab0:	4313      	orrs	r3, r2
 8000ab2:	613b      	str	r3, [r7, #16]
        }
        EXTI->IMR1 = temp;
 8000ab4:	4a30      	ldr	r2, [pc, #192]	; (8000b78 <HAL_GPIO_Init+0x300>)
 8000ab6:	693b      	ldr	r3, [r7, #16]
 8000ab8:	6013      	str	r3, [r2, #0]

        temp = EXTI->EMR1;
 8000aba:	4b2f      	ldr	r3, [pc, #188]	; (8000b78 <HAL_GPIO_Init+0x300>)
 8000abc:	685b      	ldr	r3, [r3, #4]
 8000abe:	613b      	str	r3, [r7, #16]
        temp &= ~(iocurrent);
 8000ac0:	68fb      	ldr	r3, [r7, #12]
 8000ac2:	43db      	mvns	r3, r3
 8000ac4:	693a      	ldr	r2, [r7, #16]
 8000ac6:	4013      	ands	r3, r2
 8000ac8:	613b      	str	r3, [r7, #16]
        if ((GPIO_Init->Mode & GPIO_MODE_EVT) == GPIO_MODE_EVT)
 8000aca:	683b      	ldr	r3, [r7, #0]
 8000acc:	685b      	ldr	r3, [r3, #4]
 8000ace:	f403 3300 	and.w	r3, r3, #131072	; 0x20000
 8000ad2:	2b00      	cmp	r3, #0
 8000ad4:	d003      	beq.n	8000ade <HAL_GPIO_Init+0x266>
        {
          temp |= iocurrent;
 8000ad6:	693a      	ldr	r2, [r7, #16]
 8000ad8:	68fb      	ldr	r3, [r7, #12]
 8000ada:	4313      	orrs	r3, r2
 8000adc:	613b      	str	r3, [r7, #16]
        }
        EXTI->EMR1 = temp;
 8000ade:	4a26      	ldr	r2, [pc, #152]	; (8000b78 <HAL_GPIO_Init+0x300>)
 8000ae0:	693b      	ldr	r3, [r7, #16]
 8000ae2:	6053      	str	r3, [r2, #4]

        /* Clear Rising Falling edge configuration */
        temp = EXTI->RTSR1;
 8000ae4:	4b24      	ldr	r3, [pc, #144]	; (8000b78 <HAL_GPIO_Init+0x300>)
 8000ae6:	689b      	ldr	r3, [r3, #8]
 8000ae8:	613b      	str	r3, [r7, #16]
        temp &= ~(iocurrent);
 8000aea:	68fb      	ldr	r3, [r7, #12]
 8000aec:	43db      	mvns	r3, r3
 8000aee:	693a      	ldr	r2, [r7, #16]
 8000af0:	4013      	ands	r3, r2
 8000af2:	613b      	str	r3, [r7, #16]
        if ((GPIO_Init->Mode & RISING_EDGE) == RISING_EDGE)
 8000af4:	683b      	ldr	r3, [r7, #0]
 8000af6:	685b      	ldr	r3, [r3, #4]
 8000af8:	f403 1380 	and.w	r3, r3, #1048576	; 0x100000
 8000afc:	2b00      	cmp	r3, #0
 8000afe:	d003      	beq.n	8000b08 <HAL_GPIO_Init+0x290>
        {
          temp |= iocurrent;
 8000b00:	693a      	ldr	r2, [r7, #16]
 8000b02:	68fb      	ldr	r3, [r7, #12]
 8000b04:	4313      	orrs	r3, r2
 8000b06:	613b      	str	r3, [r7, #16]
        }
        EXTI->RTSR1 = temp;
 8000b08:	4a1b      	ldr	r2, [pc, #108]	; (8000b78 <HAL_GPIO_Init+0x300>)
 8000b0a:	693b      	ldr	r3, [r7, #16]
 8000b0c:	6093      	str	r3, [r2, #8]

        temp = EXTI->FTSR1;
 8000b0e:	4b1a      	ldr	r3, [pc, #104]	; (8000b78 <HAL_GPIO_Init+0x300>)
 8000b10:	68db      	ldr	r3, [r3, #12]
 8000b12:	613b      	str	r3, [r7, #16]
        temp &= ~(iocurrent);
 8000b14:	68fb      	ldr	r3, [r7, #12]
 8000b16:	43db      	mvns	r3, r3
 8000b18:	693a      	ldr	r2, [r7, #16]
 8000b1a:	4013      	ands	r3, r2
 8000b1c:	613b      	str	r3, [r7, #16]
        if ((GPIO_Init->Mode & FALLING_EDGE) == FALLING_EDGE)
 8000b1e:	683b      	ldr	r3, [r7, #0]
 8000b20:	685b      	ldr	r3, [r3, #4]
 8000b22:	f403 1300 	and.w	r3, r3, #2097152	; 0x200000
 8000b26:	2b00      	cmp	r3, #0
 8000b28:	d003      	beq.n	8000b32 <HAL_GPIO_Init+0x2ba>
        {
          temp |= iocurrent;
 8000b2a:	693a      	ldr	r2, [r7, #16]
 8000b2c:	68fb      	ldr	r3, [r7, #12]
 8000b2e:	4313      	orrs	r3, r2
 8000b30:	613b      	str	r3, [r7, #16]
        }
        EXTI->FTSR1 = temp;
 8000b32:	4a11      	ldr	r2, [pc, #68]	; (8000b78 <HAL_GPIO_Init+0x300>)
 8000b34:	693b      	ldr	r3, [r7, #16]
 8000b36:	60d3      	str	r3, [r2, #12]
      }
    }

    position++;
 8000b38:	697b      	ldr	r3, [r7, #20]
 8000b3a:	3301      	adds	r3, #1
 8000b3c:	617b      	str	r3, [r7, #20]
  while (((GPIO_Init->Pin) >> position) != 0U)
 8000b3e:	683b      	ldr	r3, [r7, #0]
 8000b40:	681a      	ldr	r2, [r3, #0]
 8000b42:	697b      	ldr	r3, [r7, #20]
 8000b44:	fa22 f303 	lsr.w	r3, r2, r3
 8000b48:	2b00      	cmp	r3, #0
 8000b4a:	f47f ae9d 	bne.w	8000888 <HAL_GPIO_Init+0x10>
  }
}
 8000b4e:	bf00      	nop
 8000b50:	371c      	adds	r7, #28
 8000b52:	46bd      	mov	sp, r7
 8000b54:	f85d 7b04 	ldr.w	r7, [sp], #4
 8000b58:	4770      	bx	lr
 8000b5a:	bf00      	nop
 8000b5c:	40021000 	.word	0x40021000
 8000b60:	40010000 	.word	0x40010000
 8000b64:	48000400 	.word	0x48000400
 8000b68:	48000800 	.word	0x48000800
 8000b6c:	48000c00 	.word	0x48000c00
 8000b70:	48001000 	.word	0x48001000
 8000b74:	48001400 	.word	0x48001400
 8000b78:	40010400 	.word	0x40010400

08000b7c <HAL_GPIO_WritePin>:
  *            @arg GPIO_PIN_RESET: to clear the port pin
  *            @arg GPIO_PIN_SET: to set the port pin
  * @retval None
  */
void HAL_GPIO_WritePin(GPIO_TypeDef *GPIOx, uint16_t GPIO_Pin, GPIO_PinState PinState)
{
 8000b7c:	b480      	push	{r7}
 8000b7e:	b083      	sub	sp, #12
 8000b80:	af00      	add	r7, sp, #0
 8000b82:	6078      	str	r0, [r7, #4]
 8000b84:	460b      	mov	r3, r1
 8000b86:	807b      	strh	r3, [r7, #2]
 8000b88:	4613      	mov	r3, r2
 8000b8a:	707b      	strb	r3, [r7, #1]
  /* Check the parameters */
  assert_param(IS_GPIO_PIN(GPIO_Pin));
  assert_param(IS_GPIO_PIN_ACTION(PinState));

  if (PinState != GPIO_PIN_RESET)
 8000b8c:	787b      	ldrb	r3, [r7, #1]
 8000b8e:	2b00      	cmp	r3, #0
 8000b90:	d003      	beq.n	8000b9a <HAL_GPIO_WritePin+0x1e>
  {
    GPIOx->BSRR = (uint32_t)GPIO_Pin;
 8000b92:	887a      	ldrh	r2, [r7, #2]
 8000b94:	687b      	ldr	r3, [r7, #4]
 8000b96:	619a      	str	r2, [r3, #24]
  }
  else
  {
    GPIOx->BRR = (uint32_t)GPIO_Pin;
  }
}
 8000b98:	e002      	b.n	8000ba0 <HAL_GPIO_WritePin+0x24>
    GPIOx->BRR = (uint32_t)GPIO_Pin;
 8000b9a:	887a      	ldrh	r2, [r7, #2]
 8000b9c:	687b      	ldr	r3, [r7, #4]
 8000b9e:	629a      	str	r2, [r3, #40]	; 0x28
}
 8000ba0:	bf00      	nop
 8000ba2:	370c      	adds	r7, #12
 8000ba4:	46bd      	mov	sp, r7
 8000ba6:	f85d 7b04 	ldr.w	r7, [sp], #4
 8000baa:	4770      	bx	lr

08000bac <HAL_GPIO_TogglePin>:
  * @param  GPIO_Pin specifies the pin to be toggled.
  *         This parameter can be any combination of GPIO_PIN_x where x can be (0..15).
  * @retval None
  */
void HAL_GPIO_TogglePin(GPIO_TypeDef *GPIOx, uint16_t GPIO_Pin)
{
 8000bac:	b480      	push	{r7}
 8000bae:	b083      	sub	sp, #12
 8000bb0:	af00      	add	r7, sp, #0
 8000bb2:	6078      	str	r0, [r7, #4]
 8000bb4:	460b      	mov	r3, r1
 8000bb6:	807b      	strh	r3, [r7, #2]
  /* Check the parameters */
  assert_param(IS_GPIO_PIN(GPIO_Pin));

  if ((GPIOx->ODR & GPIO_Pin) != 0x00u)
 8000bb8:	687b      	ldr	r3, [r7, #4]
 8000bba:	695a      	ldr	r2, [r3, #20]
 8000bbc:	887b      	ldrh	r3, [r7, #2]
 8000bbe:	4013      	ands	r3, r2
 8000bc0:	2b00      	cmp	r3, #0
 8000bc2:	d003      	beq.n	8000bcc <HAL_GPIO_TogglePin+0x20>
  {
    GPIOx->BRR = (uint32_t)GPIO_Pin;
 8000bc4:	887a      	ldrh	r2, [r7, #2]
 8000bc6:	687b      	ldr	r3, [r7, #4]
 8000bc8:	629a      	str	r2, [r3, #40]	; 0x28
  }
  else
  {
    GPIOx->BSRR = (uint32_t)GPIO_Pin;
  }
}
 8000bca:	e002      	b.n	8000bd2 <HAL_GPIO_TogglePin+0x26>
    GPIOx->BSRR = (uint32_t)GPIO_Pin;
 8000bcc:	887a      	ldrh	r2, [r7, #2]
 8000bce:	687b      	ldr	r3, [r7, #4]
 8000bd0:	619a      	str	r2, [r3, #24]
}
 8000bd2:	bf00      	nop
 8000bd4:	370c      	adds	r7, #12
 8000bd6:	46bd      	mov	sp, r7
 8000bd8:	f85d 7b04 	ldr.w	r7, [sp], #4
 8000bdc:	4770      	bx	lr

08000bde <HAL_PCD_Init>:
  *         parameters in the PCD_InitTypeDef and initialize the associated handle.
  * @param  hpcd PCD handle
  * @retval HAL status
  */
HAL_StatusTypeDef HAL_PCD_Init(PCD_HandleTypeDef *hpcd)
{
 8000bde:	b5f0      	push	{r4, r5, r6, r7, lr}
 8000be0:	b08b      	sub	sp, #44	; 0x2c
 8000be2:	af06      	add	r7, sp, #24
 8000be4:	6078      	str	r0, [r7, #4]
  uint8_t i;

  /* Check the PCD handle allocation */
  if (hpcd == NULL)
 8000be6:	687b      	ldr	r3, [r7, #4]
 8000be8:	2b00      	cmp	r3, #0
 8000bea:	d101      	bne.n	8000bf0 <HAL_PCD_Init+0x12>
  {
    return HAL_ERROR;
 8000bec:	2301      	movs	r3, #1
 8000bee:	e0ad      	b.n	8000d4c <HAL_PCD_Init+0x16e>
  }

  /* Check the parameters */
  assert_param(IS_PCD_ALL_INSTANCE(hpcd->Instance));

  if (hpcd->State == HAL_PCD_STATE_RESET)
 8000bf0:	687b      	ldr	r3, [r7, #4]
 8000bf2:	f893 3229 	ldrb.w	r3, [r3, #553]	; 0x229
 8000bf6:	b2db      	uxtb	r3, r3
 8000bf8:	2b00      	cmp	r3, #0
 8000bfa:	d106      	bne.n	8000c0a <HAL_PCD_Init+0x2c>
  {
    /* Allocate lock resource and initialize it */
    hpcd->Lock = HAL_UNLOCKED;
 8000bfc:	687b      	ldr	r3, [r7, #4]
 8000bfe:	2200      	movs	r2, #0
 8000c00:	f883 2228 	strb.w	r2, [r3, #552]	; 0x228

    /* Init the low level hardware */
    hpcd->MspInitCallback(hpcd);
#else
    /* Init the low level hardware : GPIO, CLOCK, NVIC... */
    HAL_PCD_MspInit(hpcd);
 8000c04:	6878      	ldr	r0, [r7, #4]
 8000c06:	f004 febf 	bl	8005988 <HAL_PCD_MspInit>
#endif /* (USE_HAL_PCD_REGISTER_CALLBACKS) */
  }

  hpcd->State = HAL_PCD_STATE_BUSY;
 8000c0a:	687b      	ldr	r3, [r7, #4]
 8000c0c:	2203      	movs	r2, #3
 8000c0e:	f883 2229 	strb.w	r2, [r3, #553]	; 0x229

  /* Disable the Interrupts */
  __HAL_PCD_DISABLE(hpcd);
 8000c12:	687b      	ldr	r3, [r7, #4]
 8000c14:	681b      	ldr	r3, [r3, #0]
 8000c16:	4618      	mov	r0, r3
 8000c18:	f001 fea1 	bl	800295e <USB_DisableGlobalInt>

  /* Init endpoints structures */
  for (i = 0U; i < hpcd->Init.dev_endpoints; i++)
 8000c1c:	2300      	movs	r3, #0
 8000c1e:	73fb      	strb	r3, [r7, #15]
 8000c20:	e035      	b.n	8000c8e <HAL_PCD_Init+0xb0>
  {
    /* Init ep structure */
    hpcd->IN_ep[i].is_in = 1U;
 8000c22:	7bfb      	ldrb	r3, [r7, #15]
 8000c24:	687a      	ldr	r2, [r7, #4]
 8000c26:	015b      	lsls	r3, r3, #5
 8000c28:	4413      	add	r3, r2
 8000c2a:	3329      	adds	r3, #41	; 0x29
 8000c2c:	2201      	movs	r2, #1
 8000c2e:	701a      	strb	r2, [r3, #0]
    hpcd->IN_ep[i].num = i;
 8000c30:	7bfb      	ldrb	r3, [r7, #15]
 8000c32:	687a      	ldr	r2, [r7, #4]
 8000c34:	015b      	lsls	r3, r3, #5
 8000c36:	4413      	add	r3, r2
 8000c38:	3328      	adds	r3, #40	; 0x28
 8000c3a:	7bfa      	ldrb	r2, [r7, #15]
 8000c3c:	701a      	strb	r2, [r3, #0]
    hpcd->IN_ep[i].tx_fifo_num = i;
 8000c3e:	7bfb      	ldrb	r3, [r7, #15]
 8000c40:	7bfa      	ldrb	r2, [r7, #15]
 8000c42:	b291      	uxth	r1, r2
 8000c44:	687a      	ldr	r2, [r7, #4]
 8000c46:	015b      	lsls	r3, r3, #5
 8000c48:	4413      	add	r3, r2
 8000c4a:	3336      	adds	r3, #54	; 0x36
 8000c4c:	460a      	mov	r2, r1
 8000c4e:	801a      	strh	r2, [r3, #0]
    /* Control until ep is activated */
    hpcd->IN_ep[i].type = EP_TYPE_CTRL;
 8000c50:	7bfb      	ldrb	r3, [r7, #15]
 8000c52:	687a      	ldr	r2, [r7, #4]
 8000c54:	015b      	lsls	r3, r3, #5
 8000c56:	4413      	add	r3, r2
 8000c58:	332b      	adds	r3, #43	; 0x2b
 8000c5a:	2200      	movs	r2, #0
 8000c5c:	701a      	strb	r2, [r3, #0]
    hpcd->IN_ep[i].maxpacket = 0U;
 8000c5e:	7bfb      	ldrb	r3, [r7, #15]
 8000c60:	687a      	ldr	r2, [r7, #4]
 8000c62:	015b      	lsls	r3, r3, #5
 8000c64:	4413      	add	r3, r2
 8000c66:	3338      	adds	r3, #56	; 0x38
 8000c68:	2200      	movs	r2, #0
 8000c6a:	601a      	str	r2, [r3, #0]
    hpcd->IN_ep[i].xfer_buff = 0U;
 8000c6c:	7bfb      	ldrb	r3, [r7, #15]
 8000c6e:	687a      	ldr	r2, [r7, #4]
 8000c70:	015b      	lsls	r3, r3, #5
 8000c72:	4413      	add	r3, r2
 8000c74:	333c      	adds	r3, #60	; 0x3c
 8000c76:	2200      	movs	r2, #0
 8000c78:	601a      	str	r2, [r3, #0]
    hpcd->IN_ep[i].xfer_len = 0U;
 8000c7a:	7bfb      	ldrb	r3, [r7, #15]
 8000c7c:	687a      	ldr	r2, [r7, #4]
 8000c7e:	3302      	adds	r3, #2
 8000c80:	015b      	lsls	r3, r3, #5
 8000c82:	4413      	add	r3, r2
 8000c84:	2200      	movs	r2, #0
 8000c86:	601a      	str	r2, [r3, #0]
  for (i = 0U; i < hpcd->Init.dev_endpoints; i++)
 8000c88:	7bfb      	ldrb	r3, [r7, #15]
 8000c8a:	3301      	adds	r3, #1
 8000c8c:	73fb      	strb	r3, [r7, #15]
 8000c8e:	7bfa      	ldrb	r2, [r7, #15]
 8000c90:	687b      	ldr	r3, [r7, #4]
 8000c92:	685b      	ldr	r3, [r3, #4]
 8000c94:	429a      	cmp	r2, r3
 8000c96:	d3c4      	bcc.n	8000c22 <HAL_PCD_Init+0x44>
  }

  for (i = 0U; i < hpcd->Init.dev_endpoints; i++)
 8000c98:	2300      	movs	r3, #0
 8000c9a:	73fb      	strb	r3, [r7, #15]
 8000c9c:	e031      	b.n	8000d02 <HAL_PCD_Init+0x124>
  {
    hpcd->OUT_ep[i].is_in = 0U;
 8000c9e:	7bfb      	ldrb	r3, [r7, #15]
 8000ca0:	687a      	ldr	r2, [r7, #4]
 8000ca2:	015b      	lsls	r3, r3, #5
 8000ca4:	4413      	add	r3, r2
 8000ca6:	f203 1329 	addw	r3, r3, #297	; 0x129
 8000caa:	2200      	movs	r2, #0
 8000cac:	701a      	strb	r2, [r3, #0]
    hpcd->OUT_ep[i].num = i;
 8000cae:	7bfb      	ldrb	r3, [r7, #15]
 8000cb0:	687a      	ldr	r2, [r7, #4]
 8000cb2:	015b      	lsls	r3, r3, #5
 8000cb4:	4413      	add	r3, r2
 8000cb6:	f503 7394 	add.w	r3, r3, #296	; 0x128
 8000cba:	7bfa      	ldrb	r2, [r7, #15]
 8000cbc:	701a      	strb	r2, [r3, #0]
    /* Control until ep is activated */
    hpcd->OUT_ep[i].type = EP_TYPE_CTRL;
 8000cbe:	7bfb      	ldrb	r3, [r7, #15]
 8000cc0:	687a      	ldr	r2, [r7, #4]
 8000cc2:	015b      	lsls	r3, r3, #5
 8000cc4:	4413      	add	r3, r2
 8000cc6:	f203 132b 	addw	r3, r3, #299	; 0x12b
 8000cca:	2200      	movs	r2, #0
 8000ccc:	701a      	strb	r2, [r3, #0]
    hpcd->OUT_ep[i].maxpacket = 0U;
 8000cce:	7bfb      	ldrb	r3, [r7, #15]
 8000cd0:	687a      	ldr	r2, [r7, #4]
 8000cd2:	015b      	lsls	r3, r3, #5
 8000cd4:	4413      	add	r3, r2
 8000cd6:	f503 739c 	add.w	r3, r3, #312	; 0x138
 8000cda:	2200      	movs	r2, #0
 8000cdc:	601a      	str	r2, [r3, #0]
    hpcd->OUT_ep[i].xfer_buff = 0U;
 8000cde:	7bfb      	ldrb	r3, [r7, #15]
 8000ce0:	687a      	ldr	r2, [r7, #4]
 8000ce2:	015b      	lsls	r3, r3, #5
 8000ce4:	4413      	add	r3, r2
 8000ce6:	f503 739e 	add.w	r3, r3, #316	; 0x13c
 8000cea:	2200      	movs	r2, #0
 8000cec:	601a      	str	r2, [r3, #0]
    hpcd->OUT_ep[i].xfer_len = 0U;
 8000cee:	7bfb      	ldrb	r3, [r7, #15]
 8000cf0:	687a      	ldr	r2, [r7, #4]
 8000cf2:	330a      	adds	r3, #10
 8000cf4:	015b      	lsls	r3, r3, #5
 8000cf6:	4413      	add	r3, r2
 8000cf8:	2200      	movs	r2, #0
 8000cfa:	601a      	str	r2, [r3, #0]
  for (i = 0U; i < hpcd->Init.dev_endpoints; i++)
 8000cfc:	7bfb      	ldrb	r3, [r7, #15]
 8000cfe:	3301      	adds	r3, #1
 8000d00:	73fb      	strb	r3, [r7, #15]
 8000d02:	7bfa      	ldrb	r2, [r7, #15]
 8000d04:	687b      	ldr	r3, [r7, #4]
 8000d06:	685b      	ldr	r3, [r3, #4]
 8000d08:	429a      	cmp	r2, r3
 8000d0a:	d3c8      	bcc.n	8000c9e <HAL_PCD_Init+0xc0>
  }

  /* Init Device */
  (void)USB_DevInit(hpcd->Instance, hpcd->Init);
 8000d0c:	687b      	ldr	r3, [r7, #4]
 8000d0e:	681b      	ldr	r3, [r3, #0]
 8000d10:	603b      	str	r3, [r7, #0]
 8000d12:	687e      	ldr	r6, [r7, #4]
 8000d14:	466d      	mov	r5, sp
 8000d16:	f106 0410 	add.w	r4, r6, #16
 8000d1a:	cc0f      	ldmia	r4!, {r0, r1, r2, r3}
 8000d1c:	c50f      	stmia	r5!, {r0, r1, r2, r3}
 8000d1e:	6823      	ldr	r3, [r4, #0]
 8000d20:	602b      	str	r3, [r5, #0]
 8000d22:	1d33      	adds	r3, r6, #4
 8000d24:	cb0e      	ldmia	r3, {r1, r2, r3}
 8000d26:	6838      	ldr	r0, [r7, #0]
 8000d28:	f001 fe34 	bl	8002994 <USB_DevInit>

  hpcd->USB_Address = 0U;
 8000d2c:	687b      	ldr	r3, [r7, #4]
 8000d2e:	2200      	movs	r2, #0
 8000d30:	f883 2024 	strb.w	r2, [r3, #36]	; 0x24
  hpcd->State = HAL_PCD_STATE_READY;
 8000d34:	687b      	ldr	r3, [r7, #4]
 8000d36:	2201      	movs	r2, #1
 8000d38:	f883 2229 	strb.w	r2, [r3, #553]	; 0x229
  
  /* Activate LPM */
  if (hpcd->Init.lpm_enable == 1U)
 8000d3c:	687b      	ldr	r3, [r7, #4]
 8000d3e:	69db      	ldr	r3, [r3, #28]
 8000d40:	2b01      	cmp	r3, #1
 8000d42:	d102      	bne.n	8000d4a <HAL_PCD_Init+0x16c>
  {
    (void)HAL_PCDEx_ActivateLPM(hpcd);
 8000d44:	6878      	ldr	r0, [r7, #4]
 8000d46:	f000 fe36 	bl	80019b6 <HAL_PCDEx_ActivateLPM>
  }
  
  return HAL_OK;
 8000d4a:	2300      	movs	r3, #0
}
 8000d4c:	4618      	mov	r0, r3
 8000d4e:	3714      	adds	r7, #20
 8000d50:	46bd      	mov	sp, r7
 8000d52:	bdf0      	pop	{r4, r5, r6, r7, pc}

08000d54 <HAL_PCD_Start>:
  * @brief  Start the USB device
  * @param  hpcd PCD handle
  * @retval HAL status
  */
HAL_StatusTypeDef HAL_PCD_Start(PCD_HandleTypeDef *hpcd)
{
 8000d54:	b580      	push	{r7, lr}
 8000d56:	b082      	sub	sp, #8
 8000d58:	af00      	add	r7, sp, #0
 8000d5a:	6078      	str	r0, [r7, #4]
  __HAL_LOCK(hpcd);
 8000d5c:	687b      	ldr	r3, [r7, #4]
 8000d5e:	f893 3228 	ldrb.w	r3, [r3, #552]	; 0x228
 8000d62:	2b01      	cmp	r3, #1
 8000d64:	d101      	bne.n	8000d6a <HAL_PCD_Start+0x16>
 8000d66:	2302      	movs	r3, #2
 8000d68:	e012      	b.n	8000d90 <HAL_PCD_Start+0x3c>
 8000d6a:	687b      	ldr	r3, [r7, #4]
 8000d6c:	2201      	movs	r2, #1
 8000d6e:	f883 2228 	strb.w	r2, [r3, #552]	; 0x228
  (void)USB_DevConnect(hpcd->Instance);
 8000d72:	687b      	ldr	r3, [r7, #4]
 8000d74:	681b      	ldr	r3, [r3, #0]
 8000d76:	4618      	mov	r0, r3
 8000d78:	f002 fe58 	bl	8003a2c <USB_DevConnect>
  __HAL_PCD_ENABLE(hpcd);
 8000d7c:	687b      	ldr	r3, [r7, #4]
 8000d7e:	681b      	ldr	r3, [r3, #0]
 8000d80:	4618      	mov	r0, r3
 8000d82:	f001 fdd3 	bl	800292c <USB_EnableGlobalInt>
  __HAL_UNLOCK(hpcd);
 8000d86:	687b      	ldr	r3, [r7, #4]
 8000d88:	2200      	movs	r2, #0
 8000d8a:	f883 2228 	strb.w	r2, [r3, #552]	; 0x228
  return HAL_OK;
 8000d8e:	2300      	movs	r3, #0
}
 8000d90:	4618      	mov	r0, r3
 8000d92:	3708      	adds	r7, #8
 8000d94:	46bd      	mov	sp, r7
 8000d96:	bd80      	pop	{r7, pc}

08000d98 <HAL_PCD_IRQHandler>:
  * @brief  This function handles PCD interrupt request.
  * @param  hpcd PCD handle
  * @retval HAL status
  */
void HAL_PCD_IRQHandler(PCD_HandleTypeDef *hpcd)
{
 8000d98:	b580      	push	{r7, lr}
 8000d9a:	b082      	sub	sp, #8
 8000d9c:	af00      	add	r7, sp, #0
 8000d9e:	6078      	str	r0, [r7, #4]
  if (__HAL_PCD_GET_FLAG(hpcd, USB_ISTR_CTR))
 8000da0:	687b      	ldr	r3, [r7, #4]
 8000da2:	681b      	ldr	r3, [r3, #0]
 8000da4:	4618      	mov	r0, r3
 8000da6:	f002 fe58 	bl	8003a5a <USB_ReadInterrupts>
 8000daa:	4603      	mov	r3, r0
 8000dac:	f403 4300 	and.w	r3, r3, #32768	; 0x8000
 8000db0:	f5b3 4f00 	cmp.w	r3, #32768	; 0x8000
 8000db4:	d102      	bne.n	8000dbc <HAL_PCD_IRQHandler+0x24>
  {
    /* servicing of the endpoint correct transfer interrupt */
    /* clear of the CTR flag into the sub */
    (void)PCD_EP_ISR_Handler(hpcd);
 8000db6:	6878      	ldr	r0, [r7, #4]
 8000db8:	f000 fb34 	bl	8001424 <PCD_EP_ISR_Handler>
  }

  if (__HAL_PCD_GET_FLAG(hpcd, USB_ISTR_RESET))
 8000dbc:	687b      	ldr	r3, [r7, #4]
 8000dbe:	681b      	ldr	r3, [r3, #0]
 8000dc0:	4618      	mov	r0, r3
 8000dc2:	f002 fe4a 	bl	8003a5a <USB_ReadInterrupts>
 8000dc6:	4603      	mov	r3, r0
 8000dc8:	f403 6380 	and.w	r3, r3, #1024	; 0x400
 8000dcc:	f5b3 6f80 	cmp.w	r3, #1024	; 0x400
 8000dd0:	d112      	bne.n	8000df8 <HAL_PCD_IRQHandler+0x60>
  {
    __HAL_PCD_CLEAR_FLAG(hpcd, USB_ISTR_RESET);
 8000dd2:	687b      	ldr	r3, [r7, #4]
 8000dd4:	681b      	ldr	r3, [r3, #0]
 8000dd6:	f8b3 3044 	ldrh.w	r3, [r3, #68]	; 0x44
 8000dda:	b29a      	uxth	r2, r3
 8000ddc:	687b      	ldr	r3, [r7, #4]
 8000dde:	681b      	ldr	r3, [r3, #0]
 8000de0:	f422 6280 	bic.w	r2, r2, #1024	; 0x400
 8000de4:	b292      	uxth	r2, r2
 8000de6:	f8a3 2044 	strh.w	r2, [r3, #68]	; 0x44

#if (USE_HAL_PCD_REGISTER_CALLBACKS == 1U)
    hpcd->ResetCallback(hpcd);
#else
    HAL_PCD_ResetCallback(hpcd);
 8000dea:	6878      	ldr	r0, [r7, #4]
 8000dec:	f004 fe63 	bl	8005ab6 <HAL_PCD_ResetCallback>
#endif /* USE_HAL_PCD_REGISTER_CALLBACKS */

    (void)HAL_PCD_SetAddress(hpcd, 0U);
 8000df0:	2100      	movs	r1, #0
 8000df2:	6878      	ldr	r0, [r7, #4]
 8000df4:	f000 f91e 	bl	8001034 <HAL_PCD_SetAddress>
  }

  if (__HAL_PCD_GET_FLAG(hpcd, USB_ISTR_PMAOVR))
 8000df8:	687b      	ldr	r3, [r7, #4]
 8000dfa:	681b      	ldr	r3, [r3, #0]
 8000dfc:	4618      	mov	r0, r3
 8000dfe:	f002 fe2c 	bl	8003a5a <USB_ReadInterrupts>
 8000e02:	4603      	mov	r3, r0
 8000e04:	f403 4380 	and.w	r3, r3, #16384	; 0x4000
 8000e08:	f5b3 4f80 	cmp.w	r3, #16384	; 0x4000
 8000e0c:	d10b      	bne.n	8000e26 <HAL_PCD_IRQHandler+0x8e>
  {
    __HAL_PCD_CLEAR_FLAG(hpcd, USB_ISTR_PMAOVR);
 8000e0e:	687b      	ldr	r3, [r7, #4]
 8000e10:	681b      	ldr	r3, [r3, #0]
 8000e12:	f8b3 3044 	ldrh.w	r3, [r3, #68]	; 0x44
 8000e16:	b29a      	uxth	r2, r3
 8000e18:	687b      	ldr	r3, [r7, #4]
 8000e1a:	681b      	ldr	r3, [r3, #0]
 8000e1c:	f422 4280 	bic.w	r2, r2, #16384	; 0x4000
 8000e20:	b292      	uxth	r2, r2
 8000e22:	f8a3 2044 	strh.w	r2, [r3, #68]	; 0x44
  }

  if (__HAL_PCD_GET_FLAG(hpcd, USB_ISTR_ERR))
 8000e26:	687b      	ldr	r3, [r7, #4]
 8000e28:	681b      	ldr	r3, [r3, #0]
 8000e2a:	4618      	mov	r0, r3
 8000e2c:	f002 fe15 	bl	8003a5a <USB_ReadInterrupts>
 8000e30:	4603      	mov	r3, r0
 8000e32:	f403 5300 	and.w	r3, r3, #8192	; 0x2000
 8000e36:	f5b3 5f00 	cmp.w	r3, #8192	; 0x2000
 8000e3a:	d10b      	bne.n	8000e54 <HAL_PCD_IRQHandler+0xbc>
  {
    __HAL_PCD_CLEAR_FLAG(hpcd, USB_ISTR_ERR);
 8000e3c:	687b      	ldr	r3, [r7, #4]
 8000e3e:	681b      	ldr	r3, [r3, #0]
 8000e40:	f8b3 3044 	ldrh.w	r3, [r3, #68]	; 0x44
 8000e44:	b29a      	uxth	r2, r3
 8000e46:	687b      	ldr	r3, [r7, #4]
 8000e48:	681b      	ldr	r3, [r3, #0]
 8000e4a:	f422 5200 	bic.w	r2, r2, #8192	; 0x2000
 8000e4e:	b292      	uxth	r2, r2
 8000e50:	f8a3 2044 	strh.w	r2, [r3, #68]	; 0x44
  }

  if (__HAL_PCD_GET_FLAG(hpcd, USB_ISTR_WKUP))
 8000e54:	687b      	ldr	r3, [r7, #4]
 8000e56:	681b      	ldr	r3, [r3, #0]
 8000e58:	4618      	mov	r0, r3
 8000e5a:	f002 fdfe 	bl	8003a5a <USB_ReadInterrupts>
 8000e5e:	4603      	mov	r3, r0
 8000e60:	f403 5380 	and.w	r3, r3, #4096	; 0x1000
 8000e64:	f5b3 5f80 	cmp.w	r3, #4096	; 0x1000
 8000e68:	d133      	bne.n	8000ed2 <HAL_PCD_IRQHandler+0x13a>
  {
    hpcd->Instance->CNTR &= (uint16_t) ~(USB_CNTR_LPMODE);
 8000e6a:	687b      	ldr	r3, [r7, #4]
 8000e6c:	681b      	ldr	r3, [r3, #0]
 8000e6e:	f8b3 3040 	ldrh.w	r3, [r3, #64]	; 0x40
 8000e72:	b29a      	uxth	r2, r3
 8000e74:	687b      	ldr	r3, [r7, #4]
 8000e76:	681b      	ldr	r3, [r3, #0]
 8000e78:	f022 0204 	bic.w	r2, r2, #4
 8000e7c:	b292      	uxth	r2, r2
 8000e7e:	f8a3 2040 	strh.w	r2, [r3, #64]	; 0x40
    hpcd->Instance->CNTR &= (uint16_t) ~(USB_CNTR_FSUSP);
 8000e82:	687b      	ldr	r3, [r7, #4]
 8000e84:	681b      	ldr	r3, [r3, #0]
 8000e86:	f8b3 3040 	ldrh.w	r3, [r3, #64]	; 0x40
 8000e8a:	b29a      	uxth	r2, r3
 8000e8c:	687b      	ldr	r3, [r7, #4]
 8000e8e:	681b      	ldr	r3, [r3, #0]
 8000e90:	f022 0208 	bic.w	r2, r2, #8
 8000e94:	b292      	uxth	r2, r2
 8000e96:	f8a3 2040 	strh.w	r2, [r3, #64]	; 0x40

    if (hpcd->LPM_State == LPM_L1)
 8000e9a:	687b      	ldr	r3, [r7, #4]
 8000e9c:	f893 3260 	ldrb.w	r3, [r3, #608]	; 0x260
 8000ea0:	2b01      	cmp	r3, #1
 8000ea2:	d107      	bne.n	8000eb4 <HAL_PCD_IRQHandler+0x11c>
    {
      hpcd->LPM_State = LPM_L0;
 8000ea4:	687b      	ldr	r3, [r7, #4]
 8000ea6:	2200      	movs	r2, #0
 8000ea8:	f883 2260 	strb.w	r2, [r3, #608]	; 0x260
#if (USE_HAL_PCD_REGISTER_CALLBACKS == 1U)
      hpcd->LPMCallback(hpcd, PCD_LPM_L0_ACTIVE);
#else
      HAL_PCDEx_LPM_Callback(hpcd, PCD_LPM_L0_ACTIVE);
 8000eac:	2100      	movs	r1, #0
 8000eae:	6878      	ldr	r0, [r7, #4]
 8000eb0:	f004 fff2 	bl	8005e98 <HAL_PCDEx_LPM_Callback>
    }

#if (USE_HAL_PCD_REGISTER_CALLBACKS == 1U)
    hpcd->ResumeCallback(hpcd);
#else
    HAL_PCD_ResumeCallback(hpcd);
 8000eb4:	6878      	ldr	r0, [r7, #4]
 8000eb6:	f004 fe37 	bl	8005b28 <HAL_PCD_ResumeCallback>
#endif /* USE_HAL_PCD_REGISTER_CALLBACKS */

    __HAL_PCD_CLEAR_FLAG(hpcd, USB_ISTR_WKUP);
 8000eba:	687b      	ldr	r3, [r7, #4]
 8000ebc:	681b      	ldr	r3, [r3, #0]
 8000ebe:	f8b3 3044 	ldrh.w	r3, [r3, #68]	; 0x44
 8000ec2:	b29a      	uxth	r2, r3
 8000ec4:	687b      	ldr	r3, [r7, #4]
 8000ec6:	681b      	ldr	r3, [r3, #0]
 8000ec8:	f422 5280 	bic.w	r2, r2, #4096	; 0x1000
 8000ecc:	b292      	uxth	r2, r2
 8000ece:	f8a3 2044 	strh.w	r2, [r3, #68]	; 0x44
  }

  if (__HAL_PCD_GET_FLAG(hpcd, USB_ISTR_SUSP))
 8000ed2:	687b      	ldr	r3, [r7, #4]
 8000ed4:	681b      	ldr	r3, [r3, #0]
 8000ed6:	4618      	mov	r0, r3
 8000ed8:	f002 fdbf 	bl	8003a5a <USB_ReadInterrupts>
 8000edc:	4603      	mov	r3, r0
 8000ede:	f403 6300 	and.w	r3, r3, #2048	; 0x800
 8000ee2:	f5b3 6f00 	cmp.w	r3, #2048	; 0x800
 8000ee6:	d126      	bne.n	8000f36 <HAL_PCD_IRQHandler+0x19e>
  {
    /* Force low-power mode in the macrocell */
    hpcd->Instance->CNTR |= (uint16_t)USB_CNTR_FSUSP;
 8000ee8:	687b      	ldr	r3, [r7, #4]
 8000eea:	681b      	ldr	r3, [r3, #0]
 8000eec:	f8b3 3040 	ldrh.w	r3, [r3, #64]	; 0x40
 8000ef0:	b29a      	uxth	r2, r3
 8000ef2:	687b      	ldr	r3, [r7, #4]
 8000ef4:	681b      	ldr	r3, [r3, #0]
 8000ef6:	f042 0208 	orr.w	r2, r2, #8
 8000efa:	b292      	uxth	r2, r2
 8000efc:	f8a3 2040 	strh.w	r2, [r3, #64]	; 0x40

    /* clear of the ISTR bit must be done after setting of CNTR_FSUSP */
    __HAL_PCD_CLEAR_FLAG(hpcd, USB_ISTR_SUSP);
 8000f00:	687b      	ldr	r3, [r7, #4]
 8000f02:	681b      	ldr	r3, [r3, #0]
 8000f04:	f8b3 3044 	ldrh.w	r3, [r3, #68]	; 0x44
 8000f08:	b29a      	uxth	r2, r3
 8000f0a:	687b      	ldr	r3, [r7, #4]
 8000f0c:	681b      	ldr	r3, [r3, #0]
 8000f0e:	f422 6200 	bic.w	r2, r2, #2048	; 0x800
 8000f12:	b292      	uxth	r2, r2
 8000f14:	f8a3 2044 	strh.w	r2, [r3, #68]	; 0x44

    hpcd->Instance->CNTR |= (uint16_t)USB_CNTR_LPMODE;
 8000f18:	687b      	ldr	r3, [r7, #4]
 8000f1a:	681b      	ldr	r3, [r3, #0]
 8000f1c:	f8b3 3040 	ldrh.w	r3, [r3, #64]	; 0x40
 8000f20:	b29a      	uxth	r2, r3
 8000f22:	687b      	ldr	r3, [r7, #4]
 8000f24:	681b      	ldr	r3, [r3, #0]
 8000f26:	f042 0204 	orr.w	r2, r2, #4
 8000f2a:	b292      	uxth	r2, r2
 8000f2c:	f8a3 2040 	strh.w	r2, [r3, #64]	; 0x40

#if (USE_HAL_PCD_REGISTER_CALLBACKS == 1U)
    hpcd->SuspendCallback(hpcd);
#else
    HAL_PCD_SuspendCallback(hpcd);
 8000f30:	6878      	ldr	r0, [r7, #4]
 8000f32:	f004 fddf 	bl	8005af4 <HAL_PCD_SuspendCallback>
#endif /* USE_HAL_PCD_REGISTER_CALLBACKS */
  }

  /* Handle LPM Interrupt */
  if (__HAL_PCD_GET_FLAG(hpcd, USB_ISTR_L1REQ))
 8000f36:	687b      	ldr	r3, [r7, #4]
 8000f38:	681b      	ldr	r3, [r3, #0]
 8000f3a:	4618      	mov	r0, r3
 8000f3c:	f002 fd8d 	bl	8003a5a <USB_ReadInterrupts>
 8000f40:	4603      	mov	r3, r0
 8000f42:	f003 0380 	and.w	r3, r3, #128	; 0x80
 8000f46:	2b80      	cmp	r3, #128	; 0x80
 8000f48:	d13f      	bne.n	8000fca <HAL_PCD_IRQHandler+0x232>
  {
    __HAL_PCD_CLEAR_FLAG(hpcd, USB_ISTR_L1REQ);
 8000f4a:	687b      	ldr	r3, [r7, #4]
 8000f4c:	681b      	ldr	r3, [r3, #0]
 8000f4e:	f8b3 3044 	ldrh.w	r3, [r3, #68]	; 0x44
 8000f52:	b29a      	uxth	r2, r3
 8000f54:	687b      	ldr	r3, [r7, #4]
 8000f56:	681b      	ldr	r3, [r3, #0]
 8000f58:	f022 0280 	bic.w	r2, r2, #128	; 0x80
 8000f5c:	b292      	uxth	r2, r2
 8000f5e:	f8a3 2044 	strh.w	r2, [r3, #68]	; 0x44
    if (hpcd->LPM_State == LPM_L0)
 8000f62:	687b      	ldr	r3, [r7, #4]
 8000f64:	f893 3260 	ldrb.w	r3, [r3, #608]	; 0x260
 8000f68:	2b00      	cmp	r3, #0
 8000f6a:	d12b      	bne.n	8000fc4 <HAL_PCD_IRQHandler+0x22c>
    {
      /* Force suspend and low-power mode before going to L1 state*/
      hpcd->Instance->CNTR |= (uint16_t)USB_CNTR_LPMODE;
 8000f6c:	687b      	ldr	r3, [r7, #4]
 8000f6e:	681b      	ldr	r3, [r3, #0]
 8000f70:	f8b3 3040 	ldrh.w	r3, [r3, #64]	; 0x40
 8000f74:	b29a      	uxth	r2, r3
 8000f76:	687b      	ldr	r3, [r7, #4]
 8000f78:	681b      	ldr	r3, [r3, #0]
 8000f7a:	f042 0204 	orr.w	r2, r2, #4
 8000f7e:	b292      	uxth	r2, r2
 8000f80:	f8a3 2040 	strh.w	r2, [r3, #64]	; 0x40
      hpcd->Instance->CNTR |= (uint16_t)USB_CNTR_FSUSP;
 8000f84:	687b      	ldr	r3, [r7, #4]
 8000f86:	681b      	ldr	r3, [r3, #0]
 8000f88:	f8b3 3040 	ldrh.w	r3, [r3, #64]	; 0x40
 8000f8c:	b29a      	uxth	r2, r3
 8000f8e:	687b      	ldr	r3, [r7, #4]
 8000f90:	681b      	ldr	r3, [r3, #0]
 8000f92:	f042 0208 	orr.w	r2, r2, #8
 8000f96:	b292      	uxth	r2, r2
 8000f98:	f8a3 2040 	strh.w	r2, [r3, #64]	; 0x40

      hpcd->LPM_State = LPM_L1;
 8000f9c:	687b      	ldr	r3, [r7, #4]
 8000f9e:	2201      	movs	r2, #1
 8000fa0:	f883 2260 	strb.w	r2, [r3, #608]	; 0x260
      hpcd->BESL = ((uint32_t)hpcd->Instance->LPMCSR & USB_LPMCSR_BESL) >> 2;
 8000fa4:	687b      	ldr	r3, [r7, #4]
 8000fa6:	681b      	ldr	r3, [r3, #0]
 8000fa8:	f8b3 3054 	ldrh.w	r3, [r3, #84]	; 0x54
 8000fac:	b29b      	uxth	r3, r3
 8000fae:	089b      	lsrs	r3, r3, #2
 8000fb0:	f003 023c 	and.w	r2, r3, #60	; 0x3c
 8000fb4:	687b      	ldr	r3, [r7, #4]
 8000fb6:	f8c3 2264 	str.w	r2, [r3, #612]	; 0x264
#if (USE_HAL_PCD_REGISTER_CALLBACKS == 1U)
      hpcd->LPMCallback(hpcd, PCD_LPM_L1_ACTIVE);
#else
      HAL_PCDEx_LPM_Callback(hpcd, PCD_LPM_L1_ACTIVE);
 8000fba:	2101      	movs	r1, #1
 8000fbc:	6878      	ldr	r0, [r7, #4]
 8000fbe:	f004 ff6b 	bl	8005e98 <HAL_PCDEx_LPM_Callback>
 8000fc2:	e002      	b.n	8000fca <HAL_PCD_IRQHandler+0x232>
    else
    {
#if (USE_HAL_PCD_REGISTER_CALLBACKS == 1U)
      hpcd->SuspendCallback(hpcd);
#else
      HAL_PCD_SuspendCallback(hpcd);
 8000fc4:	6878      	ldr	r0, [r7, #4]
 8000fc6:	f004 fd95 	bl	8005af4 <HAL_PCD_SuspendCallback>
#endif /* USE_HAL_PCD_REGISTER_CALLBACKS */
    }
  }

  if (__HAL_PCD_GET_FLAG(hpcd, USB_ISTR_SOF))
 8000fca:	687b      	ldr	r3, [r7, #4]
 8000fcc:	681b      	ldr	r3, [r3, #0]
 8000fce:	4618      	mov	r0, r3
 8000fd0:	f002 fd43 	bl	8003a5a <USB_ReadInterrupts>
 8000fd4:	4603      	mov	r3, r0
 8000fd6:	f403 7300 	and.w	r3, r3, #512	; 0x200
 8000fda:	f5b3 7f00 	cmp.w	r3, #512	; 0x200
 8000fde:	d10e      	bne.n	8000ffe <HAL_PCD_IRQHandler+0x266>
  {
    __HAL_PCD_CLEAR_FLAG(hpcd, USB_ISTR_SOF);
 8000fe0:	687b      	ldr	r3, [r7, #4]
 8000fe2:	681b      	ldr	r3, [r3, #0]
 8000fe4:	f8b3 3044 	ldrh.w	r3, [r3, #68]	; 0x44
 8000fe8:	b29a      	uxth	r2, r3
 8000fea:	687b      	ldr	r3, [r7, #4]
 8000fec:	681b      	ldr	r3, [r3, #0]
 8000fee:	f422 7200 	bic.w	r2, r2, #512	; 0x200
 8000ff2:	b292      	uxth	r2, r2
 8000ff4:	f8a3 2044 	strh.w	r2, [r3, #68]	; 0x44

#if (USE_HAL_PCD_REGISTER_CALLBACKS == 1U)
    hpcd->SOFCallback(hpcd);
#else
    HAL_PCD_SOFCallback(hpcd);
 8000ff8:	6878      	ldr	r0, [r7, #4]
 8000ffa:	f004 fd4e 	bl	8005a9a <HAL_PCD_SOFCallback>
#endif /* USE_HAL_PCD_REGISTER_CALLBACKS */
  }

  if (__HAL_PCD_GET_FLAG(hpcd, USB_ISTR_ESOF))
 8000ffe:	687b      	ldr	r3, [r7, #4]
 8001000:	681b      	ldr	r3, [r3, #0]
 8001002:	4618      	mov	r0, r3
 8001004:	f002 fd29 	bl	8003a5a <USB_ReadInterrupts>
 8001008:	4603      	mov	r3, r0
 800100a:	f403 7380 	and.w	r3, r3, #256	; 0x100
 800100e:	f5b3 7f80 	cmp.w	r3, #256	; 0x100
 8001012:	d10b      	bne.n	800102c <HAL_PCD_IRQHandler+0x294>
  {
    /* clear ESOF flag in ISTR */
    __HAL_PCD_CLEAR_FLAG(hpcd, USB_ISTR_ESOF);
 8001014:	687b      	ldr	r3, [r7, #4]
 8001016:	681b      	ldr	r3, [r3, #0]
 8001018:	f8b3 3044 	ldrh.w	r3, [r3, #68]	; 0x44
 800101c:	b29a      	uxth	r2, r3
 800101e:	687b      	ldr	r3, [r7, #4]
 8001020:	681b      	ldr	r3, [r3, #0]
 8001022:	f422 7280 	bic.w	r2, r2, #256	; 0x100
 8001026:	b292      	uxth	r2, r2
 8001028:	f8a3 2044 	strh.w	r2, [r3, #68]	; 0x44
  }
}
 800102c:	bf00      	nop
 800102e:	3708      	adds	r7, #8
 8001030:	46bd      	mov	sp, r7
 8001032:	bd80      	pop	{r7, pc}

08001034 <HAL_PCD_SetAddress>:
  * @param  hpcd PCD handle
  * @param  address new device address
  * @retval HAL status
  */
HAL_StatusTypeDef HAL_PCD_SetAddress(PCD_HandleTypeDef *hpcd, uint8_t address)
{
 8001034:	b580      	push	{r7, lr}
 8001036:	b082      	sub	sp, #8
 8001038:	af00      	add	r7, sp, #0
 800103a:	6078      	str	r0, [r7, #4]
 800103c:	460b      	mov	r3, r1
 800103e:	70fb      	strb	r3, [r7, #3]
  __HAL_LOCK(hpcd);
 8001040:	687b      	ldr	r3, [r7, #4]
 8001042:	f893 3228 	ldrb.w	r3, [r3, #552]	; 0x228
 8001046:	2b01      	cmp	r3, #1
 8001048:	d101      	bne.n	800104e <HAL_PCD_SetAddress+0x1a>
 800104a:	2302      	movs	r3, #2
 800104c:	e013      	b.n	8001076 <HAL_PCD_SetAddress+0x42>
 800104e:	687b      	ldr	r3, [r7, #4]
 8001050:	2201      	movs	r2, #1
 8001052:	f883 2228 	strb.w	r2, [r3, #552]	; 0x228
  hpcd->USB_Address = address;
 8001056:	687b      	ldr	r3, [r7, #4]
 8001058:	78fa      	ldrb	r2, [r7, #3]
 800105a:	f883 2024 	strb.w	r2, [r3, #36]	; 0x24
  (void)USB_SetDevAddress(hpcd->Instance, address);
 800105e:	687b      	ldr	r3, [r7, #4]
 8001060:	681b      	ldr	r3, [r3, #0]
 8001062:	78fa      	ldrb	r2, [r7, #3]
 8001064:	4611      	mov	r1, r2
 8001066:	4618      	mov	r0, r3
 8001068:	f002 fccc 	bl	8003a04 <USB_SetDevAddress>
  __HAL_UNLOCK(hpcd);
 800106c:	687b      	ldr	r3, [r7, #4]
 800106e:	2200      	movs	r2, #0
 8001070:	f883 2228 	strb.w	r2, [r3, #552]	; 0x228
  return HAL_OK;
 8001074:	2300      	movs	r3, #0
}
 8001076:	4618      	mov	r0, r3
 8001078:	3708      	adds	r7, #8
 800107a:	46bd      	mov	sp, r7
 800107c:	bd80      	pop	{r7, pc}

0800107e <HAL_PCD_EP_Open>:
  * @param  ep_mps endpoint max packet size
  * @param  ep_type endpoint type
  * @retval HAL status
  */
HAL_StatusTypeDef HAL_PCD_EP_Open(PCD_HandleTypeDef *hpcd, uint8_t ep_addr, uint16_t ep_mps, uint8_t ep_type)
{
 800107e:	b580      	push	{r7, lr}
 8001080:	b084      	sub	sp, #16
 8001082:	af00      	add	r7, sp, #0
 8001084:	6078      	str	r0, [r7, #4]
 8001086:	4608      	mov	r0, r1
 8001088:	4611      	mov	r1, r2
 800108a:	461a      	mov	r2, r3
 800108c:	4603      	mov	r3, r0
 800108e:	70fb      	strb	r3, [r7, #3]
 8001090:	460b      	mov	r3, r1
 8001092:	803b      	strh	r3, [r7, #0]
 8001094:	4613      	mov	r3, r2
 8001096:	70bb      	strb	r3, [r7, #2]
  HAL_StatusTypeDef  ret = HAL_OK;
 8001098:	2300      	movs	r3, #0
 800109a:	72fb      	strb	r3, [r7, #11]
  PCD_EPTypeDef *ep;

  if ((ep_addr & 0x80U) == 0x80U)
 800109c:	f997 3003 	ldrsb.w	r3, [r7, #3]
 80010a0:	2b00      	cmp	r3, #0
 80010a2:	da0b      	bge.n	80010bc <HAL_PCD_EP_Open+0x3e>
  {
    ep = &hpcd->IN_ep[ep_addr & EP_ADDR_MSK];
 80010a4:	78fb      	ldrb	r3, [r7, #3]
 80010a6:	f003 0307 	and.w	r3, r3, #7
 80010aa:	015b      	lsls	r3, r3, #5
 80010ac:	3328      	adds	r3, #40	; 0x28
 80010ae:	687a      	ldr	r2, [r7, #4]
 80010b0:	4413      	add	r3, r2
 80010b2:	60fb      	str	r3, [r7, #12]
    ep->is_in = 1U;
 80010b4:	68fb      	ldr	r3, [r7, #12]
 80010b6:	2201      	movs	r2, #1
 80010b8:	705a      	strb	r2, [r3, #1]
 80010ba:	e00b      	b.n	80010d4 <HAL_PCD_EP_Open+0x56>
  }
  else
  {
    ep = &hpcd->OUT_ep[ep_addr & EP_ADDR_MSK];
 80010bc:	78fb      	ldrb	r3, [r7, #3]
 80010be:	f003 0307 	and.w	r3, r3, #7
 80010c2:	015b      	lsls	r3, r3, #5
 80010c4:	f503 7394 	add.w	r3, r3, #296	; 0x128
 80010c8:	687a      	ldr	r2, [r7, #4]
 80010ca:	4413      	add	r3, r2
 80010cc:	60fb      	str	r3, [r7, #12]
    ep->is_in = 0U;
 80010ce:	68fb      	ldr	r3, [r7, #12]
 80010d0:	2200      	movs	r2, #0
 80010d2:	705a      	strb	r2, [r3, #1]
  }

  ep->num = ep_addr & EP_ADDR_MSK;
 80010d4:	78fb      	ldrb	r3, [r7, #3]
 80010d6:	f003 0307 	and.w	r3, r3, #7
 80010da:	b2da      	uxtb	r2, r3
 80010dc:	68fb      	ldr	r3, [r7, #12]
 80010de:	701a      	strb	r2, [r3, #0]
  ep->maxpacket = ep_mps;
 80010e0:	883a      	ldrh	r2, [r7, #0]
 80010e2:	68fb      	ldr	r3, [r7, #12]
 80010e4:	611a      	str	r2, [r3, #16]
  ep->type = ep_type;
 80010e6:	68fb      	ldr	r3, [r7, #12]
 80010e8:	78ba      	ldrb	r2, [r7, #2]
 80010ea:	70da      	strb	r2, [r3, #3]

  if (ep->is_in != 0U)
 80010ec:	68fb      	ldr	r3, [r7, #12]
 80010ee:	785b      	ldrb	r3, [r3, #1]
 80010f0:	2b00      	cmp	r3, #0
 80010f2:	d004      	beq.n	80010fe <HAL_PCD_EP_Open+0x80>
  {
    /* Assign a Tx FIFO */
    ep->tx_fifo_num = ep->num;
 80010f4:	68fb      	ldr	r3, [r7, #12]
 80010f6:	781b      	ldrb	r3, [r3, #0]
 80010f8:	b29a      	uxth	r2, r3
 80010fa:	68fb      	ldr	r3, [r7, #12]
 80010fc:	81da      	strh	r2, [r3, #14]
  }
  /* Set initial data PID. */
  if (ep_type == EP_TYPE_BULK)
 80010fe:	78bb      	ldrb	r3, [r7, #2]
 8001100:	2b02      	cmp	r3, #2
 8001102:	d102      	bne.n	800110a <HAL_PCD_EP_Open+0x8c>
  {
    ep->data_pid_start = 0U;
 8001104:	68fb      	ldr	r3, [r7, #12]
 8001106:	2200      	movs	r2, #0
 8001108:	711a      	strb	r2, [r3, #4]
  }

  __HAL_LOCK(hpcd);
 800110a:	687b      	ldr	r3, [r7, #4]
 800110c:	f893 3228 	ldrb.w	r3, [r3, #552]	; 0x228
 8001110:	2b01      	cmp	r3, #1
 8001112:	d101      	bne.n	8001118 <HAL_PCD_EP_Open+0x9a>
 8001114:	2302      	movs	r3, #2
 8001116:	e00e      	b.n	8001136 <HAL_PCD_EP_Open+0xb8>
 8001118:	687b      	ldr	r3, [r7, #4]
 800111a:	2201      	movs	r2, #1
 800111c:	f883 2228 	strb.w	r2, [r3, #552]	; 0x228
  (void)USB_ActivateEndpoint(hpcd->Instance, ep);
 8001120:	687b      	ldr	r3, [r7, #4]
 8001122:	681b      	ldr	r3, [r3, #0]
 8001124:	68f9      	ldr	r1, [r7, #12]
 8001126:	4618      	mov	r0, r3
 8001128:	f001 fc58 	bl	80029dc <USB_ActivateEndpoint>
  __HAL_UNLOCK(hpcd);
 800112c:	687b      	ldr	r3, [r7, #4]
 800112e:	2200      	movs	r2, #0
 8001130:	f883 2228 	strb.w	r2, [r3, #552]	; 0x228

  return ret;
 8001134:	7afb      	ldrb	r3, [r7, #11]
}
 8001136:	4618      	mov	r0, r3
 8001138:	3710      	adds	r7, #16
 800113a:	46bd      	mov	sp, r7
 800113c:	bd80      	pop	{r7, pc}

0800113e <HAL_PCD_EP_Close>:
  * @param  hpcd PCD handle
  * @param  ep_addr endpoint address
  * @retval HAL status
  */
HAL_StatusTypeDef HAL_PCD_EP_Close(PCD_HandleTypeDef *hpcd, uint8_t ep_addr)
{
 800113e:	b580      	push	{r7, lr}
 8001140:	b084      	sub	sp, #16
 8001142:	af00      	add	r7, sp, #0
 8001144:	6078      	str	r0, [r7, #4]
 8001146:	460b      	mov	r3, r1
 8001148:	70fb      	strb	r3, [r7, #3]
  PCD_EPTypeDef *ep;

  if ((ep_addr & 0x80U) == 0x80U)
 800114a:	f997 3003 	ldrsb.w	r3, [r7, #3]
 800114e:	2b00      	cmp	r3, #0
 8001150:	da0b      	bge.n	800116a <HAL_PCD_EP_Close+0x2c>
  {
    ep = &hpcd->IN_ep[ep_addr & EP_ADDR_MSK];
 8001152:	78fb      	ldrb	r3, [r7, #3]
 8001154:	f003 0307 	and.w	r3, r3, #7
 8001158:	015b      	lsls	r3, r3, #5
 800115a:	3328      	adds	r3, #40	; 0x28
 800115c:	687a      	ldr	r2, [r7, #4]
 800115e:	4413      	add	r3, r2
 8001160:	60fb      	str	r3, [r7, #12]
    ep->is_in = 1U;
 8001162:	68fb      	ldr	r3, [r7, #12]
 8001164:	2201      	movs	r2, #1
 8001166:	705a      	strb	r2, [r3, #1]
 8001168:	e00b      	b.n	8001182 <HAL_PCD_EP_Close+0x44>
  }
  else
  {
    ep = &hpcd->OUT_ep[ep_addr & EP_ADDR_MSK];
 800116a:	78fb      	ldrb	r3, [r7, #3]
 800116c:	f003 0307 	and.w	r3, r3, #7
 8001170:	015b      	lsls	r3, r3, #5
 8001172:	f503 7394 	add.w	r3, r3, #296	; 0x128
 8001176:	687a      	ldr	r2, [r7, #4]
 8001178:	4413      	add	r3, r2
 800117a:	60fb      	str	r3, [r7, #12]
    ep->is_in = 0U;
 800117c:	68fb      	ldr	r3, [r7, #12]
 800117e:	2200      	movs	r2, #0
 8001180:	705a      	strb	r2, [r3, #1]
  }
  ep->num   = ep_addr & EP_ADDR_MSK;
 8001182:	78fb      	ldrb	r3, [r7, #3]
 8001184:	f003 0307 	and.w	r3, r3, #7
 8001188:	b2da      	uxtb	r2, r3
 800118a:	68fb      	ldr	r3, [r7, #12]
 800118c:	701a      	strb	r2, [r3, #0]

  __HAL_LOCK(hpcd);
 800118e:	687b      	ldr	r3, [r7, #4]
 8001190:	f893 3228 	ldrb.w	r3, [r3, #552]	; 0x228
 8001194:	2b01      	cmp	r3, #1
 8001196:	d101      	bne.n	800119c <HAL_PCD_EP_Close+0x5e>
 8001198:	2302      	movs	r3, #2
 800119a:	e00e      	b.n	80011ba <HAL_PCD_EP_Close+0x7c>
 800119c:	687b      	ldr	r3, [r7, #4]
 800119e:	2201      	movs	r2, #1
 80011a0:	f883 2228 	strb.w	r2, [r3, #552]	; 0x228
  (void)USB_DeactivateEndpoint(hpcd->Instance, ep);
 80011a4:	687b      	ldr	r3, [r7, #4]
 80011a6:	681b      	ldr	r3, [r3, #0]
 80011a8:	68f9      	ldr	r1, [r7, #12]
 80011aa:	4618      	mov	r0, r3
 80011ac:	f001 ff06 	bl	8002fbc <USB_DeactivateEndpoint>
  __HAL_UNLOCK(hpcd);
 80011b0:	687b      	ldr	r3, [r7, #4]
 80011b2:	2200      	movs	r2, #0
 80011b4:	f883 2228 	strb.w	r2, [r3, #552]	; 0x228
  return HAL_OK;
 80011b8:	2300      	movs	r3, #0
}
 80011ba:	4618      	mov	r0, r3
 80011bc:	3710      	adds	r7, #16
 80011be:	46bd      	mov	sp, r7
 80011c0:	bd80      	pop	{r7, pc}

080011c2 <HAL_PCD_EP_Receive>:
  * @param  pBuf pointer to the reception buffer
  * @param  len amount of data to be received
  * @retval HAL status
  */
HAL_StatusTypeDef HAL_PCD_EP_Receive(PCD_HandleTypeDef *hpcd, uint8_t ep_addr, uint8_t *pBuf, uint32_t len)
{
 80011c2:	b580      	push	{r7, lr}
 80011c4:	b086      	sub	sp, #24
 80011c6:	af00      	add	r7, sp, #0
 80011c8:	60f8      	str	r0, [r7, #12]
 80011ca:	607a      	str	r2, [r7, #4]
 80011cc:	603b      	str	r3, [r7, #0]
 80011ce:	460b      	mov	r3, r1
 80011d0:	72fb      	strb	r3, [r7, #11]
  PCD_EPTypeDef *ep;

  ep = &hpcd->OUT_ep[ep_addr & EP_ADDR_MSK];
 80011d2:	7afb      	ldrb	r3, [r7, #11]
 80011d4:	f003 0307 	and.w	r3, r3, #7
 80011d8:	015b      	lsls	r3, r3, #5
 80011da:	f503 7394 	add.w	r3, r3, #296	; 0x128
 80011de:	68fa      	ldr	r2, [r7, #12]
 80011e0:	4413      	add	r3, r2
 80011e2:	617b      	str	r3, [r7, #20]

  /*setup and start the Xfer */
  ep->xfer_buff = pBuf;
 80011e4:	697b      	ldr	r3, [r7, #20]
 80011e6:	687a      	ldr	r2, [r7, #4]
 80011e8:	615a      	str	r2, [r3, #20]
  ep->xfer_len = len;
 80011ea:	697b      	ldr	r3, [r7, #20]
 80011ec:	683a      	ldr	r2, [r7, #0]
 80011ee:	619a      	str	r2, [r3, #24]
  ep->xfer_count = 0U;
 80011f0:	697b      	ldr	r3, [r7, #20]
 80011f2:	2200      	movs	r2, #0
 80011f4:	61da      	str	r2, [r3, #28]
  ep->is_in = 0U;
 80011f6:	697b      	ldr	r3, [r7, #20]
 80011f8:	2200      	movs	r2, #0
 80011fa:	705a      	strb	r2, [r3, #1]
  ep->num = ep_addr & EP_ADDR_MSK;
 80011fc:	7afb      	ldrb	r3, [r7, #11]
 80011fe:	f003 0307 	and.w	r3, r3, #7
 8001202:	b2da      	uxtb	r2, r3
 8001204:	697b      	ldr	r3, [r7, #20]
 8001206:	701a      	strb	r2, [r3, #0]

  if ((ep_addr & EP_ADDR_MSK) == 0U)
 8001208:	7afb      	ldrb	r3, [r7, #11]
 800120a:	f003 0307 	and.w	r3, r3, #7
 800120e:	2b00      	cmp	r3, #0
 8001210:	d106      	bne.n	8001220 <HAL_PCD_EP_Receive+0x5e>
  {
    (void)USB_EP0StartXfer(hpcd->Instance, ep);
 8001212:	68fb      	ldr	r3, [r7, #12]
 8001214:	681b      	ldr	r3, [r3, #0]
 8001216:	6979      	ldr	r1, [r7, #20]
 8001218:	4618      	mov	r0, r3
 800121a:	f002 f865 	bl	80032e8 <USB_EPStartXfer>
 800121e:	e005      	b.n	800122c <HAL_PCD_EP_Receive+0x6a>
  }
  else
  {
    (void)USB_EPStartXfer(hpcd->Instance, ep);
 8001220:	68fb      	ldr	r3, [r7, #12]
 8001222:	681b      	ldr	r3, [r3, #0]
 8001224:	6979      	ldr	r1, [r7, #20]
 8001226:	4618      	mov	r0, r3
 8001228:	f002 f85e 	bl	80032e8 <USB_EPStartXfer>
  }

  return HAL_OK;
 800122c:	2300      	movs	r3, #0
}
 800122e:	4618      	mov	r0, r3
 8001230:	3718      	adds	r7, #24
 8001232:	46bd      	mov	sp, r7
 8001234:	bd80      	pop	{r7, pc}

08001236 <HAL_PCD_EP_GetRxCount>:
  * @param  hpcd PCD handle
  * @param  ep_addr endpoint address
  * @retval Data Size
  */
uint32_t HAL_PCD_EP_GetRxCount(PCD_HandleTypeDef *hpcd, uint8_t ep_addr)
{
 8001236:	b480      	push	{r7}
 8001238:	b083      	sub	sp, #12
 800123a:	af00      	add	r7, sp, #0
 800123c:	6078      	str	r0, [r7, #4]
 800123e:	460b      	mov	r3, r1
 8001240:	70fb      	strb	r3, [r7, #3]
  return hpcd->OUT_ep[ep_addr & EP_ADDR_MSK].xfer_count;
 8001242:	78fb      	ldrb	r3, [r7, #3]
 8001244:	f003 0307 	and.w	r3, r3, #7
 8001248:	687a      	ldr	r2, [r7, #4]
 800124a:	330a      	adds	r3, #10
 800124c:	015b      	lsls	r3, r3, #5
 800124e:	4413      	add	r3, r2
 8001250:	3304      	adds	r3, #4
 8001252:	681b      	ldr	r3, [r3, #0]
}
 8001254:	4618      	mov	r0, r3
 8001256:	370c      	adds	r7, #12
 8001258:	46bd      	mov	sp, r7
 800125a:	f85d 7b04 	ldr.w	r7, [sp], #4
 800125e:	4770      	bx	lr

08001260 <HAL_PCD_EP_Transmit>:
  * @param  pBuf pointer to the transmission buffer
  * @param  len amount of data to be sent
  * @retval HAL status
  */
HAL_StatusTypeDef HAL_PCD_EP_Transmit(PCD_HandleTypeDef *hpcd, uint8_t ep_addr, uint8_t *pBuf, uint32_t len)
{
 8001260:	b580      	push	{r7, lr}
 8001262:	b086      	sub	sp, #24
 8001264:	af00      	add	r7, sp, #0
 8001266:	60f8      	str	r0, [r7, #12]
 8001268:	607a      	str	r2, [r7, #4]
 800126a:	603b      	str	r3, [r7, #0]
 800126c:	460b      	mov	r3, r1
 800126e:	72fb      	strb	r3, [r7, #11]
  PCD_EPTypeDef *ep;

  ep = &hpcd->IN_ep[ep_addr & EP_ADDR_MSK];
 8001270:	7afb      	ldrb	r3, [r7, #11]
 8001272:	f003 0307 	and.w	r3, r3, #7
 8001276:	015b      	lsls	r3, r3, #5
 8001278:	3328      	adds	r3, #40	; 0x28
 800127a:	68fa      	ldr	r2, [r7, #12]
 800127c:	4413      	add	r3, r2
 800127e:	617b      	str	r3, [r7, #20]

  /*setup and start the Xfer */
  ep->xfer_buff = pBuf;
 8001280:	697b      	ldr	r3, [r7, #20]
 8001282:	687a      	ldr	r2, [r7, #4]
 8001284:	615a      	str	r2, [r3, #20]
  ep->xfer_len = len;
 8001286:	697b      	ldr	r3, [r7, #20]
 8001288:	683a      	ldr	r2, [r7, #0]
 800128a:	619a      	str	r2, [r3, #24]
  ep->xfer_count = 0U;
 800128c:	697b      	ldr	r3, [r7, #20]
 800128e:	2200      	movs	r2, #0
 8001290:	61da      	str	r2, [r3, #28]
  ep->is_in = 1U;
 8001292:	697b      	ldr	r3, [r7, #20]
 8001294:	2201      	movs	r2, #1
 8001296:	705a      	strb	r2, [r3, #1]
  ep->num = ep_addr & EP_ADDR_MSK;
 8001298:	7afb      	ldrb	r3, [r7, #11]
 800129a:	f003 0307 	and.w	r3, r3, #7
 800129e:	b2da      	uxtb	r2, r3
 80012a0:	697b      	ldr	r3, [r7, #20]
 80012a2:	701a      	strb	r2, [r3, #0]

  if ((ep_addr & EP_ADDR_MSK) == 0U)
 80012a4:	7afb      	ldrb	r3, [r7, #11]
 80012a6:	f003 0307 	and.w	r3, r3, #7
 80012aa:	2b00      	cmp	r3, #0
 80012ac:	d106      	bne.n	80012bc <HAL_PCD_EP_Transmit+0x5c>
  {
    (void)USB_EP0StartXfer(hpcd->Instance, ep);
 80012ae:	68fb      	ldr	r3, [r7, #12]
 80012b0:	681b      	ldr	r3, [r3, #0]
 80012b2:	6979      	ldr	r1, [r7, #20]
 80012b4:	4618      	mov	r0, r3
 80012b6:	f002 f817 	bl	80032e8 <USB_EPStartXfer>
 80012ba:	e005      	b.n	80012c8 <HAL_PCD_EP_Transmit+0x68>
  }
  else
  {
    (void)USB_EPStartXfer(hpcd->Instance, ep);
 80012bc:	68fb      	ldr	r3, [r7, #12]
 80012be:	681b      	ldr	r3, [r3, #0]
 80012c0:	6979      	ldr	r1, [r7, #20]
 80012c2:	4618      	mov	r0, r3
 80012c4:	f002 f810 	bl	80032e8 <USB_EPStartXfer>
  }

  return HAL_OK;
 80012c8:	2300      	movs	r3, #0
}
 80012ca:	4618      	mov	r0, r3
 80012cc:	3718      	adds	r7, #24
 80012ce:	46bd      	mov	sp, r7
 80012d0:	bd80      	pop	{r7, pc}

080012d2 <HAL_PCD_EP_SetStall>:
  * @param  hpcd PCD handle
  * @param  ep_addr endpoint address
  * @retval HAL status
  */
HAL_StatusTypeDef HAL_PCD_EP_SetStall(PCD_HandleTypeDef *hpcd, uint8_t ep_addr)
{
 80012d2:	b580      	push	{r7, lr}
 80012d4:	b084      	sub	sp, #16
 80012d6:	af00      	add	r7, sp, #0
 80012d8:	6078      	str	r0, [r7, #4]
 80012da:	460b      	mov	r3, r1
 80012dc:	70fb      	strb	r3, [r7, #3]
  PCD_EPTypeDef *ep;

  if (((uint32_t)ep_addr & EP_ADDR_MSK) > hpcd->Init.dev_endpoints)
 80012de:	78fb      	ldrb	r3, [r7, #3]
 80012e0:	f003 0207 	and.w	r2, r3, #7
 80012e4:	687b      	ldr	r3, [r7, #4]
 80012e6:	685b      	ldr	r3, [r3, #4]
 80012e8:	429a      	cmp	r2, r3
 80012ea:	d901      	bls.n	80012f0 <HAL_PCD_EP_SetStall+0x1e>
  {
    return HAL_ERROR;
 80012ec:	2301      	movs	r3, #1
 80012ee:	e046      	b.n	800137e <HAL_PCD_EP_SetStall+0xac>
  }

  if ((0x80U & ep_addr) == 0x80U)
 80012f0:	f997 3003 	ldrsb.w	r3, [r7, #3]
 80012f4:	2b00      	cmp	r3, #0
 80012f6:	da0b      	bge.n	8001310 <HAL_PCD_EP_SetStall+0x3e>
  {
    ep = &hpcd->IN_ep[ep_addr & EP_ADDR_MSK];
 80012f8:	78fb      	ldrb	r3, [r7, #3]
 80012fa:	f003 0307 	and.w	r3, r3, #7
 80012fe:	015b      	lsls	r3, r3, #5
 8001300:	3328      	adds	r3, #40	; 0x28
 8001302:	687a      	ldr	r2, [r7, #4]
 8001304:	4413      	add	r3, r2
 8001306:	60fb      	str	r3, [r7, #12]
    ep->is_in = 1U;
 8001308:	68fb      	ldr	r3, [r7, #12]
 800130a:	2201      	movs	r2, #1
 800130c:	705a      	strb	r2, [r3, #1]
 800130e:	e009      	b.n	8001324 <HAL_PCD_EP_SetStall+0x52>
  }
  else
  {
    ep = &hpcd->OUT_ep[ep_addr];
 8001310:	78fb      	ldrb	r3, [r7, #3]
 8001312:	015b      	lsls	r3, r3, #5
 8001314:	f503 7394 	add.w	r3, r3, #296	; 0x128
 8001318:	687a      	ldr	r2, [r7, #4]
 800131a:	4413      	add	r3, r2
 800131c:	60fb      	str	r3, [r7, #12]
    ep->is_in = 0U;
 800131e:	68fb      	ldr	r3, [r7, #12]
 8001320:	2200      	movs	r2, #0
 8001322:	705a      	strb	r2, [r3, #1]
  }

  ep->is_stall = 1U;
 8001324:	68fb      	ldr	r3, [r7, #12]
 8001326:	2201      	movs	r2, #1
 8001328:	709a      	strb	r2, [r3, #2]
  ep->num = ep_addr & EP_ADDR_MSK;
 800132a:	78fb      	ldrb	r3, [r7, #3]
 800132c:	f003 0307 	and.w	r3, r3, #7
 8001330:	b2da      	uxtb	r2, r3
 8001332:	68fb      	ldr	r3, [r7, #12]
 8001334:	701a      	strb	r2, [r3, #0]

  __HAL_LOCK(hpcd);
 8001336:	687b      	ldr	r3, [r7, #4]
 8001338:	f893 3228 	ldrb.w	r3, [r3, #552]	; 0x228
 800133c:	2b01      	cmp	r3, #1
 800133e:	d101      	bne.n	8001344 <HAL_PCD_EP_SetStall+0x72>
 8001340:	2302      	movs	r3, #2
 8001342:	e01c      	b.n	800137e <HAL_PCD_EP_SetStall+0xac>
 8001344:	687b      	ldr	r3, [r7, #4]
 8001346:	2201      	movs	r2, #1
 8001348:	f883 2228 	strb.w	r2, [r3, #552]	; 0x228

  (void)USB_EPSetStall(hpcd->Instance, ep);
 800134c:	687b      	ldr	r3, [r7, #4]
 800134e:	681b      	ldr	r3, [r3, #0]
 8001350:	68f9      	ldr	r1, [r7, #12]
 8001352:	4618      	mov	r0, r3
 8001354:	f002 fa80 	bl	8003858 <USB_EPSetStall>
  if ((ep_addr & EP_ADDR_MSK) == 0U)
 8001358:	78fb      	ldrb	r3, [r7, #3]
 800135a:	f003 0307 	and.w	r3, r3, #7
 800135e:	2b00      	cmp	r3, #0
 8001360:	d108      	bne.n	8001374 <HAL_PCD_EP_SetStall+0xa2>
  {
    (void)USB_EP0_OutStart(hpcd->Instance, (uint8_t *)hpcd->Setup);
 8001362:	687b      	ldr	r3, [r7, #4]
 8001364:	681a      	ldr	r2, [r3, #0]
 8001366:	687b      	ldr	r3, [r7, #4]
 8001368:	f503 730c 	add.w	r3, r3, #560	; 0x230
 800136c:	4619      	mov	r1, r3
 800136e:	4610      	mov	r0, r2
 8001370:	f002 fb83 	bl	8003a7a <USB_EP0_OutStart>
  }
  __HAL_UNLOCK(hpcd);
 8001374:	687b      	ldr	r3, [r7, #4]
 8001376:	2200      	movs	r2, #0
 8001378:	f883 2228 	strb.w	r2, [r3, #552]	; 0x228

  return HAL_OK;
 800137c:	2300      	movs	r3, #0
}
 800137e:	4618      	mov	r0, r3
 8001380:	3710      	adds	r7, #16
 8001382:	46bd      	mov	sp, r7
 8001384:	bd80      	pop	{r7, pc}

08001386 <HAL_PCD_EP_ClrStall>:
  * @param  hpcd PCD handle
  * @param  ep_addr endpoint address
  * @retval HAL status
  */
HAL_StatusTypeDef HAL_PCD_EP_ClrStall(PCD_HandleTypeDef *hpcd, uint8_t ep_addr)
{
 8001386:	b580      	push	{r7, lr}
 8001388:	b084      	sub	sp, #16
 800138a:	af00      	add	r7, sp, #0
 800138c:	6078      	str	r0, [r7, #4]
 800138e:	460b      	mov	r3, r1
 8001390:	70fb      	strb	r3, [r7, #3]
  PCD_EPTypeDef *ep;

  if (((uint32_t)ep_addr & 0x0FU) > hpcd->Init.dev_endpoints)
 8001392:	78fb      	ldrb	r3, [r7, #3]
 8001394:	f003 020f 	and.w	r2, r3, #15
 8001398:	687b      	ldr	r3, [r7, #4]
 800139a:	685b      	ldr	r3, [r3, #4]
 800139c:	429a      	cmp	r2, r3
 800139e:	d901      	bls.n	80013a4 <HAL_PCD_EP_ClrStall+0x1e>
  {
    return HAL_ERROR;
 80013a0:	2301      	movs	r3, #1
 80013a2:	e03a      	b.n	800141a <HAL_PCD_EP_ClrStall+0x94>
  }

  if ((0x80U & ep_addr) == 0x80U)
 80013a4:	f997 3003 	ldrsb.w	r3, [r7, #3]
 80013a8:	2b00      	cmp	r3, #0
 80013aa:	da0b      	bge.n	80013c4 <HAL_PCD_EP_ClrStall+0x3e>
  {
    ep = &hpcd->IN_ep[ep_addr & EP_ADDR_MSK];
 80013ac:	78fb      	ldrb	r3, [r7, #3]
 80013ae:	f003 0307 	and.w	r3, r3, #7
 80013b2:	015b      	lsls	r3, r3, #5
 80013b4:	3328      	adds	r3, #40	; 0x28
 80013b6:	687a      	ldr	r2, [r7, #4]
 80013b8:	4413      	add	r3, r2
 80013ba:	60fb      	str	r3, [r7, #12]
    ep->is_in = 1U;
 80013bc:	68fb      	ldr	r3, [r7, #12]
 80013be:	2201      	movs	r2, #1
 80013c0:	705a      	strb	r2, [r3, #1]
 80013c2:	e00b      	b.n	80013dc <HAL_PCD_EP_ClrStall+0x56>
  }
  else
  {
    ep = &hpcd->OUT_ep[ep_addr & EP_ADDR_MSK];
 80013c4:	78fb      	ldrb	r3, [r7, #3]
 80013c6:	f003 0307 	and.w	r3, r3, #7
 80013ca:	015b      	lsls	r3, r3, #5
 80013cc:	f503 7394 	add.w	r3, r3, #296	; 0x128
 80013d0:	687a      	ldr	r2, [r7, #4]
 80013d2:	4413      	add	r3, r2
 80013d4:	60fb      	str	r3, [r7, #12]
    ep->is_in = 0U;
 80013d6:	68fb      	ldr	r3, [r7, #12]
 80013d8:	2200      	movs	r2, #0
 80013da:	705a      	strb	r2, [r3, #1]
  }

  ep->is_stall = 0U;
 80013dc:	68fb      	ldr	r3, [r7, #12]
 80013de:	2200      	movs	r2, #0
 80013e0:	709a      	strb	r2, [r3, #2]
  ep->num = ep_addr & EP_ADDR_MSK;
 80013e2:	78fb      	ldrb	r3, [r7, #3]
 80013e4:	f003 0307 	and.w	r3, r3, #7
 80013e8:	b2da      	uxtb	r2, r3
 80013ea:	68fb      	ldr	r3, [r7, #12]
 80013ec:	701a      	strb	r2, [r3, #0]

  __HAL_LOCK(hpcd);
 80013ee:	687b      	ldr	r3, [r7, #4]
 80013f0:	f893 3228 	ldrb.w	r3, [r3, #552]	; 0x228
 80013f4:	2b01      	cmp	r3, #1
 80013f6:	d101      	bne.n	80013fc <HAL_PCD_EP_ClrStall+0x76>
 80013f8:	2302      	movs	r3, #2
 80013fa:	e00e      	b.n	800141a <HAL_PCD_EP_ClrStall+0x94>
 80013fc:	687b      	ldr	r3, [r7, #4]
 80013fe:	2201      	movs	r2, #1
 8001400:	f883 2228 	strb.w	r2, [r3, #552]	; 0x228
  (void)USB_EPClearStall(hpcd->Instance, ep);
 8001404:	687b      	ldr	r3, [r7, #4]
 8001406:	681b      	ldr	r3, [r3, #0]
 8001408:	68f9      	ldr	r1, [r7, #12]
 800140a:	4618      	mov	r0, r3
 800140c:	f002 fa66 	bl	80038dc <USB_EPClearStall>
  __HAL_UNLOCK(hpcd);
 8001410:	687b      	ldr	r3, [r7, #4]
 8001412:	2200      	movs	r2, #0
 8001414:	f883 2228 	strb.w	r2, [r3, #552]	; 0x228

  return HAL_OK;
 8001418:	2300      	movs	r3, #0
}
 800141a:	4618      	mov	r0, r3
 800141c:	3710      	adds	r7, #16
 800141e:	46bd      	mov	sp, r7
 8001420:	bd80      	pop	{r7, pc}
	...

08001424 <PCD_EP_ISR_Handler>:
  * @brief  This function handles PCD Endpoint interrupt request.
  * @param  hpcd PCD handle
  * @retval HAL status
  */
static HAL_StatusTypeDef PCD_EP_ISR_Handler(PCD_HandleTypeDef *hpcd)
{
 8001424:	b590      	push	{r4, r7, lr}
 8001426:	b089      	sub	sp, #36	; 0x24
 8001428:	af00      	add	r7, sp, #0
 800142a:	6078      	str	r0, [r7, #4]
  uint16_t wIstr;
  uint16_t wEPVal;
  uint8_t epindex;

  /* stay in loop while pending interrupts */
  while ((hpcd->Instance->ISTR & USB_ISTR_CTR) != 0U)
 800142c:	e274      	b.n	8001918 <PCD_EP_ISR_Handler+0x4f4>
  {
    wIstr = hpcd->Instance->ISTR;
 800142e:	687b      	ldr	r3, [r7, #4]
 8001430:	681b      	ldr	r3, [r3, #0]
 8001432:	f8b3 3044 	ldrh.w	r3, [r3, #68]	; 0x44
 8001436:	82fb      	strh	r3, [r7, #22]
    /* extract highest priority endpoint number */
    epindex = (uint8_t)(wIstr & USB_ISTR_EP_ID);
 8001438:	8afb      	ldrh	r3, [r7, #22]
 800143a:	b2db      	uxtb	r3, r3
 800143c:	f003 030f 	and.w	r3, r3, #15
 8001440:	757b      	strb	r3, [r7, #21]

    if (epindex == 0U)
 8001442:	7d7b      	ldrb	r3, [r7, #21]
 8001444:	2b00      	cmp	r3, #0
 8001446:	f040 813c 	bne.w	80016c2 <PCD_EP_ISR_Handler+0x29e>
    {
      /* Decode and service control endpoint interrupt */

      /* DIR bit = origin of the interrupt */
      if ((wIstr & USB_ISTR_DIR) == 0U)
 800144a:	8afb      	ldrh	r3, [r7, #22]
 800144c:	f003 0310 	and.w	r3, r3, #16
 8001450:	2b00      	cmp	r3, #0
 8001452:	d14f      	bne.n	80014f4 <PCD_EP_ISR_Handler+0xd0>
      {
        /* DIR = 0 */

        /* DIR = 0 => IN  int */
        /* DIR = 0 implies that (EP_CTR_TX = 1) always */
        PCD_CLEAR_TX_EP_CTR(hpcd->Instance, PCD_ENDP0);
 8001454:	687b      	ldr	r3, [r7, #4]
 8001456:	681b      	ldr	r3, [r3, #0]
 8001458:	881b      	ldrh	r3, [r3, #0]
 800145a:	b29b      	uxth	r3, r3
 800145c:	f423 43e1 	bic.w	r3, r3, #28800	; 0x7080
 8001460:	f023 0370 	bic.w	r3, r3, #112	; 0x70
 8001464:	b29c      	uxth	r4, r3
 8001466:	687b      	ldr	r3, [r7, #4]
 8001468:	681a      	ldr	r2, [r3, #0]
 800146a:	ea6f 4344 	mvn.w	r3, r4, lsl #17
 800146e:	ea6f 4353 	mvn.w	r3, r3, lsr #17
 8001472:	b29b      	uxth	r3, r3
 8001474:	8013      	strh	r3, [r2, #0]
        ep = &hpcd->IN_ep[0];
 8001476:	687b      	ldr	r3, [r7, #4]
 8001478:	3328      	adds	r3, #40	; 0x28
 800147a:	60fb      	str	r3, [r7, #12]

        ep->xfer_count = PCD_GET_EP_TX_CNT(hpcd->Instance, ep->num);
 800147c:	687b      	ldr	r3, [r7, #4]
 800147e:	681b      	ldr	r3, [r3, #0]
 8001480:	f8b3 3050 	ldrh.w	r3, [r3, #80]	; 0x50
 8001484:	b29b      	uxth	r3, r3
 8001486:	461a      	mov	r2, r3
 8001488:	68fb      	ldr	r3, [r7, #12]
 800148a:	781b      	ldrb	r3, [r3, #0]
 800148c:	00db      	lsls	r3, r3, #3
 800148e:	4413      	add	r3, r2
 8001490:	687a      	ldr	r2, [r7, #4]
 8001492:	6812      	ldr	r2, [r2, #0]
 8001494:	4413      	add	r3, r2
 8001496:	f203 4302 	addw	r3, r3, #1026	; 0x402
 800149a:	881b      	ldrh	r3, [r3, #0]
 800149c:	f3c3 0209 	ubfx	r2, r3, #0, #10
 80014a0:	68fb      	ldr	r3, [r7, #12]
 80014a2:	61da      	str	r2, [r3, #28]
        ep->xfer_buff += ep->xfer_count;
 80014a4:	68fb      	ldr	r3, [r7, #12]
 80014a6:	695a      	ldr	r2, [r3, #20]
 80014a8:	68fb      	ldr	r3, [r7, #12]
 80014aa:	69db      	ldr	r3, [r3, #28]
 80014ac:	441a      	add	r2, r3
 80014ae:	68fb      	ldr	r3, [r7, #12]
 80014b0:	615a      	str	r2, [r3, #20]

        /* TX COMPLETE */
#if (USE_HAL_PCD_REGISTER_CALLBACKS == 1U)
        hpcd->DataInStageCallback(hpcd, 0U);
#else
        HAL_PCD_DataInStageCallback(hpcd, 0U);
 80014b2:	2100      	movs	r1, #0
 80014b4:	6878      	ldr	r0, [r7, #4]
 80014b6:	f004 fad9 	bl	8005a6c <HAL_PCD_DataInStageCallback>
#endif /* USE_HAL_PCD_REGISTER_CALLBACKS */

        if ((hpcd->USB_Address > 0U) && (ep->xfer_len == 0U))
 80014ba:	687b      	ldr	r3, [r7, #4]
 80014bc:	f893 3024 	ldrb.w	r3, [r3, #36]	; 0x24
 80014c0:	b2db      	uxtb	r3, r3
 80014c2:	2b00      	cmp	r3, #0
 80014c4:	f000 8228 	beq.w	8001918 <PCD_EP_ISR_Handler+0x4f4>
 80014c8:	68fb      	ldr	r3, [r7, #12]
 80014ca:	699b      	ldr	r3, [r3, #24]
 80014cc:	2b00      	cmp	r3, #0
 80014ce:	f040 8223 	bne.w	8001918 <PCD_EP_ISR_Handler+0x4f4>
        {
          hpcd->Instance->DADDR = ((uint16_t)hpcd->USB_Address | USB_DADDR_EF);
 80014d2:	687b      	ldr	r3, [r7, #4]
 80014d4:	f893 3024 	ldrb.w	r3, [r3, #36]	; 0x24
 80014d8:	b2db      	uxtb	r3, r3
 80014da:	f063 037f 	orn	r3, r3, #127	; 0x7f
 80014de:	b2da      	uxtb	r2, r3
 80014e0:	687b      	ldr	r3, [r7, #4]
 80014e2:	681b      	ldr	r3, [r3, #0]
 80014e4:	b292      	uxth	r2, r2
 80014e6:	f8a3 204c 	strh.w	r2, [r3, #76]	; 0x4c
          hpcd->USB_Address = 0U;
 80014ea:	687b      	ldr	r3, [r7, #4]
 80014ec:	2200      	movs	r2, #0
 80014ee:	f883 2024 	strb.w	r2, [r3, #36]	; 0x24
 80014f2:	e211      	b.n	8001918 <PCD_EP_ISR_Handler+0x4f4>
      {
        /* DIR = 1 */

        /* DIR = 1 & CTR_RX => SETUP or OUT int */
        /* DIR = 1 & (CTR_TX | CTR_RX) => 2 int pending */
        ep = &hpcd->OUT_ep[0];
 80014f4:	687b      	ldr	r3, [r7, #4]
 80014f6:	f503 7394 	add.w	r3, r3, #296	; 0x128
 80014fa:	60fb      	str	r3, [r7, #12]
        wEPVal = PCD_GET_ENDPOINT(hpcd->Instance, PCD_ENDP0);
 80014fc:	687b      	ldr	r3, [r7, #4]
 80014fe:	681b      	ldr	r3, [r3, #0]
 8001500:	881b      	ldrh	r3, [r3, #0]
 8001502:	827b      	strh	r3, [r7, #18]

        if ((wEPVal & USB_EP_SETUP) != 0U)
 8001504:	8a7b      	ldrh	r3, [r7, #18]
 8001506:	f403 6300 	and.w	r3, r3, #2048	; 0x800
 800150a:	2b00      	cmp	r3, #0
 800150c:	d031      	beq.n	8001572 <PCD_EP_ISR_Handler+0x14e>
        {
          /* Get SETUP Packet */
          ep->xfer_count = PCD_GET_EP_RX_CNT(hpcd->Instance, ep->num);
 800150e:	687b      	ldr	r3, [r7, #4]
 8001510:	681b      	ldr	r3, [r3, #0]
 8001512:	f8b3 3050 	ldrh.w	r3, [r3, #80]	; 0x50
 8001516:	b29b      	uxth	r3, r3
 8001518:	461a      	mov	r2, r3
 800151a:	68fb      	ldr	r3, [r7, #12]
 800151c:	781b      	ldrb	r3, [r3, #0]
 800151e:	00db      	lsls	r3, r3, #3
 8001520:	4413      	add	r3, r2
 8001522:	687a      	ldr	r2, [r7, #4]
 8001524:	6812      	ldr	r2, [r2, #0]
 8001526:	4413      	add	r3, r2
 8001528:	f203 4306 	addw	r3, r3, #1030	; 0x406
 800152c:	881b      	ldrh	r3, [r3, #0]
 800152e:	f3c3 0209 	ubfx	r2, r3, #0, #10
 8001532:	68fb      	ldr	r3, [r7, #12]
 8001534:	61da      	str	r2, [r3, #28]

          USB_ReadPMA(hpcd->Instance, (uint8_t *)hpcd->Setup,
 8001536:	687b      	ldr	r3, [r7, #4]
 8001538:	6818      	ldr	r0, [r3, #0]
 800153a:	687b      	ldr	r3, [r7, #4]
 800153c:	f503 710c 	add.w	r1, r3, #560	; 0x230
 8001540:	68fb      	ldr	r3, [r7, #12]
 8001542:	88da      	ldrh	r2, [r3, #6]
                      ep->pmaadress, (uint16_t)ep->xfer_count);
 8001544:	68fb      	ldr	r3, [r7, #12]
 8001546:	69db      	ldr	r3, [r3, #28]
          USB_ReadPMA(hpcd->Instance, (uint8_t *)hpcd->Setup,
 8001548:	b29b      	uxth	r3, r3
 800154a:	f002 fae3 	bl	8003b14 <USB_ReadPMA>

          /* SETUP bit kept frozen while CTR_RX = 1 */
          PCD_CLEAR_RX_EP_CTR(hpcd->Instance, PCD_ENDP0);
 800154e:	687b      	ldr	r3, [r7, #4]
 8001550:	681b      	ldr	r3, [r3, #0]
 8001552:	881b      	ldrh	r3, [r3, #0]
 8001554:	b29a      	uxth	r2, r3
 8001556:	f640 738f 	movw	r3, #3983	; 0xf8f
 800155a:	4013      	ands	r3, r2
 800155c:	b29c      	uxth	r4, r3
 800155e:	687b      	ldr	r3, [r7, #4]
 8001560:	681b      	ldr	r3, [r3, #0]
 8001562:	f044 0280 	orr.w	r2, r4, #128	; 0x80
 8001566:	b292      	uxth	r2, r2
 8001568:	801a      	strh	r2, [r3, #0]

          /* Process SETUP Packet*/
#if (USE_HAL_PCD_REGISTER_CALLBACKS == 1U)
          hpcd->SetupStageCallback(hpcd);
#else
          HAL_PCD_SetupStageCallback(hpcd);
 800156a:	6878      	ldr	r0, [r7, #4]
 800156c:	f004 fa54 	bl	8005a18 <HAL_PCD_SetupStageCallback>
 8001570:	e1d2      	b.n	8001918 <PCD_EP_ISR_Handler+0x4f4>
#endif /* USE_HAL_PCD_REGISTER_CALLBACKS */
        }

        else if ((wEPVal & USB_EP_CTR_RX) != 0U)
 8001572:	f9b7 3012 	ldrsh.w	r3, [r7, #18]
 8001576:	2b00      	cmp	r3, #0
 8001578:	f280 81ce 	bge.w	8001918 <PCD_EP_ISR_Handler+0x4f4>
        {
          PCD_CLEAR_RX_EP_CTR(hpcd->Instance, PCD_ENDP0);
 800157c:	687b      	ldr	r3, [r7, #4]
 800157e:	681b      	ldr	r3, [r3, #0]
 8001580:	881b      	ldrh	r3, [r3, #0]
 8001582:	b29a      	uxth	r2, r3
 8001584:	f640 738f 	movw	r3, #3983	; 0xf8f
 8001588:	4013      	ands	r3, r2
 800158a:	b29c      	uxth	r4, r3
 800158c:	687b      	ldr	r3, [r7, #4]
 800158e:	681b      	ldr	r3, [r3, #0]
 8001590:	f044 0280 	orr.w	r2, r4, #128	; 0x80
 8001594:	b292      	uxth	r2, r2
 8001596:	801a      	strh	r2, [r3, #0]

          /* Get Control Data OUT Packet */
          ep->xfer_count = PCD_GET_EP_RX_CNT(hpcd->Instance, ep->num);
 8001598:	687b      	ldr	r3, [r7, #4]
 800159a:	681b      	ldr	r3, [r3, #0]
 800159c:	f8b3 3050 	ldrh.w	r3, [r3, #80]	; 0x50
 80015a0:	b29b      	uxth	r3, r3
 80015a2:	461a      	mov	r2, r3
 80015a4:	68fb      	ldr	r3, [r7, #12]
 80015a6:	781b      	ldrb	r3, [r3, #0]
 80015a8:	00db      	lsls	r3, r3, #3
 80015aa:	4413      	add	r3, r2
 80015ac:	687a      	ldr	r2, [r7, #4]
 80015ae:	6812      	ldr	r2, [r2, #0]
 80015b0:	4413      	add	r3, r2
 80015b2:	f203 4306 	addw	r3, r3, #1030	; 0x406
 80015b6:	881b      	ldrh	r3, [r3, #0]
 80015b8:	f3c3 0209 	ubfx	r2, r3, #0, #10
 80015bc:	68fb      	ldr	r3, [r7, #12]
 80015be:	61da      	str	r2, [r3, #28]

          if ((ep->xfer_count != 0U) && (ep->xfer_buff != 0U))
 80015c0:	68fb      	ldr	r3, [r7, #12]
 80015c2:	69db      	ldr	r3, [r3, #28]
 80015c4:	2b00      	cmp	r3, #0
 80015c6:	d019      	beq.n	80015fc <PCD_EP_ISR_Handler+0x1d8>
 80015c8:	68fb      	ldr	r3, [r7, #12]
 80015ca:	695b      	ldr	r3, [r3, #20]
 80015cc:	2b00      	cmp	r3, #0
 80015ce:	d015      	beq.n	80015fc <PCD_EP_ISR_Handler+0x1d8>
          {
            USB_ReadPMA(hpcd->Instance, ep->xfer_buff,
 80015d0:	687b      	ldr	r3, [r7, #4]
 80015d2:	6818      	ldr	r0, [r3, #0]
 80015d4:	68fb      	ldr	r3, [r7, #12]
 80015d6:	6959      	ldr	r1, [r3, #20]
 80015d8:	68fb      	ldr	r3, [r7, #12]
 80015da:	88da      	ldrh	r2, [r3, #6]
                        ep->pmaadress, (uint16_t)ep->xfer_count);
 80015dc:	68fb      	ldr	r3, [r7, #12]
 80015de:	69db      	ldr	r3, [r3, #28]
            USB_ReadPMA(hpcd->Instance, ep->xfer_buff,
 80015e0:	b29b      	uxth	r3, r3
 80015e2:	f002 fa97 	bl	8003b14 <USB_ReadPMA>

            ep->xfer_buff += ep->xfer_count;
 80015e6:	68fb      	ldr	r3, [r7, #12]
 80015e8:	695a      	ldr	r2, [r3, #20]
 80015ea:	68fb      	ldr	r3, [r7, #12]
 80015ec:	69db      	ldr	r3, [r3, #28]
 80015ee:	441a      	add	r2, r3
 80015f0:	68fb      	ldr	r3, [r7, #12]
 80015f2:	615a      	str	r2, [r3, #20]

            /* Process Control Data OUT Packet */
#if (USE_HAL_PCD_REGISTER_CALLBACKS == 1U)
            hpcd->DataOutStageCallback(hpcd, 0U);
#else
            HAL_PCD_DataOutStageCallback(hpcd, 0U);
 80015f4:	2100      	movs	r1, #0
 80015f6:	6878      	ldr	r0, [r7, #4]
 80015f8:	f004 fa20 	bl	8005a3c <HAL_PCD_DataOutStageCallback>
#endif /* USE_HAL_PCD_REGISTER_CALLBACKS */
          }

          PCD_SET_EP_RX_CNT(hpcd->Instance, PCD_ENDP0, ep->maxpacket);
 80015fc:	687b      	ldr	r3, [r7, #4]
 80015fe:	681b      	ldr	r3, [r3, #0]
 8001600:	461c      	mov	r4, r3
 8001602:	687b      	ldr	r3, [r7, #4]
 8001604:	681b      	ldr	r3, [r3, #0]
 8001606:	f8b3 3050 	ldrh.w	r3, [r3, #80]	; 0x50
 800160a:	b29b      	uxth	r3, r3
 800160c:	441c      	add	r4, r3
 800160e:	f204 4306 	addw	r3, r4, #1030	; 0x406
 8001612:	461c      	mov	r4, r3
 8001614:	68fb      	ldr	r3, [r7, #12]
 8001616:	691b      	ldr	r3, [r3, #16]
 8001618:	2b00      	cmp	r3, #0
 800161a:	d10e      	bne.n	800163a <PCD_EP_ISR_Handler+0x216>
 800161c:	8823      	ldrh	r3, [r4, #0]
 800161e:	b29b      	uxth	r3, r3
 8001620:	f423 43f8 	bic.w	r3, r3, #31744	; 0x7c00
 8001624:	b29b      	uxth	r3, r3
 8001626:	8023      	strh	r3, [r4, #0]
 8001628:	8823      	ldrh	r3, [r4, #0]
 800162a:	b29b      	uxth	r3, r3
 800162c:	ea6f 4343 	mvn.w	r3, r3, lsl #17
 8001630:	ea6f 4353 	mvn.w	r3, r3, lsr #17
 8001634:	b29b      	uxth	r3, r3
 8001636:	8023      	strh	r3, [r4, #0]
 8001638:	e02d      	b.n	8001696 <PCD_EP_ISR_Handler+0x272>
 800163a:	68fb      	ldr	r3, [r7, #12]
 800163c:	691b      	ldr	r3, [r3, #16]
 800163e:	2b3e      	cmp	r3, #62	; 0x3e
 8001640:	d812      	bhi.n	8001668 <PCD_EP_ISR_Handler+0x244>
 8001642:	68fb      	ldr	r3, [r7, #12]
 8001644:	691b      	ldr	r3, [r3, #16]
 8001646:	085b      	lsrs	r3, r3, #1
 8001648:	61bb      	str	r3, [r7, #24]
 800164a:	68fb      	ldr	r3, [r7, #12]
 800164c:	691b      	ldr	r3, [r3, #16]
 800164e:	f003 0301 	and.w	r3, r3, #1
 8001652:	2b00      	cmp	r3, #0
 8001654:	d002      	beq.n	800165c <PCD_EP_ISR_Handler+0x238>
 8001656:	69bb      	ldr	r3, [r7, #24]
 8001658:	3301      	adds	r3, #1
 800165a:	61bb      	str	r3, [r7, #24]
 800165c:	69bb      	ldr	r3, [r7, #24]
 800165e:	b29b      	uxth	r3, r3
 8001660:	029b      	lsls	r3, r3, #10
 8001662:	b29b      	uxth	r3, r3
 8001664:	8023      	strh	r3, [r4, #0]
 8001666:	e016      	b.n	8001696 <PCD_EP_ISR_Handler+0x272>
 8001668:	68fb      	ldr	r3, [r7, #12]
 800166a:	691b      	ldr	r3, [r3, #16]
 800166c:	095b      	lsrs	r3, r3, #5
 800166e:	61bb      	str	r3, [r7, #24]
 8001670:	68fb      	ldr	r3, [r7, #12]
 8001672:	691b      	ldr	r3, [r3, #16]
 8001674:	f003 031f 	and.w	r3, r3, #31
 8001678:	2b00      	cmp	r3, #0
 800167a:	d102      	bne.n	8001682 <PCD_EP_ISR_Handler+0x25e>
 800167c:	69bb      	ldr	r3, [r7, #24]
 800167e:	3b01      	subs	r3, #1
 8001680:	61bb      	str	r3, [r7, #24]
 8001682:	69bb      	ldr	r3, [r7, #24]
 8001684:	b29b      	uxth	r3, r3
 8001686:	029b      	lsls	r3, r3, #10
 8001688:	b29b      	uxth	r3, r3
 800168a:	ea6f 4343 	mvn.w	r3, r3, lsl #17
 800168e:	ea6f 4353 	mvn.w	r3, r3, lsr #17
 8001692:	b29b      	uxth	r3, r3
 8001694:	8023      	strh	r3, [r4, #0]
          PCD_SET_EP_RX_STATUS(hpcd->Instance, PCD_ENDP0, USB_EP_RX_VALID);
 8001696:	687b      	ldr	r3, [r7, #4]
 8001698:	681b      	ldr	r3, [r3, #0]
 800169a:	881b      	ldrh	r3, [r3, #0]
 800169c:	b29b      	uxth	r3, r3
 800169e:	f423 4380 	bic.w	r3, r3, #16384	; 0x4000
 80016a2:	f023 0370 	bic.w	r3, r3, #112	; 0x70
 80016a6:	b29c      	uxth	r4, r3
 80016a8:	f484 5380 	eor.w	r3, r4, #4096	; 0x1000
 80016ac:	b29c      	uxth	r4, r3
 80016ae:	f484 5300 	eor.w	r3, r4, #8192	; 0x2000
 80016b2:	b29c      	uxth	r4, r3
 80016b4:	687b      	ldr	r3, [r7, #4]
 80016b6:	681a      	ldr	r2, [r3, #0]
 80016b8:	4b9e      	ldr	r3, [pc, #632]	; (8001934 <PCD_EP_ISR_Handler+0x510>)
 80016ba:	4323      	orrs	r3, r4
 80016bc:	b29b      	uxth	r3, r3
 80016be:	8013      	strh	r3, [r2, #0]
 80016c0:	e12a      	b.n	8001918 <PCD_EP_ISR_Handler+0x4f4>
    else
    {
      /* Decode and service non control endpoints interrupt */

      /* process related endpoint register */
      wEPVal = PCD_GET_ENDPOINT(hpcd->Instance, epindex);
 80016c2:	687b      	ldr	r3, [r7, #4]
 80016c4:	681b      	ldr	r3, [r3, #0]
 80016c6:	461a      	mov	r2, r3
 80016c8:	7d7b      	ldrb	r3, [r7, #21]
 80016ca:	009b      	lsls	r3, r3, #2
 80016cc:	4413      	add	r3, r2
 80016ce:	881b      	ldrh	r3, [r3, #0]
 80016d0:	827b      	strh	r3, [r7, #18]
      if ((wEPVal & USB_EP_CTR_RX) != 0U)
 80016d2:	f9b7 3012 	ldrsh.w	r3, [r7, #18]
 80016d6:	2b00      	cmp	r3, #0
 80016d8:	f280 80cb 	bge.w	8001872 <PCD_EP_ISR_Handler+0x44e>
      {
        /* clear int flag */
        PCD_CLEAR_RX_EP_CTR(hpcd->Instance, epindex);
 80016dc:	687b      	ldr	r3, [r7, #4]
 80016de:	681b      	ldr	r3, [r3, #0]
 80016e0:	461a      	mov	r2, r3
 80016e2:	7d7b      	ldrb	r3, [r7, #21]
 80016e4:	009b      	lsls	r3, r3, #2
 80016e6:	4413      	add	r3, r2
 80016e8:	881b      	ldrh	r3, [r3, #0]
 80016ea:	b29a      	uxth	r2, r3
 80016ec:	f640 738f 	movw	r3, #3983	; 0xf8f
 80016f0:	4013      	ands	r3, r2
 80016f2:	b29c      	uxth	r4, r3
 80016f4:	687b      	ldr	r3, [r7, #4]
 80016f6:	681b      	ldr	r3, [r3, #0]
 80016f8:	461a      	mov	r2, r3
 80016fa:	7d7b      	ldrb	r3, [r7, #21]
 80016fc:	009b      	lsls	r3, r3, #2
 80016fe:	4413      	add	r3, r2
 8001700:	f044 0280 	orr.w	r2, r4, #128	; 0x80
 8001704:	b292      	uxth	r2, r2
 8001706:	801a      	strh	r2, [r3, #0]
        ep = &hpcd->OUT_ep[epindex];
 8001708:	7d7b      	ldrb	r3, [r7, #21]
 800170a:	015b      	lsls	r3, r3, #5
 800170c:	f503 7394 	add.w	r3, r3, #296	; 0x128
 8001710:	687a      	ldr	r2, [r7, #4]
 8001712:	4413      	add	r3, r2
 8001714:	60fb      	str	r3, [r7, #12]

        /* OUT double Buffering */
        if (ep->doublebuffer == 0U)
 8001716:	68fb      	ldr	r3, [r7, #12]
 8001718:	7b1b      	ldrb	r3, [r3, #12]
 800171a:	2b00      	cmp	r3, #0
 800171c:	d11f      	bne.n	800175e <PCD_EP_ISR_Handler+0x33a>
        {
          count = (uint16_t)PCD_GET_EP_RX_CNT(hpcd->Instance, ep->num);
 800171e:	687b      	ldr	r3, [r7, #4]
 8001720:	681b      	ldr	r3, [r3, #0]
 8001722:	f8b3 3050 	ldrh.w	r3, [r3, #80]	; 0x50
 8001726:	b29b      	uxth	r3, r3
 8001728:	461a      	mov	r2, r3
 800172a:	68fb      	ldr	r3, [r7, #12]
 800172c:	781b      	ldrb	r3, [r3, #0]
 800172e:	00db      	lsls	r3, r3, #3
 8001730:	4413      	add	r3, r2
 8001732:	687a      	ldr	r2, [r7, #4]
 8001734:	6812      	ldr	r2, [r2, #0]
 8001736:	4413      	add	r3, r2
 8001738:	f203 4306 	addw	r3, r3, #1030	; 0x406
 800173c:	881b      	ldrh	r3, [r3, #0]
 800173e:	f3c3 0309 	ubfx	r3, r3, #0, #10
 8001742:	83fb      	strh	r3, [r7, #30]
          if (count != 0U)
 8001744:	8bfb      	ldrh	r3, [r7, #30]
 8001746:	2b00      	cmp	r3, #0
 8001748:	d06e      	beq.n	8001828 <PCD_EP_ISR_Handler+0x404>
          {
            USB_ReadPMA(hpcd->Instance, ep->xfer_buff, ep->pmaadress, count);
 800174a:	687b      	ldr	r3, [r7, #4]
 800174c:	6818      	ldr	r0, [r3, #0]
 800174e:	68fb      	ldr	r3, [r7, #12]
 8001750:	6959      	ldr	r1, [r3, #20]
 8001752:	68fb      	ldr	r3, [r7, #12]
 8001754:	88da      	ldrh	r2, [r3, #6]
 8001756:	8bfb      	ldrh	r3, [r7, #30]
 8001758:	f002 f9dc 	bl	8003b14 <USB_ReadPMA>
 800175c:	e064      	b.n	8001828 <PCD_EP_ISR_Handler+0x404>
          }
        }
        else
        {
          /* free EP OUT Buffer */
          PCD_FreeUserBuffer(hpcd->Instance, ep->num, 0U);
 800175e:	687b      	ldr	r3, [r7, #4]
 8001760:	681b      	ldr	r3, [r3, #0]
 8001762:	461a      	mov	r2, r3
 8001764:	68fb      	ldr	r3, [r7, #12]
 8001766:	781b      	ldrb	r3, [r3, #0]
 8001768:	009b      	lsls	r3, r3, #2
 800176a:	4413      	add	r3, r2
 800176c:	881b      	ldrh	r3, [r3, #0]
 800176e:	b29b      	uxth	r3, r3
 8001770:	f423 43e0 	bic.w	r3, r3, #28672	; 0x7000
 8001774:	f023 0370 	bic.w	r3, r3, #112	; 0x70
 8001778:	b29c      	uxth	r4, r3
 800177a:	687b      	ldr	r3, [r7, #4]
 800177c:	681b      	ldr	r3, [r3, #0]
 800177e:	461a      	mov	r2, r3
 8001780:	68fb      	ldr	r3, [r7, #12]
 8001782:	781b      	ldrb	r3, [r3, #0]
 8001784:	009b      	lsls	r3, r3, #2
 8001786:	441a      	add	r2, r3
 8001788:	4b6b      	ldr	r3, [pc, #428]	; (8001938 <PCD_EP_ISR_Handler+0x514>)
 800178a:	4323      	orrs	r3, r4
 800178c:	b29b      	uxth	r3, r3
 800178e:	8013      	strh	r3, [r2, #0]

          if ((PCD_GET_ENDPOINT(hpcd->Instance, ep->num) & USB_EP_DTOG_RX) != 0U)
 8001790:	687b      	ldr	r3, [r7, #4]
 8001792:	681b      	ldr	r3, [r3, #0]
 8001794:	461a      	mov	r2, r3
 8001796:	68fb      	ldr	r3, [r7, #12]
 8001798:	781b      	ldrb	r3, [r3, #0]
 800179a:	009b      	lsls	r3, r3, #2
 800179c:	4413      	add	r3, r2
 800179e:	881b      	ldrh	r3, [r3, #0]
 80017a0:	b29b      	uxth	r3, r3
 80017a2:	f403 4380 	and.w	r3, r3, #16384	; 0x4000
 80017a6:	2b00      	cmp	r3, #0
 80017a8:	d01f      	beq.n	80017ea <PCD_EP_ISR_Handler+0x3c6>
          {
            /* read from endpoint BUF0Addr buffer */
            count = (uint16_t)PCD_GET_EP_DBUF0_CNT(hpcd->Instance, ep->num);
 80017aa:	687b      	ldr	r3, [r7, #4]
 80017ac:	681b      	ldr	r3, [r3, #0]
 80017ae:	f8b3 3050 	ldrh.w	r3, [r3, #80]	; 0x50
 80017b2:	b29b      	uxth	r3, r3
 80017b4:	461a      	mov	r2, r3
 80017b6:	68fb      	ldr	r3, [r7, #12]
 80017b8:	781b      	ldrb	r3, [r3, #0]
 80017ba:	00db      	lsls	r3, r3, #3
 80017bc:	4413      	add	r3, r2
 80017be:	687a      	ldr	r2, [r7, #4]
 80017c0:	6812      	ldr	r2, [r2, #0]
 80017c2:	4413      	add	r3, r2
 80017c4:	f203 4302 	addw	r3, r3, #1026	; 0x402
 80017c8:	881b      	ldrh	r3, [r3, #0]
 80017ca:	f3c3 0309 	ubfx	r3, r3, #0, #10
 80017ce:	83fb      	strh	r3, [r7, #30]
            if (count != 0U)
 80017d0:	8bfb      	ldrh	r3, [r7, #30]
 80017d2:	2b00      	cmp	r3, #0
 80017d4:	d028      	beq.n	8001828 <PCD_EP_ISR_Handler+0x404>
            {
              USB_ReadPMA(hpcd->Instance, ep->xfer_buff, ep->pmaaddr0, count);
 80017d6:	687b      	ldr	r3, [r7, #4]
 80017d8:	6818      	ldr	r0, [r3, #0]
 80017da:	68fb      	ldr	r3, [r7, #12]
 80017dc:	6959      	ldr	r1, [r3, #20]
 80017de:	68fb      	ldr	r3, [r7, #12]
 80017e0:	891a      	ldrh	r2, [r3, #8]
 80017e2:	8bfb      	ldrh	r3, [r7, #30]
 80017e4:	f002 f996 	bl	8003b14 <USB_ReadPMA>
 80017e8:	e01e      	b.n	8001828 <PCD_EP_ISR_Handler+0x404>
            }
          }
          else
          {
            /* read from endpoint BUF1Addr buffer */
            count = (uint16_t)PCD_GET_EP_DBUF1_CNT(hpcd->Instance, ep->num);
 80017ea:	687b      	ldr	r3, [r7, #4]
 80017ec:	681b      	ldr	r3, [r3, #0]
 80017ee:	f8b3 3050 	ldrh.w	r3, [r3, #80]	; 0x50
 80017f2:	b29b      	uxth	r3, r3
 80017f4:	461a      	mov	r2, r3
 80017f6:	68fb      	ldr	r3, [r7, #12]
 80017f8:	781b      	ldrb	r3, [r3, #0]
 80017fa:	00db      	lsls	r3, r3, #3
 80017fc:	4413      	add	r3, r2
 80017fe:	687a      	ldr	r2, [r7, #4]
 8001800:	6812      	ldr	r2, [r2, #0]
 8001802:	4413      	add	r3, r2
 8001804:	f203 4306 	addw	r3, r3, #1030	; 0x406
 8001808:	881b      	ldrh	r3, [r3, #0]
 800180a:	f3c3 0309 	ubfx	r3, r3, #0, #10
 800180e:	83fb      	strh	r3, [r7, #30]
            if (count != 0U)
 8001810:	8bfb      	ldrh	r3, [r7, #30]
 8001812:	2b00      	cmp	r3, #0
 8001814:	d008      	beq.n	8001828 <PCD_EP_ISR_Handler+0x404>
            {
              USB_ReadPMA(hpcd->Instance, ep->xfer_buff, ep->pmaaddr1, count);
 8001816:	687b      	ldr	r3, [r7, #4]
 8001818:	6818      	ldr	r0, [r3, #0]
 800181a:	68fb      	ldr	r3, [r7, #12]
 800181c:	6959      	ldr	r1, [r3, #20]
 800181e:	68fb      	ldr	r3, [r7, #12]
 8001820:	895a      	ldrh	r2, [r3, #10]
 8001822:	8bfb      	ldrh	r3, [r7, #30]
 8001824:	f002 f976 	bl	8003b14 <USB_ReadPMA>
            }
          }
        }
        /* multi-packet on the NON control OUT endpoint */
        ep->xfer_count += count;
 8001828:	68fb      	ldr	r3, [r7, #12]
 800182a:	69da      	ldr	r2, [r3, #28]
 800182c:	8bfb      	ldrh	r3, [r7, #30]
 800182e:	441a      	add	r2, r3
 8001830:	68fb      	ldr	r3, [r7, #12]
 8001832:	61da      	str	r2, [r3, #28]
        ep->xfer_buff += count;
 8001834:	68fb      	ldr	r3, [r7, #12]
 8001836:	695a      	ldr	r2, [r3, #20]
 8001838:	8bfb      	ldrh	r3, [r7, #30]
 800183a:	441a      	add	r2, r3
 800183c:	68fb      	ldr	r3, [r7, #12]
 800183e:	615a      	str	r2, [r3, #20]

        if ((ep->xfer_len == 0U) || (count < ep->maxpacket))
 8001840:	68fb      	ldr	r3, [r7, #12]
 8001842:	699b      	ldr	r3, [r3, #24]
 8001844:	2b00      	cmp	r3, #0
 8001846:	d004      	beq.n	8001852 <PCD_EP_ISR_Handler+0x42e>
 8001848:	8bfa      	ldrh	r2, [r7, #30]
 800184a:	68fb      	ldr	r3, [r7, #12]
 800184c:	691b      	ldr	r3, [r3, #16]
 800184e:	429a      	cmp	r2, r3
 8001850:	d206      	bcs.n	8001860 <PCD_EP_ISR_Handler+0x43c>
        {
          /* RX COMPLETE */
#if (USE_HAL_PCD_REGISTER_CALLBACKS == 1U)
          hpcd->DataOutStageCallback(hpcd, ep->num);
#else
          HAL_PCD_DataOutStageCallback(hpcd, ep->num);
 8001852:	68fb      	ldr	r3, [r7, #12]
 8001854:	781b      	ldrb	r3, [r3, #0]
 8001856:	4619      	mov	r1, r3
 8001858:	6878      	ldr	r0, [r7, #4]
 800185a:	f004 f8ef 	bl	8005a3c <HAL_PCD_DataOutStageCallback>
 800185e:	e008      	b.n	8001872 <PCD_EP_ISR_Handler+0x44e>
#endif /* USE_HAL_PCD_REGISTER_CALLBACKS */
        }
        else
        {
          (void)HAL_PCD_EP_Receive(hpcd, ep->num, ep->xfer_buff, ep->xfer_len);
 8001860:	68fb      	ldr	r3, [r7, #12]
 8001862:	7819      	ldrb	r1, [r3, #0]
 8001864:	68fb      	ldr	r3, [r7, #12]
 8001866:	695a      	ldr	r2, [r3, #20]
 8001868:	68fb      	ldr	r3, [r7, #12]
 800186a:	699b      	ldr	r3, [r3, #24]
 800186c:	6878      	ldr	r0, [r7, #4]
 800186e:	f7ff fca8 	bl	80011c2 <HAL_PCD_EP_Receive>
        }

      } /* if((wEPVal & EP_CTR_RX) */

      if ((wEPVal & USB_EP_CTR_TX) != 0U)
 8001872:	8a7b      	ldrh	r3, [r7, #18]
 8001874:	f003 0380 	and.w	r3, r3, #128	; 0x80
 8001878:	2b00      	cmp	r3, #0
 800187a:	d04d      	beq.n	8001918 <PCD_EP_ISR_Handler+0x4f4>
      {
        ep = &hpcd->IN_ep[epindex];
 800187c:	7d7b      	ldrb	r3, [r7, #21]
 800187e:	015b      	lsls	r3, r3, #5
 8001880:	3328      	adds	r3, #40	; 0x28
 8001882:	687a      	ldr	r2, [r7, #4]
 8001884:	4413      	add	r3, r2
 8001886:	60fb      	str	r3, [r7, #12]

        /* clear int flag */
        PCD_CLEAR_TX_EP_CTR(hpcd->Instance, epindex);
 8001888:	687b      	ldr	r3, [r7, #4]
 800188a:	681b      	ldr	r3, [r3, #0]
 800188c:	461a      	mov	r2, r3
 800188e:	7d7b      	ldrb	r3, [r7, #21]
 8001890:	009b      	lsls	r3, r3, #2
 8001892:	4413      	add	r3, r2
 8001894:	881b      	ldrh	r3, [r3, #0]
 8001896:	b29b      	uxth	r3, r3
 8001898:	f423 43e1 	bic.w	r3, r3, #28800	; 0x7080
 800189c:	f023 0370 	bic.w	r3, r3, #112	; 0x70
 80018a0:	b29c      	uxth	r4, r3
 80018a2:	687b      	ldr	r3, [r7, #4]
 80018a4:	681b      	ldr	r3, [r3, #0]
 80018a6:	461a      	mov	r2, r3
 80018a8:	7d7b      	ldrb	r3, [r7, #21]
 80018aa:	009b      	lsls	r3, r3, #2
 80018ac:	441a      	add	r2, r3
 80018ae:	ea6f 4344 	mvn.w	r3, r4, lsl #17
 80018b2:	ea6f 4353 	mvn.w	r3, r3, lsr #17
 80018b6:	b29b      	uxth	r3, r3
 80018b8:	8013      	strh	r3, [r2, #0]

        /* multi-packet on the NON control IN endpoint */
        ep->xfer_count = PCD_GET_EP_TX_CNT(hpcd->Instance, ep->num);
 80018ba:	687b      	ldr	r3, [r7, #4]
 80018bc:	681b      	ldr	r3, [r3, #0]
 80018be:	f8b3 3050 	ldrh.w	r3, [r3, #80]	; 0x50
 80018c2:	b29b      	uxth	r3, r3
 80018c4:	461a      	mov	r2, r3
 80018c6:	68fb      	ldr	r3, [r7, #12]
 80018c8:	781b      	ldrb	r3, [r3, #0]
 80018ca:	00db      	lsls	r3, r3, #3
 80018cc:	4413      	add	r3, r2
 80018ce:	687a      	ldr	r2, [r7, #4]
 80018d0:	6812      	ldr	r2, [r2, #0]
 80018d2:	4413      	add	r3, r2
 80018d4:	f203 4302 	addw	r3, r3, #1026	; 0x402
 80018d8:	881b      	ldrh	r3, [r3, #0]
 80018da:	f3c3 0209 	ubfx	r2, r3, #0, #10
 80018de:	68fb      	ldr	r3, [r7, #12]
 80018e0:	61da      	str	r2, [r3, #28]
        ep->xfer_buff += ep->xfer_count;
 80018e2:	68fb      	ldr	r3, [r7, #12]
 80018e4:	695a      	ldr	r2, [r3, #20]
 80018e6:	68fb      	ldr	r3, [r7, #12]
 80018e8:	69db      	ldr	r3, [r3, #28]
 80018ea:	441a      	add	r2, r3
 80018ec:	68fb      	ldr	r3, [r7, #12]
 80018ee:	615a      	str	r2, [r3, #20]

        /* Zero Length Packet? */
        if (ep->xfer_len == 0U)
 80018f0:	68fb      	ldr	r3, [r7, #12]
 80018f2:	699b      	ldr	r3, [r3, #24]
 80018f4:	2b00      	cmp	r3, #0
 80018f6:	d106      	bne.n	8001906 <PCD_EP_ISR_Handler+0x4e2>
        {
          /* TX COMPLETE */
#if (USE_HAL_PCD_REGISTER_CALLBACKS == 1U)
          hpcd->DataInStageCallback(hpcd, ep->num);
#else
          HAL_PCD_DataInStageCallback(hpcd, ep->num);
 80018f8:	68fb      	ldr	r3, [r7, #12]
 80018fa:	781b      	ldrb	r3, [r3, #0]
 80018fc:	4619      	mov	r1, r3
 80018fe:	6878      	ldr	r0, [r7, #4]
 8001900:	f004 f8b4 	bl	8005a6c <HAL_PCD_DataInStageCallback>
 8001904:	e008      	b.n	8001918 <PCD_EP_ISR_Handler+0x4f4>
#endif /* USE_HAL_PCD_REGISTER_CALLBACKS */
        }
        else
        {
          (void)HAL_PCD_EP_Transmit(hpcd, ep->num, ep->xfer_buff, ep->xfer_len);
 8001906:	68fb      	ldr	r3, [r7, #12]
 8001908:	7819      	ldrb	r1, [r3, #0]
 800190a:	68fb      	ldr	r3, [r7, #12]
 800190c:	695a      	ldr	r2, [r3, #20]
 800190e:	68fb      	ldr	r3, [r7, #12]
 8001910:	699b      	ldr	r3, [r3, #24]
 8001912:	6878      	ldr	r0, [r7, #4]
 8001914:	f7ff fca4 	bl	8001260 <HAL_PCD_EP_Transmit>
  while ((hpcd->Instance->ISTR & USB_ISTR_CTR) != 0U)
 8001918:	687b      	ldr	r3, [r7, #4]
 800191a:	681b      	ldr	r3, [r3, #0]
 800191c:	f8b3 3044 	ldrh.w	r3, [r3, #68]	; 0x44
 8001920:	b29b      	uxth	r3, r3
 8001922:	b21b      	sxth	r3, r3
 8001924:	2b00      	cmp	r3, #0
 8001926:	f6ff ad82 	blt.w	800142e <PCD_EP_ISR_Handler+0xa>
        }
      }
    }
  }
  return HAL_OK;
 800192a:	2300      	movs	r3, #0
}
 800192c:	4618      	mov	r0, r3
 800192e:	3724      	adds	r7, #36	; 0x24
 8001930:	46bd      	mov	sp, r7
 8001932:	bd90      	pop	{r4, r7, pc}
 8001934:	ffff8080 	.word	0xffff8080
 8001938:	ffff80c0 	.word	0xffff80c0

0800193c <HAL_PCDEx_PMAConfig>:

HAL_StatusTypeDef  HAL_PCDEx_PMAConfig(PCD_HandleTypeDef *hpcd,
                                       uint16_t ep_addr,
                                       uint16_t ep_kind,
                                       uint32_t pmaadress)
{
 800193c:	b480      	push	{r7}
 800193e:	b087      	sub	sp, #28
 8001940:	af00      	add	r7, sp, #0
 8001942:	60f8      	str	r0, [r7, #12]
 8001944:	607b      	str	r3, [r7, #4]
 8001946:	460b      	mov	r3, r1
 8001948:	817b      	strh	r3, [r7, #10]
 800194a:	4613      	mov	r3, r2
 800194c:	813b      	strh	r3, [r7, #8]
  PCD_EPTypeDef *ep;

  /* initialize ep structure*/
  if ((0x80U & ep_addr) == 0x80U)
 800194e:	897b      	ldrh	r3, [r7, #10]
 8001950:	f003 0380 	and.w	r3, r3, #128	; 0x80
 8001954:	b29b      	uxth	r3, r3
 8001956:	2b00      	cmp	r3, #0
 8001958:	d008      	beq.n	800196c <HAL_PCDEx_PMAConfig+0x30>
  {
    ep = &hpcd->IN_ep[ep_addr & EP_ADDR_MSK];
 800195a:	897b      	ldrh	r3, [r7, #10]
 800195c:	f003 0307 	and.w	r3, r3, #7
 8001960:	015b      	lsls	r3, r3, #5
 8001962:	3328      	adds	r3, #40	; 0x28
 8001964:	68fa      	ldr	r2, [r7, #12]
 8001966:	4413      	add	r3, r2
 8001968:	617b      	str	r3, [r7, #20]
 800196a:	e006      	b.n	800197a <HAL_PCDEx_PMAConfig+0x3e>
  }
  else
  {
    ep = &hpcd->OUT_ep[ep_addr];
 800196c:	897b      	ldrh	r3, [r7, #10]
 800196e:	015b      	lsls	r3, r3, #5
 8001970:	f503 7394 	add.w	r3, r3, #296	; 0x128
 8001974:	68fa      	ldr	r2, [r7, #12]
 8001976:	4413      	add	r3, r2
 8001978:	617b      	str	r3, [r7, #20]
  }

  /* Here we check if the endpoint is single or double Buffer*/
  if (ep_kind == PCD_SNG_BUF)
 800197a:	893b      	ldrh	r3, [r7, #8]
 800197c:	2b00      	cmp	r3, #0
 800197e:	d107      	bne.n	8001990 <HAL_PCDEx_PMAConfig+0x54>
  {
    /* Single Buffer */
    ep->doublebuffer = 0U;
 8001980:	697b      	ldr	r3, [r7, #20]
 8001982:	2200      	movs	r2, #0
 8001984:	731a      	strb	r2, [r3, #12]
    /* Configure the PMA */
    ep->pmaadress = (uint16_t)pmaadress;
 8001986:	687b      	ldr	r3, [r7, #4]
 8001988:	b29a      	uxth	r2, r3
 800198a:	697b      	ldr	r3, [r7, #20]
 800198c:	80da      	strh	r2, [r3, #6]
 800198e:	e00b      	b.n	80019a8 <HAL_PCDEx_PMAConfig+0x6c>
  }
  else /* USB_DBL_BUF */
  {
    /* Double Buffer Endpoint */
    ep->doublebuffer = 1U;
 8001990:	697b      	ldr	r3, [r7, #20]
 8001992:	2201      	movs	r2, #1
 8001994:	731a      	strb	r2, [r3, #12]
    /* Configure the PMA */
    ep->pmaaddr0 = (uint16_t)(pmaadress & 0xFFFFU);
 8001996:	687b      	ldr	r3, [r7, #4]
 8001998:	b29a      	uxth	r2, r3
 800199a:	697b      	ldr	r3, [r7, #20]
 800199c:	811a      	strh	r2, [r3, #8]
    ep->pmaaddr1 = (uint16_t)((pmaadress & 0xFFFF0000U) >> 16);
 800199e:	687b      	ldr	r3, [r7, #4]
 80019a0:	0c1b      	lsrs	r3, r3, #16
 80019a2:	b29a      	uxth	r2, r3
 80019a4:	697b      	ldr	r3, [r7, #20]
 80019a6:	815a      	strh	r2, [r3, #10]
  }

  return HAL_OK;
 80019a8:	2300      	movs	r3, #0
}
 80019aa:	4618      	mov	r0, r3
 80019ac:	371c      	adds	r7, #28
 80019ae:	46bd      	mov	sp, r7
 80019b0:	f85d 7b04 	ldr.w	r7, [sp], #4
 80019b4:	4770      	bx	lr

080019b6 <HAL_PCDEx_ActivateLPM>:
  * @brief  Activate LPM feature.
  * @param  hpcd PCD handle
  * @retval HAL status
  */
HAL_StatusTypeDef HAL_PCDEx_ActivateLPM(PCD_HandleTypeDef *hpcd)
{
 80019b6:	b480      	push	{r7}
 80019b8:	b085      	sub	sp, #20
 80019ba:	af00      	add	r7, sp, #0
 80019bc:	6078      	str	r0, [r7, #4]

  USB_TypeDef *USBx = hpcd->Instance;
 80019be:	687b      	ldr	r3, [r7, #4]
 80019c0:	681b      	ldr	r3, [r3, #0]
 80019c2:	60fb      	str	r3, [r7, #12]
  hpcd->lpm_active = 1U;
 80019c4:	687b      	ldr	r3, [r7, #4]
 80019c6:	2201      	movs	r2, #1
 80019c8:	f8c3 2268 	str.w	r2, [r3, #616]	; 0x268
  hpcd->LPM_State = LPM_L0;
 80019cc:	687b      	ldr	r3, [r7, #4]
 80019ce:	2200      	movs	r2, #0
 80019d0:	f883 2260 	strb.w	r2, [r3, #608]	; 0x260

  USBx->LPMCSR |= USB_LPMCSR_LMPEN;
 80019d4:	68fb      	ldr	r3, [r7, #12]
 80019d6:	f8b3 3054 	ldrh.w	r3, [r3, #84]	; 0x54
 80019da:	b29b      	uxth	r3, r3
 80019dc:	f043 0301 	orr.w	r3, r3, #1
 80019e0:	b29a      	uxth	r2, r3
 80019e2:	68fb      	ldr	r3, [r7, #12]
 80019e4:	f8a3 2054 	strh.w	r2, [r3, #84]	; 0x54
  USBx->LPMCSR |= USB_LPMCSR_LPMACK;
 80019e8:	68fb      	ldr	r3, [r7, #12]
 80019ea:	f8b3 3054 	ldrh.w	r3, [r3, #84]	; 0x54
 80019ee:	b29b      	uxth	r3, r3
 80019f0:	f043 0302 	orr.w	r3, r3, #2
 80019f4:	b29a      	uxth	r2, r3
 80019f6:	68fb      	ldr	r3, [r7, #12]
 80019f8:	f8a3 2054 	strh.w	r2, [r3, #84]	; 0x54

  return HAL_OK;
 80019fc:	2300      	movs	r3, #0
}
 80019fe:	4618      	mov	r0, r3
 8001a00:	3714      	adds	r7, #20
 8001a02:	46bd      	mov	sp, r7
 8001a04:	f85d 7b04 	ldr.w	r7, [sp], #4
 8001a08:	4770      	bx	lr
	...

08001a0c <HAL_PWREx_ControlVoltageScaling>:
  *        cleared before returning the status. If the flag is not cleared within
  *        50 microseconds, HAL_TIMEOUT status is reported.
  * @retval HAL Status
  */
HAL_StatusTypeDef HAL_PWREx_ControlVoltageScaling(uint32_t VoltageScaling)
{
 8001a0c:	b480      	push	{r7}
 8001a0e:	b085      	sub	sp, #20
 8001a10:	af00      	add	r7, sp, #0
 8001a12:	6078      	str	r0, [r7, #4]
  uint32_t wait_loop_index;

  assert_param(IS_PWR_VOLTAGE_SCALING_RANGE(VoltageScaling));

  if (VoltageScaling == PWR_REGULATOR_VOLTAGE_SCALE1_BOOST)
 8001a14:	687b      	ldr	r3, [r7, #4]
 8001a16:	2b00      	cmp	r3, #0
 8001a18:	d141      	bne.n	8001a9e <HAL_PWREx_ControlVoltageScaling+0x92>
  {
    /* If current range is range 2 */
    if (READ_BIT(PWR->CR1, PWR_CR1_VOS) == PWR_REGULATOR_VOLTAGE_SCALE2)
 8001a1a:	4b4b      	ldr	r3, [pc, #300]	; (8001b48 <HAL_PWREx_ControlVoltageScaling+0x13c>)
 8001a1c:	681b      	ldr	r3, [r3, #0]
 8001a1e:	f403 63c0 	and.w	r3, r3, #1536	; 0x600
 8001a22:	f5b3 6f80 	cmp.w	r3, #1024	; 0x400
 8001a26:	d131      	bne.n	8001a8c <HAL_PWREx_ControlVoltageScaling+0x80>
    {
      /* Make sure Range 1 Boost is enabled */
      CLEAR_BIT(PWR->CR5, PWR_CR5_R1MODE);
 8001a28:	4b47      	ldr	r3, [pc, #284]	; (8001b48 <HAL_PWREx_ControlVoltageScaling+0x13c>)
 8001a2a:	f8d3 3080 	ldr.w	r3, [r3, #128]	; 0x80
 8001a2e:	4a46      	ldr	r2, [pc, #280]	; (8001b48 <HAL_PWREx_ControlVoltageScaling+0x13c>)
 8001a30:	f423 7380 	bic.w	r3, r3, #256	; 0x100
 8001a34:	f8c2 3080 	str.w	r3, [r2, #128]	; 0x80

      /* Set Range 1 */
      MODIFY_REG(PWR->CR1, PWR_CR1_VOS, PWR_REGULATOR_VOLTAGE_SCALE1);
 8001a38:	4b43      	ldr	r3, [pc, #268]	; (8001b48 <HAL_PWREx_ControlVoltageScaling+0x13c>)
 8001a3a:	681b      	ldr	r3, [r3, #0]
 8001a3c:	f423 63c0 	bic.w	r3, r3, #1536	; 0x600
 8001a40:	4a41      	ldr	r2, [pc, #260]	; (8001b48 <HAL_PWREx_ControlVoltageScaling+0x13c>)
 8001a42:	f443 7300 	orr.w	r3, r3, #512	; 0x200
 8001a46:	6013      	str	r3, [r2, #0]

      /* Wait until VOSF is cleared */
      wait_loop_index = ((PWR_FLAG_SETTING_DELAY_US * SystemCoreClock) / 1000000U) + 1U;
 8001a48:	4b40      	ldr	r3, [pc, #256]	; (8001b4c <HAL_PWREx_ControlVoltageScaling+0x140>)
 8001a4a:	681b      	ldr	r3, [r3, #0]
 8001a4c:	2232      	movs	r2, #50	; 0x32
 8001a4e:	fb02 f303 	mul.w	r3, r2, r3
 8001a52:	4a3f      	ldr	r2, [pc, #252]	; (8001b50 <HAL_PWREx_ControlVoltageScaling+0x144>)
 8001a54:	fba2 2303 	umull	r2, r3, r2, r3
 8001a58:	0c9b      	lsrs	r3, r3, #18
 8001a5a:	3301      	adds	r3, #1
 8001a5c:	60fb      	str	r3, [r7, #12]
      while ((HAL_IS_BIT_SET(PWR->SR2, PWR_SR2_VOSF)) && (wait_loop_index != 0U))
 8001a5e:	e002      	b.n	8001a66 <HAL_PWREx_ControlVoltageScaling+0x5a>
      {
        wait_loop_index--;
 8001a60:	68fb      	ldr	r3, [r7, #12]
 8001a62:	3b01      	subs	r3, #1
 8001a64:	60fb      	str	r3, [r7, #12]
      while ((HAL_IS_BIT_SET(PWR->SR2, PWR_SR2_VOSF)) && (wait_loop_index != 0U))
 8001a66:	4b38      	ldr	r3, [pc, #224]	; (8001b48 <HAL_PWREx_ControlVoltageScaling+0x13c>)
 8001a68:	695b      	ldr	r3, [r3, #20]
 8001a6a:	f403 6380 	and.w	r3, r3, #1024	; 0x400
 8001a6e:	f5b3 6f80 	cmp.w	r3, #1024	; 0x400
 8001a72:	d102      	bne.n	8001a7a <HAL_PWREx_ControlVoltageScaling+0x6e>
 8001a74:	68fb      	ldr	r3, [r7, #12]
 8001a76:	2b00      	cmp	r3, #0
 8001a78:	d1f2      	bne.n	8001a60 <HAL_PWREx_ControlVoltageScaling+0x54>
      }
      if (HAL_IS_BIT_SET(PWR->SR2, PWR_SR2_VOSF))
 8001a7a:	4b33      	ldr	r3, [pc, #204]	; (8001b48 <HAL_PWREx_ControlVoltageScaling+0x13c>)
 8001a7c:	695b      	ldr	r3, [r3, #20]
 8001a7e:	f403 6380 	and.w	r3, r3, #1024	; 0x400
 8001a82:	f5b3 6f80 	cmp.w	r3, #1024	; 0x400
 8001a86:	d158      	bne.n	8001b3a <HAL_PWREx_ControlVoltageScaling+0x12e>
      {
        return HAL_TIMEOUT;
 8001a88:	2303      	movs	r3, #3
 8001a8a:	e057      	b.n	8001b3c <HAL_PWREx_ControlVoltageScaling+0x130>
    }
    /* If current range is range 1 normal or boost mode */
    else
    {
      /* Enable Range 1 Boost (no issue if bit already reset) */
      CLEAR_BIT(PWR->CR5, PWR_CR5_R1MODE);
 8001a8c:	4b2e      	ldr	r3, [pc, #184]	; (8001b48 <HAL_PWREx_ControlVoltageScaling+0x13c>)
 8001a8e:	f8d3 3080 	ldr.w	r3, [r3, #128]	; 0x80
 8001a92:	4a2d      	ldr	r2, [pc, #180]	; (8001b48 <HAL_PWREx_ControlVoltageScaling+0x13c>)
 8001a94:	f423 7380 	bic.w	r3, r3, #256	; 0x100
 8001a98:	f8c2 3080 	str.w	r3, [r2, #128]	; 0x80
 8001a9c:	e04d      	b.n	8001b3a <HAL_PWREx_ControlVoltageScaling+0x12e>
    }
  }
  else if (VoltageScaling == PWR_REGULATOR_VOLTAGE_SCALE1)
 8001a9e:	687b      	ldr	r3, [r7, #4]
 8001aa0:	f5b3 7f00 	cmp.w	r3, #512	; 0x200
 8001aa4:	d141      	bne.n	8001b2a <HAL_PWREx_ControlVoltageScaling+0x11e>
  {
    /* If current range is range 2 */
    if (READ_BIT(PWR->CR1, PWR_CR1_VOS) == PWR_REGULATOR_VOLTAGE_SCALE2)
 8001aa6:	4b28      	ldr	r3, [pc, #160]	; (8001b48 <HAL_PWREx_ControlVoltageScaling+0x13c>)
 8001aa8:	681b      	ldr	r3, [r3, #0]
 8001aaa:	f403 63c0 	and.w	r3, r3, #1536	; 0x600
 8001aae:	f5b3 6f80 	cmp.w	r3, #1024	; 0x400
 8001ab2:	d131      	bne.n	8001b18 <HAL_PWREx_ControlVoltageScaling+0x10c>
    {
      /* Make sure Range 1 Boost is disabled */
      SET_BIT(PWR->CR5, PWR_CR5_R1MODE);
 8001ab4:	4b24      	ldr	r3, [pc, #144]	; (8001b48 <HAL_PWREx_ControlVoltageScaling+0x13c>)
 8001ab6:	f8d3 3080 	ldr.w	r3, [r3, #128]	; 0x80
 8001aba:	4a23      	ldr	r2, [pc, #140]	; (8001b48 <HAL_PWREx_ControlVoltageScaling+0x13c>)
 8001abc:	f443 7380 	orr.w	r3, r3, #256	; 0x100
 8001ac0:	f8c2 3080 	str.w	r3, [r2, #128]	; 0x80

      /* Set Range 1 */
      MODIFY_REG(PWR->CR1, PWR_CR1_VOS, PWR_REGULATOR_VOLTAGE_SCALE1);
 8001ac4:	4b20      	ldr	r3, [pc, #128]	; (8001b48 <HAL_PWREx_ControlVoltageScaling+0x13c>)
 8001ac6:	681b      	ldr	r3, [r3, #0]
 8001ac8:	f423 63c0 	bic.w	r3, r3, #1536	; 0x600
 8001acc:	4a1e      	ldr	r2, [pc, #120]	; (8001b48 <HAL_PWREx_ControlVoltageScaling+0x13c>)
 8001ace:	f443 7300 	orr.w	r3, r3, #512	; 0x200
 8001ad2:	6013      	str	r3, [r2, #0]

      /* Wait until VOSF is cleared */
      wait_loop_index = ((PWR_FLAG_SETTING_DELAY_US * SystemCoreClock) / 1000000U) + 1U;
 8001ad4:	4b1d      	ldr	r3, [pc, #116]	; (8001b4c <HAL_PWREx_ControlVoltageScaling+0x140>)
 8001ad6:	681b      	ldr	r3, [r3, #0]
 8001ad8:	2232      	movs	r2, #50	; 0x32
 8001ada:	fb02 f303 	mul.w	r3, r2, r3
 8001ade:	4a1c      	ldr	r2, [pc, #112]	; (8001b50 <HAL_PWREx_ControlVoltageScaling+0x144>)
 8001ae0:	fba2 2303 	umull	r2, r3, r2, r3
 8001ae4:	0c9b      	lsrs	r3, r3, #18
 8001ae6:	3301      	adds	r3, #1
 8001ae8:	60fb      	str	r3, [r7, #12]
      while ((HAL_IS_BIT_SET(PWR->SR2, PWR_SR2_VOSF)) && (wait_loop_index != 0U))
 8001aea:	e002      	b.n	8001af2 <HAL_PWREx_ControlVoltageScaling+0xe6>
      {
        wait_loop_index--;
 8001aec:	68fb      	ldr	r3, [r7, #12]
 8001aee:	3b01      	subs	r3, #1
 8001af0:	60fb      	str	r3, [r7, #12]
      while ((HAL_IS_BIT_SET(PWR->SR2, PWR_SR2_VOSF)) && (wait_loop_index != 0U))
 8001af2:	4b15      	ldr	r3, [pc, #84]	; (8001b48 <HAL_PWREx_ControlVoltageScaling+0x13c>)
 8001af4:	695b      	ldr	r3, [r3, #20]
 8001af6:	f403 6380 	and.w	r3, r3, #1024	; 0x400
 8001afa:	f5b3 6f80 	cmp.w	r3, #1024	; 0x400
 8001afe:	d102      	bne.n	8001b06 <HAL_PWREx_ControlVoltageScaling+0xfa>
 8001b00:	68fb      	ldr	r3, [r7, #12]
 8001b02:	2b00      	cmp	r3, #0
 8001b04:	d1f2      	bne.n	8001aec <HAL_PWREx_ControlVoltageScaling+0xe0>
      }
      if (HAL_IS_BIT_SET(PWR->SR2, PWR_SR2_VOSF))
 8001b06:	4b10      	ldr	r3, [pc, #64]	; (8001b48 <HAL_PWREx_ControlVoltageScaling+0x13c>)
 8001b08:	695b      	ldr	r3, [r3, #20]
 8001b0a:	f403 6380 	and.w	r3, r3, #1024	; 0x400
 8001b0e:	f5b3 6f80 	cmp.w	r3, #1024	; 0x400
 8001b12:	d112      	bne.n	8001b3a <HAL_PWREx_ControlVoltageScaling+0x12e>
      {
        return HAL_TIMEOUT;
 8001b14:	2303      	movs	r3, #3
 8001b16:	e011      	b.n	8001b3c <HAL_PWREx_ControlVoltageScaling+0x130>
    }
     /* If current range is range 1 normal or boost mode */
    else
    {
      /* Disable Range 1 Boost (no issue if bit already set) */
      SET_BIT(PWR->CR5, PWR_CR5_R1MODE);
 8001b18:	4b0b      	ldr	r3, [pc, #44]	; (8001b48 <HAL_PWREx_ControlVoltageScaling+0x13c>)
 8001b1a:	f8d3 3080 	ldr.w	r3, [r3, #128]	; 0x80
 8001b1e:	4a0a      	ldr	r2, [pc, #40]	; (8001b48 <HAL_PWREx_ControlVoltageScaling+0x13c>)
 8001b20:	f443 7380 	orr.w	r3, r3, #256	; 0x100
 8001b24:	f8c2 3080 	str.w	r3, [r2, #128]	; 0x80
 8001b28:	e007      	b.n	8001b3a <HAL_PWREx_ControlVoltageScaling+0x12e>
    }
  }
  else
  {
    /* Set Range 2 */
    MODIFY_REG(PWR->CR1, PWR_CR1_VOS, PWR_REGULATOR_VOLTAGE_SCALE2);
 8001b2a:	4b07      	ldr	r3, [pc, #28]	; (8001b48 <HAL_PWREx_ControlVoltageScaling+0x13c>)
 8001b2c:	681b      	ldr	r3, [r3, #0]
 8001b2e:	f423 63c0 	bic.w	r3, r3, #1536	; 0x600
 8001b32:	4a05      	ldr	r2, [pc, #20]	; (8001b48 <HAL_PWREx_ControlVoltageScaling+0x13c>)
 8001b34:	f443 6380 	orr.w	r3, r3, #1024	; 0x400
 8001b38:	6013      	str	r3, [r2, #0]
    /* No need to wait for VOSF to be cleared for this transition */
    /* PWR_CR5_R1MODE bit setting has no effect in Range 2        */
  }

  return HAL_OK;
 8001b3a:	2300      	movs	r3, #0
}
 8001b3c:	4618      	mov	r0, r3
 8001b3e:	3714      	adds	r7, #20
 8001b40:	46bd      	mov	sp, r7
 8001b42:	f85d 7b04 	ldr.w	r7, [sp], #4
 8001b46:	4770      	bx	lr
 8001b48:	40007000 	.word	0x40007000
 8001b4c:	20000118 	.word	0x20000118
 8001b50:	431bde83 	.word	0x431bde83

08001b54 <HAL_RCC_OscConfig>:
  *         supported by this macro. User should request a transition to HSE Off
  *         first and then HSE On or HSE Bypass.
  * @retval HAL status
  */
HAL_StatusTypeDef HAL_RCC_OscConfig(RCC_OscInitTypeDef  *RCC_OscInitStruct)
{
 8001b54:	b580      	push	{r7, lr}
 8001b56:	b088      	sub	sp, #32
 8001b58:	af00      	add	r7, sp, #0
 8001b5a:	6078      	str	r0, [r7, #4]
  uint32_t tickstart;
  uint32_t temp_sysclksrc;
  uint32_t temp_pllckcfg;

  /* Check Null pointer */
  if (RCC_OscInitStruct == NULL)
 8001b5c:	687b      	ldr	r3, [r7, #4]
 8001b5e:	2b00      	cmp	r3, #0
 8001b60:	d101      	bne.n	8001b66 <HAL_RCC_OscConfig+0x12>
  {
    return HAL_ERROR;
 8001b62:	2301      	movs	r3, #1
 8001b64:	e308      	b.n	8002178 <HAL_RCC_OscConfig+0x624>

  /* Check the parameters */
  assert_param(IS_RCC_OSCILLATORTYPE(RCC_OscInitStruct->OscillatorType));

  /*------------------------------- HSE Configuration ------------------------*/
  if (((RCC_OscInitStruct->OscillatorType) & RCC_OSCILLATORTYPE_HSE) == RCC_OSCILLATORTYPE_HSE)
 8001b66:	687b      	ldr	r3, [r7, #4]
 8001b68:	681b      	ldr	r3, [r3, #0]
 8001b6a:	f003 0301 	and.w	r3, r3, #1
 8001b6e:	2b00      	cmp	r3, #0
 8001b70:	d075      	beq.n	8001c5e <HAL_RCC_OscConfig+0x10a>
  {
    /* Check the parameters */
    assert_param(IS_RCC_HSE(RCC_OscInitStruct->HSEState));

    temp_sysclksrc = __HAL_RCC_GET_SYSCLK_SOURCE();
 8001b72:	4ba3      	ldr	r3, [pc, #652]	; (8001e00 <HAL_RCC_OscConfig+0x2ac>)
 8001b74:	689b      	ldr	r3, [r3, #8]
 8001b76:	f003 030c 	and.w	r3, r3, #12
 8001b7a:	61bb      	str	r3, [r7, #24]
    temp_pllckcfg = __HAL_RCC_GET_PLL_OSCSOURCE();
 8001b7c:	4ba0      	ldr	r3, [pc, #640]	; (8001e00 <HAL_RCC_OscConfig+0x2ac>)
 8001b7e:	68db      	ldr	r3, [r3, #12]
 8001b80:	f003 0303 	and.w	r3, r3, #3
 8001b84:	617b      	str	r3, [r7, #20]

    /* When the HSE is used as system clock or clock source for PLL in these cases it is not allowed to be disabled */
    if (((temp_sysclksrc == RCC_CFGR_SWS_PLL) && (temp_pllckcfg == RCC_PLLSOURCE_HSE)) || (temp_sysclksrc == RCC_CFGR_SWS_HSE))
 8001b86:	69bb      	ldr	r3, [r7, #24]
 8001b88:	2b0c      	cmp	r3, #12
 8001b8a:	d102      	bne.n	8001b92 <HAL_RCC_OscConfig+0x3e>
 8001b8c:	697b      	ldr	r3, [r7, #20]
 8001b8e:	2b03      	cmp	r3, #3
 8001b90:	d002      	beq.n	8001b98 <HAL_RCC_OscConfig+0x44>
 8001b92:	69bb      	ldr	r3, [r7, #24]
 8001b94:	2b08      	cmp	r3, #8
 8001b96:	d10b      	bne.n	8001bb0 <HAL_RCC_OscConfig+0x5c>
    {
      if ((READ_BIT(RCC->CR, RCC_CR_HSERDY) != 0U) && (RCC_OscInitStruct->HSEState == RCC_HSE_OFF))
 8001b98:	4b99      	ldr	r3, [pc, #612]	; (8001e00 <HAL_RCC_OscConfig+0x2ac>)
 8001b9a:	681b      	ldr	r3, [r3, #0]
 8001b9c:	f403 3300 	and.w	r3, r3, #131072	; 0x20000
 8001ba0:	2b00      	cmp	r3, #0
 8001ba2:	d05b      	beq.n	8001c5c <HAL_RCC_OscConfig+0x108>
 8001ba4:	687b      	ldr	r3, [r7, #4]
 8001ba6:	685b      	ldr	r3, [r3, #4]
 8001ba8:	2b00      	cmp	r3, #0
 8001baa:	d157      	bne.n	8001c5c <HAL_RCC_OscConfig+0x108>
      {
        return HAL_ERROR;
 8001bac:	2301      	movs	r3, #1
 8001bae:	e2e3      	b.n	8002178 <HAL_RCC_OscConfig+0x624>
      }
    }
    else
    {
      /* Set the new HSE configuration ---------------------------------------*/
      __HAL_RCC_HSE_CONFIG(RCC_OscInitStruct->HSEState);
 8001bb0:	687b      	ldr	r3, [r7, #4]
 8001bb2:	685b      	ldr	r3, [r3, #4]
 8001bb4:	f5b3 3f80 	cmp.w	r3, #65536	; 0x10000
 8001bb8:	d106      	bne.n	8001bc8 <HAL_RCC_OscConfig+0x74>
 8001bba:	4b91      	ldr	r3, [pc, #580]	; (8001e00 <HAL_RCC_OscConfig+0x2ac>)
 8001bbc:	681b      	ldr	r3, [r3, #0]
 8001bbe:	4a90      	ldr	r2, [pc, #576]	; (8001e00 <HAL_RCC_OscConfig+0x2ac>)
 8001bc0:	f443 3380 	orr.w	r3, r3, #65536	; 0x10000
 8001bc4:	6013      	str	r3, [r2, #0]
 8001bc6:	e01d      	b.n	8001c04 <HAL_RCC_OscConfig+0xb0>
 8001bc8:	687b      	ldr	r3, [r7, #4]
 8001bca:	685b      	ldr	r3, [r3, #4]
 8001bcc:	f5b3 2fa0 	cmp.w	r3, #327680	; 0x50000
 8001bd0:	d10c      	bne.n	8001bec <HAL_RCC_OscConfig+0x98>
 8001bd2:	4b8b      	ldr	r3, [pc, #556]	; (8001e00 <HAL_RCC_OscConfig+0x2ac>)
 8001bd4:	681b      	ldr	r3, [r3, #0]
 8001bd6:	4a8a      	ldr	r2, [pc, #552]	; (8001e00 <HAL_RCC_OscConfig+0x2ac>)
 8001bd8:	f443 2380 	orr.w	r3, r3, #262144	; 0x40000
 8001bdc:	6013      	str	r3, [r2, #0]
 8001bde:	4b88      	ldr	r3, [pc, #544]	; (8001e00 <HAL_RCC_OscConfig+0x2ac>)
 8001be0:	681b      	ldr	r3, [r3, #0]
 8001be2:	4a87      	ldr	r2, [pc, #540]	; (8001e00 <HAL_RCC_OscConfig+0x2ac>)
 8001be4:	f443 3380 	orr.w	r3, r3, #65536	; 0x10000
 8001be8:	6013      	str	r3, [r2, #0]
 8001bea:	e00b      	b.n	8001c04 <HAL_RCC_OscConfig+0xb0>
 8001bec:	4b84      	ldr	r3, [pc, #528]	; (8001e00 <HAL_RCC_OscConfig+0x2ac>)
 8001bee:	681b      	ldr	r3, [r3, #0]
 8001bf0:	4a83      	ldr	r2, [pc, #524]	; (8001e00 <HAL_RCC_OscConfig+0x2ac>)
 8001bf2:	f423 3380 	bic.w	r3, r3, #65536	; 0x10000
 8001bf6:	6013      	str	r3, [r2, #0]
 8001bf8:	4b81      	ldr	r3, [pc, #516]	; (8001e00 <HAL_RCC_OscConfig+0x2ac>)
 8001bfa:	681b      	ldr	r3, [r3, #0]
 8001bfc:	4a80      	ldr	r2, [pc, #512]	; (8001e00 <HAL_RCC_OscConfig+0x2ac>)
 8001bfe:	f423 2380 	bic.w	r3, r3, #262144	; 0x40000
 8001c02:	6013      	str	r3, [r2, #0]

      /* Check the HSE State */
      if (RCC_OscInitStruct->HSEState != RCC_HSE_OFF)
 8001c04:	687b      	ldr	r3, [r7, #4]
 8001c06:	685b      	ldr	r3, [r3, #4]
 8001c08:	2b00      	cmp	r3, #0
 8001c0a:	d013      	beq.n	8001c34 <HAL_RCC_OscConfig+0xe0>
      {
        /* Get Start Tick*/
        tickstart = HAL_GetTick();
 8001c0c:	f7fe fb68 	bl	80002e0 <HAL_GetTick>
 8001c10:	6138      	str	r0, [r7, #16]

        /* Wait till HSE is ready */
        while (READ_BIT(RCC->CR, RCC_CR_HSERDY) == 0U)
 8001c12:	e008      	b.n	8001c26 <HAL_RCC_OscConfig+0xd2>
        {
          if ((HAL_GetTick() - tickstart) > HSE_TIMEOUT_VALUE)
 8001c14:	f7fe fb64 	bl	80002e0 <HAL_GetTick>
 8001c18:	4602      	mov	r2, r0
 8001c1a:	693b      	ldr	r3, [r7, #16]
 8001c1c:	1ad3      	subs	r3, r2, r3
 8001c1e:	2b64      	cmp	r3, #100	; 0x64
 8001c20:	d901      	bls.n	8001c26 <HAL_RCC_OscConfig+0xd2>
          {
            return HAL_TIMEOUT;
 8001c22:	2303      	movs	r3, #3
 8001c24:	e2a8      	b.n	8002178 <HAL_RCC_OscConfig+0x624>
        while (READ_BIT(RCC->CR, RCC_CR_HSERDY) == 0U)
 8001c26:	4b76      	ldr	r3, [pc, #472]	; (8001e00 <HAL_RCC_OscConfig+0x2ac>)
 8001c28:	681b      	ldr	r3, [r3, #0]
 8001c2a:	f403 3300 	and.w	r3, r3, #131072	; 0x20000
 8001c2e:	2b00      	cmp	r3, #0
 8001c30:	d0f0      	beq.n	8001c14 <HAL_RCC_OscConfig+0xc0>
 8001c32:	e014      	b.n	8001c5e <HAL_RCC_OscConfig+0x10a>
        }
      }
      else
      {
        /* Get Start Tick*/
        tickstart = HAL_GetTick();
 8001c34:	f7fe fb54 	bl	80002e0 <HAL_GetTick>
 8001c38:	6138      	str	r0, [r7, #16]

        /* Wait till HSE is disabled */
        while (READ_BIT(RCC->CR, RCC_CR_HSERDY) != 0U)
 8001c3a:	e008      	b.n	8001c4e <HAL_RCC_OscConfig+0xfa>
        {
          if ((HAL_GetTick() - tickstart) > HSE_TIMEOUT_VALUE)
 8001c3c:	f7fe fb50 	bl	80002e0 <HAL_GetTick>
 8001c40:	4602      	mov	r2, r0
 8001c42:	693b      	ldr	r3, [r7, #16]
 8001c44:	1ad3      	subs	r3, r2, r3
 8001c46:	2b64      	cmp	r3, #100	; 0x64
 8001c48:	d901      	bls.n	8001c4e <HAL_RCC_OscConfig+0xfa>
          {
            return HAL_TIMEOUT;
 8001c4a:	2303      	movs	r3, #3
 8001c4c:	e294      	b.n	8002178 <HAL_RCC_OscConfig+0x624>
        while (READ_BIT(RCC->CR, RCC_CR_HSERDY) != 0U)
 8001c4e:	4b6c      	ldr	r3, [pc, #432]	; (8001e00 <HAL_RCC_OscConfig+0x2ac>)
 8001c50:	681b      	ldr	r3, [r3, #0]
 8001c52:	f403 3300 	and.w	r3, r3, #131072	; 0x20000
 8001c56:	2b00      	cmp	r3, #0
 8001c58:	d1f0      	bne.n	8001c3c <HAL_RCC_OscConfig+0xe8>
 8001c5a:	e000      	b.n	8001c5e <HAL_RCC_OscConfig+0x10a>
      if ((READ_BIT(RCC->CR, RCC_CR_HSERDY) != 0U) && (RCC_OscInitStruct->HSEState == RCC_HSE_OFF))
 8001c5c:	bf00      	nop
        }
      }
    }
  }
  /*----------------------------- HSI Configuration --------------------------*/
  if (((RCC_OscInitStruct->OscillatorType) & RCC_OSCILLATORTYPE_HSI) == RCC_OSCILLATORTYPE_HSI)
 8001c5e:	687b      	ldr	r3, [r7, #4]
 8001c60:	681b      	ldr	r3, [r3, #0]
 8001c62:	f003 0302 	and.w	r3, r3, #2
 8001c66:	2b00      	cmp	r3, #0
 8001c68:	d075      	beq.n	8001d56 <HAL_RCC_OscConfig+0x202>
    /* Check the parameters */
    assert_param(IS_RCC_HSI(RCC_OscInitStruct->HSIState));
    assert_param(IS_RCC_HSI_CALIBRATION_VALUE(RCC_OscInitStruct->HSICalibrationValue));

    /* Check if HSI is used as system clock or as PLL source when PLL is selected as system clock */
    temp_sysclksrc = __HAL_RCC_GET_SYSCLK_SOURCE();
 8001c6a:	4b65      	ldr	r3, [pc, #404]	; (8001e00 <HAL_RCC_OscConfig+0x2ac>)
 8001c6c:	689b      	ldr	r3, [r3, #8]
 8001c6e:	f003 030c 	and.w	r3, r3, #12
 8001c72:	61bb      	str	r3, [r7, #24]
    temp_pllckcfg = __HAL_RCC_GET_PLL_OSCSOURCE();
 8001c74:	4b62      	ldr	r3, [pc, #392]	; (8001e00 <HAL_RCC_OscConfig+0x2ac>)
 8001c76:	68db      	ldr	r3, [r3, #12]
 8001c78:	f003 0303 	and.w	r3, r3, #3
 8001c7c:	617b      	str	r3, [r7, #20]
    if (((temp_sysclksrc == RCC_CFGR_SWS_PLL) && (temp_pllckcfg == RCC_PLLSOURCE_HSI)) || (temp_sysclksrc == RCC_CFGR_SWS_HSI))
 8001c7e:	69bb      	ldr	r3, [r7, #24]
 8001c80:	2b0c      	cmp	r3, #12
 8001c82:	d102      	bne.n	8001c8a <HAL_RCC_OscConfig+0x136>
 8001c84:	697b      	ldr	r3, [r7, #20]
 8001c86:	2b02      	cmp	r3, #2
 8001c88:	d002      	beq.n	8001c90 <HAL_RCC_OscConfig+0x13c>
 8001c8a:	69bb      	ldr	r3, [r7, #24]
 8001c8c:	2b04      	cmp	r3, #4
 8001c8e:	d11f      	bne.n	8001cd0 <HAL_RCC_OscConfig+0x17c>
    {
      /* When HSI is used as system clock it will not be disabled */
      if ((READ_BIT(RCC->CR, RCC_CR_HSIRDY) != 0U) && (RCC_OscInitStruct->HSIState == RCC_HSI_OFF))
 8001c90:	4b5b      	ldr	r3, [pc, #364]	; (8001e00 <HAL_RCC_OscConfig+0x2ac>)
 8001c92:	681b      	ldr	r3, [r3, #0]
 8001c94:	f403 6380 	and.w	r3, r3, #1024	; 0x400
 8001c98:	2b00      	cmp	r3, #0
 8001c9a:	d005      	beq.n	8001ca8 <HAL_RCC_OscConfig+0x154>
 8001c9c:	687b      	ldr	r3, [r7, #4]
 8001c9e:	68db      	ldr	r3, [r3, #12]
 8001ca0:	2b00      	cmp	r3, #0
 8001ca2:	d101      	bne.n	8001ca8 <HAL_RCC_OscConfig+0x154>
      {
        return HAL_ERROR;
 8001ca4:	2301      	movs	r3, #1
 8001ca6:	e267      	b.n	8002178 <HAL_RCC_OscConfig+0x624>
      }
      /* Otherwise, just the calibration is allowed */
      else
      {
        /* Adjusts the Internal High Speed oscillator (HSI) calibration value.*/
        __HAL_RCC_HSI_CALIBRATIONVALUE_ADJUST(RCC_OscInitStruct->HSICalibrationValue);
 8001ca8:	4b55      	ldr	r3, [pc, #340]	; (8001e00 <HAL_RCC_OscConfig+0x2ac>)
 8001caa:	685b      	ldr	r3, [r3, #4]
 8001cac:	f023 42fe 	bic.w	r2, r3, #2130706432	; 0x7f000000
 8001cb0:	687b      	ldr	r3, [r7, #4]
 8001cb2:	691b      	ldr	r3, [r3, #16]
 8001cb4:	061b      	lsls	r3, r3, #24
 8001cb6:	4952      	ldr	r1, [pc, #328]	; (8001e00 <HAL_RCC_OscConfig+0x2ac>)
 8001cb8:	4313      	orrs	r3, r2
 8001cba:	604b      	str	r3, [r1, #4]

        /* Adapt Systick interrupt period */
        if (HAL_InitTick(uwTickPrio) != HAL_OK)
 8001cbc:	4b51      	ldr	r3, [pc, #324]	; (8001e04 <HAL_RCC_OscConfig+0x2b0>)
 8001cbe:	681b      	ldr	r3, [r3, #0]
 8001cc0:	4618      	mov	r0, r3
 8001cc2:	f7fe fac1 	bl	8000248 <HAL_InitTick>
 8001cc6:	4603      	mov	r3, r0
 8001cc8:	2b00      	cmp	r3, #0
 8001cca:	d043      	beq.n	8001d54 <HAL_RCC_OscConfig+0x200>
        {
          return HAL_ERROR;
 8001ccc:	2301      	movs	r3, #1
 8001cce:	e253      	b.n	8002178 <HAL_RCC_OscConfig+0x624>
      }
    }
    else
    {
      /* Check the HSI State */
      if (RCC_OscInitStruct->HSIState != RCC_HSI_OFF)
 8001cd0:	687b      	ldr	r3, [r7, #4]
 8001cd2:	68db      	ldr	r3, [r3, #12]
 8001cd4:	2b00      	cmp	r3, #0
 8001cd6:	d023      	beq.n	8001d20 <HAL_RCC_OscConfig+0x1cc>
      {
        /* Enable the Internal High Speed oscillator (HSI). */
        __HAL_RCC_HSI_ENABLE();
 8001cd8:	4b49      	ldr	r3, [pc, #292]	; (8001e00 <HAL_RCC_OscConfig+0x2ac>)
 8001cda:	681b      	ldr	r3, [r3, #0]
 8001cdc:	4a48      	ldr	r2, [pc, #288]	; (8001e00 <HAL_RCC_OscConfig+0x2ac>)
 8001cde:	f443 7380 	orr.w	r3, r3, #256	; 0x100
 8001ce2:	6013      	str	r3, [r2, #0]

        /* Get Start Tick*/
        tickstart = HAL_GetTick();
 8001ce4:	f7fe fafc 	bl	80002e0 <HAL_GetTick>
 8001ce8:	6138      	str	r0, [r7, #16]

        /* Wait till HSI is ready */
        while (READ_BIT(RCC->CR, RCC_CR_HSIRDY) == 0U)
 8001cea:	e008      	b.n	8001cfe <HAL_RCC_OscConfig+0x1aa>
        {
          if ((HAL_GetTick() - tickstart) > HSI_TIMEOUT_VALUE)
 8001cec:	f7fe faf8 	bl	80002e0 <HAL_GetTick>
 8001cf0:	4602      	mov	r2, r0
 8001cf2:	693b      	ldr	r3, [r7, #16]
 8001cf4:	1ad3      	subs	r3, r2, r3
 8001cf6:	2b02      	cmp	r3, #2
 8001cf8:	d901      	bls.n	8001cfe <HAL_RCC_OscConfig+0x1aa>
          {
            return HAL_TIMEOUT;
 8001cfa:	2303      	movs	r3, #3
 8001cfc:	e23c      	b.n	8002178 <HAL_RCC_OscConfig+0x624>
        while (READ_BIT(RCC->CR, RCC_CR_HSIRDY) == 0U)
 8001cfe:	4b40      	ldr	r3, [pc, #256]	; (8001e00 <HAL_RCC_OscConfig+0x2ac>)
 8001d00:	681b      	ldr	r3, [r3, #0]
 8001d02:	f403 6380 	and.w	r3, r3, #1024	; 0x400
 8001d06:	2b00      	cmp	r3, #0
 8001d08:	d0f0      	beq.n	8001cec <HAL_RCC_OscConfig+0x198>
          }
        }

        /* Adjusts the Internal High Speed oscillator (HSI) calibration value.*/
        __HAL_RCC_HSI_CALIBRATIONVALUE_ADJUST(RCC_OscInitStruct->HSICalibrationValue);
 8001d0a:	4b3d      	ldr	r3, [pc, #244]	; (8001e00 <HAL_RCC_OscConfig+0x2ac>)
 8001d0c:	685b      	ldr	r3, [r3, #4]
 8001d0e:	f023 42fe 	bic.w	r2, r3, #2130706432	; 0x7f000000
 8001d12:	687b      	ldr	r3, [r7, #4]
 8001d14:	691b      	ldr	r3, [r3, #16]
 8001d16:	061b      	lsls	r3, r3, #24
 8001d18:	4939      	ldr	r1, [pc, #228]	; (8001e00 <HAL_RCC_OscConfig+0x2ac>)
 8001d1a:	4313      	orrs	r3, r2
 8001d1c:	604b      	str	r3, [r1, #4]
 8001d1e:	e01a      	b.n	8001d56 <HAL_RCC_OscConfig+0x202>
      }
      else
      {
        /* Disable the Internal High Speed oscillator (HSI). */
        __HAL_RCC_HSI_DISABLE();
 8001d20:	4b37      	ldr	r3, [pc, #220]	; (8001e00 <HAL_RCC_OscConfig+0x2ac>)
 8001d22:	681b      	ldr	r3, [r3, #0]
 8001d24:	4a36      	ldr	r2, [pc, #216]	; (8001e00 <HAL_RCC_OscConfig+0x2ac>)
 8001d26:	f423 7380 	bic.w	r3, r3, #256	; 0x100
 8001d2a:	6013      	str	r3, [r2, #0]

        /* Get Start Tick*/
        tickstart = HAL_GetTick();
 8001d2c:	f7fe fad8 	bl	80002e0 <HAL_GetTick>
 8001d30:	6138      	str	r0, [r7, #16]

        /* Wait till HSI is disabled */
        while (READ_BIT(RCC->CR, RCC_CR_HSIRDY) != 0U)
 8001d32:	e008      	b.n	8001d46 <HAL_RCC_OscConfig+0x1f2>
        {
          if ((HAL_GetTick() - tickstart) > HSI_TIMEOUT_VALUE)
 8001d34:	f7fe fad4 	bl	80002e0 <HAL_GetTick>
 8001d38:	4602      	mov	r2, r0
 8001d3a:	693b      	ldr	r3, [r7, #16]
 8001d3c:	1ad3      	subs	r3, r2, r3
 8001d3e:	2b02      	cmp	r3, #2
 8001d40:	d901      	bls.n	8001d46 <HAL_RCC_OscConfig+0x1f2>
          {
            return HAL_TIMEOUT;
 8001d42:	2303      	movs	r3, #3
 8001d44:	e218      	b.n	8002178 <HAL_RCC_OscConfig+0x624>
        while (READ_BIT(RCC->CR, RCC_CR_HSIRDY) != 0U)
 8001d46:	4b2e      	ldr	r3, [pc, #184]	; (8001e00 <HAL_RCC_OscConfig+0x2ac>)
 8001d48:	681b      	ldr	r3, [r3, #0]
 8001d4a:	f403 6380 	and.w	r3, r3, #1024	; 0x400
 8001d4e:	2b00      	cmp	r3, #0
 8001d50:	d1f0      	bne.n	8001d34 <HAL_RCC_OscConfig+0x1e0>
 8001d52:	e000      	b.n	8001d56 <HAL_RCC_OscConfig+0x202>
      if ((READ_BIT(RCC->CR, RCC_CR_HSIRDY) != 0U) && (RCC_OscInitStruct->HSIState == RCC_HSI_OFF))
 8001d54:	bf00      	nop
        }
      }
    }
  }
  /*------------------------------ LSI Configuration -------------------------*/
  if (((RCC_OscInitStruct->OscillatorType) & RCC_OSCILLATORTYPE_LSI) == RCC_OSCILLATORTYPE_LSI)
 8001d56:	687b      	ldr	r3, [r7, #4]
 8001d58:	681b      	ldr	r3, [r3, #0]
 8001d5a:	f003 0308 	and.w	r3, r3, #8
 8001d5e:	2b00      	cmp	r3, #0
 8001d60:	d03c      	beq.n	8001ddc <HAL_RCC_OscConfig+0x288>
  {
    /* Check the parameters */
    assert_param(IS_RCC_LSI(RCC_OscInitStruct->LSIState));

    /* Check the LSI State */
    if(RCC_OscInitStruct->LSIState != RCC_LSI_OFF)
 8001d62:	687b      	ldr	r3, [r7, #4]
 8001d64:	695b      	ldr	r3, [r3, #20]
 8001d66:	2b00      	cmp	r3, #0
 8001d68:	d01c      	beq.n	8001da4 <HAL_RCC_OscConfig+0x250>
    {
      /* Enable the Internal Low Speed oscillator (LSI). */
      __HAL_RCC_LSI_ENABLE();
 8001d6a:	4b25      	ldr	r3, [pc, #148]	; (8001e00 <HAL_RCC_OscConfig+0x2ac>)
 8001d6c:	f8d3 3094 	ldr.w	r3, [r3, #148]	; 0x94
 8001d70:	4a23      	ldr	r2, [pc, #140]	; (8001e00 <HAL_RCC_OscConfig+0x2ac>)
 8001d72:	f043 0301 	orr.w	r3, r3, #1
 8001d76:	f8c2 3094 	str.w	r3, [r2, #148]	; 0x94

      /* Get Start Tick*/
      tickstart = HAL_GetTick();
 8001d7a:	f7fe fab1 	bl	80002e0 <HAL_GetTick>
 8001d7e:	6138      	str	r0, [r7, #16]

      /* Wait till LSI is ready */
      while (READ_BIT(RCC->CSR, RCC_CSR_LSIRDY) == 0U)
 8001d80:	e008      	b.n	8001d94 <HAL_RCC_OscConfig+0x240>
      {
        if ((HAL_GetTick() - tickstart) > LSI_TIMEOUT_VALUE)
 8001d82:	f7fe faad 	bl	80002e0 <HAL_GetTick>
 8001d86:	4602      	mov	r2, r0
 8001d88:	693b      	ldr	r3, [r7, #16]
 8001d8a:	1ad3      	subs	r3, r2, r3
 8001d8c:	2b02      	cmp	r3, #2
 8001d8e:	d901      	bls.n	8001d94 <HAL_RCC_OscConfig+0x240>
        {
          return HAL_TIMEOUT;
 8001d90:	2303      	movs	r3, #3
 8001d92:	e1f1      	b.n	8002178 <HAL_RCC_OscConfig+0x624>
      while (READ_BIT(RCC->CSR, RCC_CSR_LSIRDY) == 0U)
 8001d94:	4b1a      	ldr	r3, [pc, #104]	; (8001e00 <HAL_RCC_OscConfig+0x2ac>)
 8001d96:	f8d3 3094 	ldr.w	r3, [r3, #148]	; 0x94
 8001d9a:	f003 0302 	and.w	r3, r3, #2
 8001d9e:	2b00      	cmp	r3, #0
 8001da0:	d0ef      	beq.n	8001d82 <HAL_RCC_OscConfig+0x22e>
 8001da2:	e01b      	b.n	8001ddc <HAL_RCC_OscConfig+0x288>
      }
    }
    else
    {
      /* Disable the Internal Low Speed oscillator (LSI). */
      __HAL_RCC_LSI_DISABLE();
 8001da4:	4b16      	ldr	r3, [pc, #88]	; (8001e00 <HAL_RCC_OscConfig+0x2ac>)
 8001da6:	f8d3 3094 	ldr.w	r3, [r3, #148]	; 0x94
 8001daa:	4a15      	ldr	r2, [pc, #84]	; (8001e00 <HAL_RCC_OscConfig+0x2ac>)
 8001dac:	f023 0301 	bic.w	r3, r3, #1
 8001db0:	f8c2 3094 	str.w	r3, [r2, #148]	; 0x94

      /* Get Start Tick*/
      tickstart = HAL_GetTick();
 8001db4:	f7fe fa94 	bl	80002e0 <HAL_GetTick>
 8001db8:	6138      	str	r0, [r7, #16]

      /* Wait till LSI is disabled */
      while(READ_BIT(RCC->CSR, RCC_CSR_LSIRDY) != 0U)
 8001dba:	e008      	b.n	8001dce <HAL_RCC_OscConfig+0x27a>
      {
        if((HAL_GetTick() - tickstart) > LSI_TIMEOUT_VALUE)
 8001dbc:	f7fe fa90 	bl	80002e0 <HAL_GetTick>
 8001dc0:	4602      	mov	r2, r0
 8001dc2:	693b      	ldr	r3, [r7, #16]
 8001dc4:	1ad3      	subs	r3, r2, r3
 8001dc6:	2b02      	cmp	r3, #2
 8001dc8:	d901      	bls.n	8001dce <HAL_RCC_OscConfig+0x27a>
        {
          return HAL_TIMEOUT;
 8001dca:	2303      	movs	r3, #3
 8001dcc:	e1d4      	b.n	8002178 <HAL_RCC_OscConfig+0x624>
      while(READ_BIT(RCC->CSR, RCC_CSR_LSIRDY) != 0U)
 8001dce:	4b0c      	ldr	r3, [pc, #48]	; (8001e00 <HAL_RCC_OscConfig+0x2ac>)
 8001dd0:	f8d3 3094 	ldr.w	r3, [r3, #148]	; 0x94
 8001dd4:	f003 0302 	and.w	r3, r3, #2
 8001dd8:	2b00      	cmp	r3, #0
 8001dda:	d1ef      	bne.n	8001dbc <HAL_RCC_OscConfig+0x268>
        }
      }
    }
  }
  /*------------------------------ LSE Configuration -------------------------*/
  if (((RCC_OscInitStruct->OscillatorType) & RCC_OSCILLATORTYPE_LSE) == RCC_OSCILLATORTYPE_LSE)
 8001ddc:	687b      	ldr	r3, [r7, #4]
 8001dde:	681b      	ldr	r3, [r3, #0]
 8001de0:	f003 0304 	and.w	r3, r3, #4
 8001de4:	2b00      	cmp	r3, #0
 8001de6:	f000 80ab 	beq.w	8001f40 <HAL_RCC_OscConfig+0x3ec>
  {
    FlagStatus       pwrclkchanged = RESET;
 8001dea:	2300      	movs	r3, #0
 8001dec:	77fb      	strb	r3, [r7, #31]
    /* Check the parameters */
    assert_param(IS_RCC_LSE(RCC_OscInitStruct->LSEState));

    /* Update LSE configuration in Backup Domain control register    */
    /* Requires to enable write access to Backup Domain if necessary */
    if (__HAL_RCC_PWR_IS_CLK_DISABLED() != 0U)
 8001dee:	4b04      	ldr	r3, [pc, #16]	; (8001e00 <HAL_RCC_OscConfig+0x2ac>)
 8001df0:	6d9b      	ldr	r3, [r3, #88]	; 0x58
 8001df2:	f003 5380 	and.w	r3, r3, #268435456	; 0x10000000
 8001df6:	2b00      	cmp	r3, #0
 8001df8:	d106      	bne.n	8001e08 <HAL_RCC_OscConfig+0x2b4>
 8001dfa:	2301      	movs	r3, #1
 8001dfc:	e005      	b.n	8001e0a <HAL_RCC_OscConfig+0x2b6>
 8001dfe:	bf00      	nop
 8001e00:	40021000 	.word	0x40021000
 8001e04:	20000000 	.word	0x20000000
 8001e08:	2300      	movs	r3, #0
 8001e0a:	2b00      	cmp	r3, #0
 8001e0c:	d00d      	beq.n	8001e2a <HAL_RCC_OscConfig+0x2d6>
    {
      __HAL_RCC_PWR_CLK_ENABLE();
 8001e0e:	4baf      	ldr	r3, [pc, #700]	; (80020cc <HAL_RCC_OscConfig+0x578>)
 8001e10:	6d9b      	ldr	r3, [r3, #88]	; 0x58
 8001e12:	4aae      	ldr	r2, [pc, #696]	; (80020cc <HAL_RCC_OscConfig+0x578>)
 8001e14:	f043 5380 	orr.w	r3, r3, #268435456	; 0x10000000
 8001e18:	6593      	str	r3, [r2, #88]	; 0x58
 8001e1a:	4bac      	ldr	r3, [pc, #688]	; (80020cc <HAL_RCC_OscConfig+0x578>)
 8001e1c:	6d9b      	ldr	r3, [r3, #88]	; 0x58
 8001e1e:	f003 5380 	and.w	r3, r3, #268435456	; 0x10000000
 8001e22:	60fb      	str	r3, [r7, #12]
 8001e24:	68fb      	ldr	r3, [r7, #12]
      pwrclkchanged = SET;
 8001e26:	2301      	movs	r3, #1
 8001e28:	77fb      	strb	r3, [r7, #31]
    }

    if (HAL_IS_BIT_CLR(PWR->CR1, PWR_CR1_DBP))
 8001e2a:	4ba9      	ldr	r3, [pc, #676]	; (80020d0 <HAL_RCC_OscConfig+0x57c>)
 8001e2c:	681b      	ldr	r3, [r3, #0]
 8001e2e:	f403 7380 	and.w	r3, r3, #256	; 0x100
 8001e32:	2b00      	cmp	r3, #0
 8001e34:	d118      	bne.n	8001e68 <HAL_RCC_OscConfig+0x314>
    {
      /* Enable write access to Backup domain */
      SET_BIT(PWR->CR1, PWR_CR1_DBP);
 8001e36:	4ba6      	ldr	r3, [pc, #664]	; (80020d0 <HAL_RCC_OscConfig+0x57c>)
 8001e38:	681b      	ldr	r3, [r3, #0]
 8001e3a:	4aa5      	ldr	r2, [pc, #660]	; (80020d0 <HAL_RCC_OscConfig+0x57c>)
 8001e3c:	f443 7380 	orr.w	r3, r3, #256	; 0x100
 8001e40:	6013      	str	r3, [r2, #0]

      /* Wait for Backup domain Write protection disable */
      tickstart = HAL_GetTick();
 8001e42:	f7fe fa4d 	bl	80002e0 <HAL_GetTick>
 8001e46:	6138      	str	r0, [r7, #16]

      while (HAL_IS_BIT_CLR(PWR->CR1, PWR_CR1_DBP))
 8001e48:	e008      	b.n	8001e5c <HAL_RCC_OscConfig+0x308>
      {
        if ((HAL_GetTick() - tickstart) > RCC_DBP_TIMEOUT_VALUE)
 8001e4a:	f7fe fa49 	bl	80002e0 <HAL_GetTick>
 8001e4e:	4602      	mov	r2, r0
 8001e50:	693b      	ldr	r3, [r7, #16]
 8001e52:	1ad3      	subs	r3, r2, r3
 8001e54:	2b02      	cmp	r3, #2
 8001e56:	d901      	bls.n	8001e5c <HAL_RCC_OscConfig+0x308>
        {
          return HAL_TIMEOUT;
 8001e58:	2303      	movs	r3, #3
 8001e5a:	e18d      	b.n	8002178 <HAL_RCC_OscConfig+0x624>
      while (HAL_IS_BIT_CLR(PWR->CR1, PWR_CR1_DBP))
 8001e5c:	4b9c      	ldr	r3, [pc, #624]	; (80020d0 <HAL_RCC_OscConfig+0x57c>)
 8001e5e:	681b      	ldr	r3, [r3, #0]
 8001e60:	f403 7380 	and.w	r3, r3, #256	; 0x100
 8001e64:	2b00      	cmp	r3, #0
 8001e66:	d0f0      	beq.n	8001e4a <HAL_RCC_OscConfig+0x2f6>
        }
      }
    }

    /* Set the new LSE configuration -----------------------------------------*/
    __HAL_RCC_LSE_CONFIG(RCC_OscInitStruct->LSEState);
 8001e68:	687b      	ldr	r3, [r7, #4]
 8001e6a:	689b      	ldr	r3, [r3, #8]
 8001e6c:	2b01      	cmp	r3, #1
 8001e6e:	d108      	bne.n	8001e82 <HAL_RCC_OscConfig+0x32e>
 8001e70:	4b96      	ldr	r3, [pc, #600]	; (80020cc <HAL_RCC_OscConfig+0x578>)
 8001e72:	f8d3 3090 	ldr.w	r3, [r3, #144]	; 0x90
 8001e76:	4a95      	ldr	r2, [pc, #596]	; (80020cc <HAL_RCC_OscConfig+0x578>)
 8001e78:	f043 0301 	orr.w	r3, r3, #1
 8001e7c:	f8c2 3090 	str.w	r3, [r2, #144]	; 0x90
 8001e80:	e024      	b.n	8001ecc <HAL_RCC_OscConfig+0x378>
 8001e82:	687b      	ldr	r3, [r7, #4]
 8001e84:	689b      	ldr	r3, [r3, #8]
 8001e86:	2b05      	cmp	r3, #5
 8001e88:	d110      	bne.n	8001eac <HAL_RCC_OscConfig+0x358>
 8001e8a:	4b90      	ldr	r3, [pc, #576]	; (80020cc <HAL_RCC_OscConfig+0x578>)
 8001e8c:	f8d3 3090 	ldr.w	r3, [r3, #144]	; 0x90
 8001e90:	4a8e      	ldr	r2, [pc, #568]	; (80020cc <HAL_RCC_OscConfig+0x578>)
 8001e92:	f043 0304 	orr.w	r3, r3, #4
 8001e96:	f8c2 3090 	str.w	r3, [r2, #144]	; 0x90
 8001e9a:	4b8c      	ldr	r3, [pc, #560]	; (80020cc <HAL_RCC_OscConfig+0x578>)
 8001e9c:	f8d3 3090 	ldr.w	r3, [r3, #144]	; 0x90
 8001ea0:	4a8a      	ldr	r2, [pc, #552]	; (80020cc <HAL_RCC_OscConfig+0x578>)
 8001ea2:	f043 0301 	orr.w	r3, r3, #1
 8001ea6:	f8c2 3090 	str.w	r3, [r2, #144]	; 0x90
 8001eaa:	e00f      	b.n	8001ecc <HAL_RCC_OscConfig+0x378>
 8001eac:	4b87      	ldr	r3, [pc, #540]	; (80020cc <HAL_RCC_OscConfig+0x578>)
 8001eae:	f8d3 3090 	ldr.w	r3, [r3, #144]	; 0x90
 8001eb2:	4a86      	ldr	r2, [pc, #536]	; (80020cc <HAL_RCC_OscConfig+0x578>)
 8001eb4:	f023 0301 	bic.w	r3, r3, #1
 8001eb8:	f8c2 3090 	str.w	r3, [r2, #144]	; 0x90
 8001ebc:	4b83      	ldr	r3, [pc, #524]	; (80020cc <HAL_RCC_OscConfig+0x578>)
 8001ebe:	f8d3 3090 	ldr.w	r3, [r3, #144]	; 0x90
 8001ec2:	4a82      	ldr	r2, [pc, #520]	; (80020cc <HAL_RCC_OscConfig+0x578>)
 8001ec4:	f023 0304 	bic.w	r3, r3, #4
 8001ec8:	f8c2 3090 	str.w	r3, [r2, #144]	; 0x90

    /* Check the LSE State */
    if (RCC_OscInitStruct->LSEState != RCC_LSE_OFF)
 8001ecc:	687b      	ldr	r3, [r7, #4]
 8001ece:	689b      	ldr	r3, [r3, #8]
 8001ed0:	2b00      	cmp	r3, #0
 8001ed2:	d016      	beq.n	8001f02 <HAL_RCC_OscConfig+0x3ae>
    {
      /* Get Start Tick*/
      tickstart = HAL_GetTick();
 8001ed4:	f7fe fa04 	bl	80002e0 <HAL_GetTick>
 8001ed8:	6138      	str	r0, [r7, #16]

      /* Wait till LSE is ready */
      while (READ_BIT(RCC->BDCR, RCC_BDCR_LSERDY) == 0U)
 8001eda:	e00a      	b.n	8001ef2 <HAL_RCC_OscConfig+0x39e>
      {
        if((HAL_GetTick() - tickstart) > RCC_LSE_TIMEOUT_VALUE)
 8001edc:	f7fe fa00 	bl	80002e0 <HAL_GetTick>
 8001ee0:	4602      	mov	r2, r0
 8001ee2:	693b      	ldr	r3, [r7, #16]
 8001ee4:	1ad3      	subs	r3, r2, r3
 8001ee6:	f241 3288 	movw	r2, #5000	; 0x1388
 8001eea:	4293      	cmp	r3, r2
 8001eec:	d901      	bls.n	8001ef2 <HAL_RCC_OscConfig+0x39e>
        {
          return HAL_TIMEOUT;
 8001eee:	2303      	movs	r3, #3
 8001ef0:	e142      	b.n	8002178 <HAL_RCC_OscConfig+0x624>
      while (READ_BIT(RCC->BDCR, RCC_BDCR_LSERDY) == 0U)
 8001ef2:	4b76      	ldr	r3, [pc, #472]	; (80020cc <HAL_RCC_OscConfig+0x578>)
 8001ef4:	f8d3 3090 	ldr.w	r3, [r3, #144]	; 0x90
 8001ef8:	f003 0302 	and.w	r3, r3, #2
 8001efc:	2b00      	cmp	r3, #0
 8001efe:	d0ed      	beq.n	8001edc <HAL_RCC_OscConfig+0x388>
 8001f00:	e015      	b.n	8001f2e <HAL_RCC_OscConfig+0x3da>
      }
    }
    else
    {
      /* Get Start Tick*/
      tickstart = HAL_GetTick();
 8001f02:	f7fe f9ed 	bl	80002e0 <HAL_GetTick>
 8001f06:	6138      	str	r0, [r7, #16]

      /* Wait till LSE is disabled */
      while (READ_BIT(RCC->BDCR, RCC_BDCR_LSERDY) != 0U)
 8001f08:	e00a      	b.n	8001f20 <HAL_RCC_OscConfig+0x3cc>
      {
        if((HAL_GetTick() - tickstart) > RCC_LSE_TIMEOUT_VALUE)
 8001f0a:	f7fe f9e9 	bl	80002e0 <HAL_GetTick>
 8001f0e:	4602      	mov	r2, r0
 8001f10:	693b      	ldr	r3, [r7, #16]
 8001f12:	1ad3      	subs	r3, r2, r3
 8001f14:	f241 3288 	movw	r2, #5000	; 0x1388
 8001f18:	4293      	cmp	r3, r2
 8001f1a:	d901      	bls.n	8001f20 <HAL_RCC_OscConfig+0x3cc>
        {
          return HAL_TIMEOUT;
 8001f1c:	2303      	movs	r3, #3
 8001f1e:	e12b      	b.n	8002178 <HAL_RCC_OscConfig+0x624>
      while (READ_BIT(RCC->BDCR, RCC_BDCR_LSERDY) != 0U)
 8001f20:	4b6a      	ldr	r3, [pc, #424]	; (80020cc <HAL_RCC_OscConfig+0x578>)
 8001f22:	f8d3 3090 	ldr.w	r3, [r3, #144]	; 0x90
 8001f26:	f003 0302 	and.w	r3, r3, #2
 8001f2a:	2b00      	cmp	r3, #0
 8001f2c:	d1ed      	bne.n	8001f0a <HAL_RCC_OscConfig+0x3b6>
        }
      }
    }

    /* Restore clock configuration if changed */
    if (pwrclkchanged == SET)
 8001f2e:	7ffb      	ldrb	r3, [r7, #31]
 8001f30:	2b01      	cmp	r3, #1
 8001f32:	d105      	bne.n	8001f40 <HAL_RCC_OscConfig+0x3ec>
    {
      __HAL_RCC_PWR_CLK_DISABLE();
 8001f34:	4b65      	ldr	r3, [pc, #404]	; (80020cc <HAL_RCC_OscConfig+0x578>)
 8001f36:	6d9b      	ldr	r3, [r3, #88]	; 0x58
 8001f38:	4a64      	ldr	r2, [pc, #400]	; (80020cc <HAL_RCC_OscConfig+0x578>)
 8001f3a:	f023 5380 	bic.w	r3, r3, #268435456	; 0x10000000
 8001f3e:	6593      	str	r3, [r2, #88]	; 0x58
    }
  }

  /*------------------------------ HSI48 Configuration -----------------------*/
  if(((RCC_OscInitStruct->OscillatorType) & RCC_OSCILLATORTYPE_HSI48) == RCC_OSCILLATORTYPE_HSI48)
 8001f40:	687b      	ldr	r3, [r7, #4]
 8001f42:	681b      	ldr	r3, [r3, #0]
 8001f44:	f003 0320 	and.w	r3, r3, #32
 8001f48:	2b00      	cmp	r3, #0
 8001f4a:	d03c      	beq.n	8001fc6 <HAL_RCC_OscConfig+0x472>
  {
    /* Check the parameters */
    assert_param(IS_RCC_HSI48(RCC_OscInitStruct->HSI48State));

    /* Check the HSI48 State */
    if(RCC_OscInitStruct->HSI48State != RCC_HSI48_OFF)
 8001f4c:	687b      	ldr	r3, [r7, #4]
 8001f4e:	699b      	ldr	r3, [r3, #24]
 8001f50:	2b00      	cmp	r3, #0
 8001f52:	d01c      	beq.n	8001f8e <HAL_RCC_OscConfig+0x43a>
    {
      /* Enable the Internal Low Speed oscillator (HSI48). */
      __HAL_RCC_HSI48_ENABLE();
 8001f54:	4b5d      	ldr	r3, [pc, #372]	; (80020cc <HAL_RCC_OscConfig+0x578>)
 8001f56:	f8d3 3098 	ldr.w	r3, [r3, #152]	; 0x98
 8001f5a:	4a5c      	ldr	r2, [pc, #368]	; (80020cc <HAL_RCC_OscConfig+0x578>)
 8001f5c:	f043 0301 	orr.w	r3, r3, #1
 8001f60:	f8c2 3098 	str.w	r3, [r2, #152]	; 0x98

      /* Get Start Tick*/
      tickstart = HAL_GetTick();
 8001f64:	f7fe f9bc 	bl	80002e0 <HAL_GetTick>
 8001f68:	6138      	str	r0, [r7, #16]

      /* Wait till HSI48 is ready */
      while(READ_BIT(RCC->CRRCR, RCC_CRRCR_HSI48RDY) == 0U)
 8001f6a:	e008      	b.n	8001f7e <HAL_RCC_OscConfig+0x42a>
      {
        if((HAL_GetTick() - tickstart) > HSI48_TIMEOUT_VALUE)
 8001f6c:	f7fe f9b8 	bl	80002e0 <HAL_GetTick>
 8001f70:	4602      	mov	r2, r0
 8001f72:	693b      	ldr	r3, [r7, #16]
 8001f74:	1ad3      	subs	r3, r2, r3
 8001f76:	2b02      	cmp	r3, #2
 8001f78:	d901      	bls.n	8001f7e <HAL_RCC_OscConfig+0x42a>
        {
          return HAL_TIMEOUT;
 8001f7a:	2303      	movs	r3, #3
 8001f7c:	e0fc      	b.n	8002178 <HAL_RCC_OscConfig+0x624>
      while(READ_BIT(RCC->CRRCR, RCC_CRRCR_HSI48RDY) == 0U)
 8001f7e:	4b53      	ldr	r3, [pc, #332]	; (80020cc <HAL_RCC_OscConfig+0x578>)
 8001f80:	f8d3 3098 	ldr.w	r3, [r3, #152]	; 0x98
 8001f84:	f003 0302 	and.w	r3, r3, #2
 8001f88:	2b00      	cmp	r3, #0
 8001f8a:	d0ef      	beq.n	8001f6c <HAL_RCC_OscConfig+0x418>
 8001f8c:	e01b      	b.n	8001fc6 <HAL_RCC_OscConfig+0x472>
      }
    }
    else
    {
      /* Disable the Internal Low Speed oscillator (HSI48). */
      __HAL_RCC_HSI48_DISABLE();
 8001f8e:	4b4f      	ldr	r3, [pc, #316]	; (80020cc <HAL_RCC_OscConfig+0x578>)
 8001f90:	f8d3 3098 	ldr.w	r3, [r3, #152]	; 0x98
 8001f94:	4a4d      	ldr	r2, [pc, #308]	; (80020cc <HAL_RCC_OscConfig+0x578>)
 8001f96:	f023 0301 	bic.w	r3, r3, #1
 8001f9a:	f8c2 3098 	str.w	r3, [r2, #152]	; 0x98

      /* Get Start Tick*/
      tickstart = HAL_GetTick();
 8001f9e:	f7fe f99f 	bl	80002e0 <HAL_GetTick>
 8001fa2:	6138      	str	r0, [r7, #16]

      /* Wait till HSI48 is disabled */
      while(READ_BIT(RCC->CRRCR, RCC_CRRCR_HSI48RDY) != 0U)
 8001fa4:	e008      	b.n	8001fb8 <HAL_RCC_OscConfig+0x464>
      {
        if((HAL_GetTick() - tickstart) > HSI48_TIMEOUT_VALUE)
 8001fa6:	f7fe f99b 	bl	80002e0 <HAL_GetTick>
 8001faa:	4602      	mov	r2, r0
 8001fac:	693b      	ldr	r3, [r7, #16]
 8001fae:	1ad3      	subs	r3, r2, r3
 8001fb0:	2b02      	cmp	r3, #2
 8001fb2:	d901      	bls.n	8001fb8 <HAL_RCC_OscConfig+0x464>
        {
          return HAL_TIMEOUT;
 8001fb4:	2303      	movs	r3, #3
 8001fb6:	e0df      	b.n	8002178 <HAL_RCC_OscConfig+0x624>
      while(READ_BIT(RCC->CRRCR, RCC_CRRCR_HSI48RDY) != 0U)
 8001fb8:	4b44      	ldr	r3, [pc, #272]	; (80020cc <HAL_RCC_OscConfig+0x578>)
 8001fba:	f8d3 3098 	ldr.w	r3, [r3, #152]	; 0x98
 8001fbe:	f003 0302 	and.w	r3, r3, #2
 8001fc2:	2b00      	cmp	r3, #0
 8001fc4:	d1ef      	bne.n	8001fa6 <HAL_RCC_OscConfig+0x452>

  /*-------------------------------- PLL Configuration -----------------------*/
  /* Check the parameters */
  assert_param(IS_RCC_PLL(RCC_OscInitStruct->PLL.PLLState));

  if (RCC_OscInitStruct->PLL.PLLState != RCC_PLL_NONE)
 8001fc6:	687b      	ldr	r3, [r7, #4]
 8001fc8:	69db      	ldr	r3, [r3, #28]
 8001fca:	2b00      	cmp	r3, #0
 8001fcc:	f000 80d3 	beq.w	8002176 <HAL_RCC_OscConfig+0x622>
  {
    /* Check if the PLL is used as system clock or not */
    if (__HAL_RCC_GET_SYSCLK_SOURCE() != RCC_CFGR_SWS_PLL)
 8001fd0:	4b3e      	ldr	r3, [pc, #248]	; (80020cc <HAL_RCC_OscConfig+0x578>)
 8001fd2:	689b      	ldr	r3, [r3, #8]
 8001fd4:	f003 030c 	and.w	r3, r3, #12
 8001fd8:	2b0c      	cmp	r3, #12
 8001fda:	f000 808d 	beq.w	80020f8 <HAL_RCC_OscConfig+0x5a4>
    {
      if (RCC_OscInitStruct->PLL.PLLState == RCC_PLL_ON)
 8001fde:	687b      	ldr	r3, [r7, #4]
 8001fe0:	69db      	ldr	r3, [r3, #28]
 8001fe2:	2b02      	cmp	r3, #2
 8001fe4:	d15a      	bne.n	800209c <HAL_RCC_OscConfig+0x548>
        assert_param(IS_RCC_PLLP_VALUE(RCC_OscInitStruct->PLL.PLLP));
        assert_param(IS_RCC_PLLQ_VALUE(RCC_OscInitStruct->PLL.PLLQ));
        assert_param(IS_RCC_PLLR_VALUE(RCC_OscInitStruct->PLL.PLLR));

        /* Disable the main PLL. */
        __HAL_RCC_PLL_DISABLE();
 8001fe6:	4b39      	ldr	r3, [pc, #228]	; (80020cc <HAL_RCC_OscConfig+0x578>)
 8001fe8:	681b      	ldr	r3, [r3, #0]
 8001fea:	4a38      	ldr	r2, [pc, #224]	; (80020cc <HAL_RCC_OscConfig+0x578>)
 8001fec:	f023 7380 	bic.w	r3, r3, #16777216	; 0x1000000
 8001ff0:	6013      	str	r3, [r2, #0]

        /* Get Start Tick*/
        tickstart = HAL_GetTick();
 8001ff2:	f7fe f975 	bl	80002e0 <HAL_GetTick>
 8001ff6:	6138      	str	r0, [r7, #16]

        /* Wait till PLL is ready */
        while (READ_BIT(RCC->CR, RCC_CR_PLLRDY) != 0U)
 8001ff8:	e008      	b.n	800200c <HAL_RCC_OscConfig+0x4b8>
        {
          if ((HAL_GetTick() - tickstart) > PLL_TIMEOUT_VALUE)
 8001ffa:	f7fe f971 	bl	80002e0 <HAL_GetTick>
 8001ffe:	4602      	mov	r2, r0
 8002000:	693b      	ldr	r3, [r7, #16]
 8002002:	1ad3      	subs	r3, r2, r3
 8002004:	2b02      	cmp	r3, #2
 8002006:	d901      	bls.n	800200c <HAL_RCC_OscConfig+0x4b8>
          {
            return HAL_TIMEOUT;
 8002008:	2303      	movs	r3, #3
 800200a:	e0b5      	b.n	8002178 <HAL_RCC_OscConfig+0x624>
        while (READ_BIT(RCC->CR, RCC_CR_PLLRDY) != 0U)
 800200c:	4b2f      	ldr	r3, [pc, #188]	; (80020cc <HAL_RCC_OscConfig+0x578>)
 800200e:	681b      	ldr	r3, [r3, #0]
 8002010:	f003 7300 	and.w	r3, r3, #33554432	; 0x2000000
 8002014:	2b00      	cmp	r3, #0
 8002016:	d1f0      	bne.n	8001ffa <HAL_RCC_OscConfig+0x4a6>
          }
        }

        /* Configure the main PLL clock source, multiplication and division factors. */
        __HAL_RCC_PLL_CONFIG(RCC_OscInitStruct->PLL.PLLSource,
 8002018:	4b2c      	ldr	r3, [pc, #176]	; (80020cc <HAL_RCC_OscConfig+0x578>)
 800201a:	68da      	ldr	r2, [r3, #12]
 800201c:	4b2d      	ldr	r3, [pc, #180]	; (80020d4 <HAL_RCC_OscConfig+0x580>)
 800201e:	4013      	ands	r3, r2
 8002020:	687a      	ldr	r2, [r7, #4]
 8002022:	6a11      	ldr	r1, [r2, #32]
 8002024:	687a      	ldr	r2, [r7, #4]
 8002026:	6a52      	ldr	r2, [r2, #36]	; 0x24
 8002028:	3a01      	subs	r2, #1
 800202a:	0112      	lsls	r2, r2, #4
 800202c:	4311      	orrs	r1, r2
 800202e:	687a      	ldr	r2, [r7, #4]
 8002030:	6a92      	ldr	r2, [r2, #40]	; 0x28
 8002032:	0212      	lsls	r2, r2, #8
 8002034:	4311      	orrs	r1, r2
 8002036:	687a      	ldr	r2, [r7, #4]
 8002038:	6b12      	ldr	r2, [r2, #48]	; 0x30
 800203a:	0852      	lsrs	r2, r2, #1
 800203c:	3a01      	subs	r2, #1
 800203e:	0552      	lsls	r2, r2, #21
 8002040:	4311      	orrs	r1, r2
 8002042:	687a      	ldr	r2, [r7, #4]
 8002044:	6b52      	ldr	r2, [r2, #52]	; 0x34
 8002046:	0852      	lsrs	r2, r2, #1
 8002048:	3a01      	subs	r2, #1
 800204a:	0652      	lsls	r2, r2, #25
 800204c:	4311      	orrs	r1, r2
 800204e:	687a      	ldr	r2, [r7, #4]
 8002050:	6ad2      	ldr	r2, [r2, #44]	; 0x2c
 8002052:	06d2      	lsls	r2, r2, #27
 8002054:	430a      	orrs	r2, r1
 8002056:	491d      	ldr	r1, [pc, #116]	; (80020cc <HAL_RCC_OscConfig+0x578>)
 8002058:	4313      	orrs	r3, r2
 800205a:	60cb      	str	r3, [r1, #12]
                             RCC_OscInitStruct->PLL.PLLP,
                             RCC_OscInitStruct->PLL.PLLQ,
                             RCC_OscInitStruct->PLL.PLLR);

        /* Enable the main PLL. */
        __HAL_RCC_PLL_ENABLE();
 800205c:	4b1b      	ldr	r3, [pc, #108]	; (80020cc <HAL_RCC_OscConfig+0x578>)
 800205e:	681b      	ldr	r3, [r3, #0]
 8002060:	4a1a      	ldr	r2, [pc, #104]	; (80020cc <HAL_RCC_OscConfig+0x578>)
 8002062:	f043 7380 	orr.w	r3, r3, #16777216	; 0x1000000
 8002066:	6013      	str	r3, [r2, #0]

        /* Enable PLL System Clock output. */
         __HAL_RCC_PLLCLKOUT_ENABLE(RCC_PLL_SYSCLK);
 8002068:	4b18      	ldr	r3, [pc, #96]	; (80020cc <HAL_RCC_OscConfig+0x578>)
 800206a:	68db      	ldr	r3, [r3, #12]
 800206c:	4a17      	ldr	r2, [pc, #92]	; (80020cc <HAL_RCC_OscConfig+0x578>)
 800206e:	f043 7380 	orr.w	r3, r3, #16777216	; 0x1000000
 8002072:	60d3      	str	r3, [r2, #12]

        /* Get Start Tick*/
        tickstart = HAL_GetTick();
 8002074:	f7fe f934 	bl	80002e0 <HAL_GetTick>
 8002078:	6138      	str	r0, [r7, #16]

        /* Wait till PLL is ready */
        while (READ_BIT(RCC->CR, RCC_CR_PLLRDY) == 0U)
 800207a:	e008      	b.n	800208e <HAL_RCC_OscConfig+0x53a>
        {
          if ((HAL_GetTick() - tickstart) > PLL_TIMEOUT_VALUE)
 800207c:	f7fe f930 	bl	80002e0 <HAL_GetTick>
 8002080:	4602      	mov	r2, r0
 8002082:	693b      	ldr	r3, [r7, #16]
 8002084:	1ad3      	subs	r3, r2, r3
 8002086:	2b02      	cmp	r3, #2
 8002088:	d901      	bls.n	800208e <HAL_RCC_OscConfig+0x53a>
          {
            return HAL_TIMEOUT;
 800208a:	2303      	movs	r3, #3
 800208c:	e074      	b.n	8002178 <HAL_RCC_OscConfig+0x624>
        while (READ_BIT(RCC->CR, RCC_CR_PLLRDY) == 0U)
 800208e:	4b0f      	ldr	r3, [pc, #60]	; (80020cc <HAL_RCC_OscConfig+0x578>)
 8002090:	681b      	ldr	r3, [r3, #0]
 8002092:	f003 7300 	and.w	r3, r3, #33554432	; 0x2000000
 8002096:	2b00      	cmp	r3, #0
 8002098:	d0f0      	beq.n	800207c <HAL_RCC_OscConfig+0x528>
 800209a:	e06c      	b.n	8002176 <HAL_RCC_OscConfig+0x622>
        }
      }
      else
      {
        /* Disable the main PLL. */
        __HAL_RCC_PLL_DISABLE();
 800209c:	4b0b      	ldr	r3, [pc, #44]	; (80020cc <HAL_RCC_OscConfig+0x578>)
 800209e:	681b      	ldr	r3, [r3, #0]
 80020a0:	4a0a      	ldr	r2, [pc, #40]	; (80020cc <HAL_RCC_OscConfig+0x578>)
 80020a2:	f023 7380 	bic.w	r3, r3, #16777216	; 0x1000000
 80020a6:	6013      	str	r3, [r2, #0]

        /* Disable all PLL outputs to save power if no PLLs on */
          MODIFY_REG(RCC->PLLCFGR, RCC_PLLCFGR_PLLSRC, RCC_PLLSOURCE_NONE);
 80020a8:	4b08      	ldr	r3, [pc, #32]	; (80020cc <HAL_RCC_OscConfig+0x578>)
 80020aa:	68db      	ldr	r3, [r3, #12]
 80020ac:	4a07      	ldr	r2, [pc, #28]	; (80020cc <HAL_RCC_OscConfig+0x578>)
 80020ae:	f023 0303 	bic.w	r3, r3, #3
 80020b2:	60d3      	str	r3, [r2, #12]
        __HAL_RCC_PLLCLKOUT_DISABLE(RCC_PLL_SYSCLK | RCC_PLL_48M1CLK | RCC_PLL_ADCCLK);
 80020b4:	4b05      	ldr	r3, [pc, #20]	; (80020cc <HAL_RCC_OscConfig+0x578>)
 80020b6:	68db      	ldr	r3, [r3, #12]
 80020b8:	4a04      	ldr	r2, [pc, #16]	; (80020cc <HAL_RCC_OscConfig+0x578>)
 80020ba:	f023 7388 	bic.w	r3, r3, #17825792	; 0x1100000
 80020be:	f423 3380 	bic.w	r3, r3, #65536	; 0x10000
 80020c2:	60d3      	str	r3, [r2, #12]

        /* Get Start Tick*/
        tickstart = HAL_GetTick();
 80020c4:	f7fe f90c 	bl	80002e0 <HAL_GetTick>
 80020c8:	6138      	str	r0, [r7, #16]

        /* Wait till PLL is disabled */
        while (READ_BIT(RCC->CR, RCC_CR_PLLRDY) != 0U)
 80020ca:	e00e      	b.n	80020ea <HAL_RCC_OscConfig+0x596>
 80020cc:	40021000 	.word	0x40021000
 80020d0:	40007000 	.word	0x40007000
 80020d4:	019f800c 	.word	0x019f800c
        {
          if ((HAL_GetTick() - tickstart) > PLL_TIMEOUT_VALUE)
 80020d8:	f7fe f902 	bl	80002e0 <HAL_GetTick>
 80020dc:	4602      	mov	r2, r0
 80020de:	693b      	ldr	r3, [r7, #16]
 80020e0:	1ad3      	subs	r3, r2, r3
 80020e2:	2b02      	cmp	r3, #2
 80020e4:	d901      	bls.n	80020ea <HAL_RCC_OscConfig+0x596>
          {
            return HAL_TIMEOUT;
 80020e6:	2303      	movs	r3, #3
 80020e8:	e046      	b.n	8002178 <HAL_RCC_OscConfig+0x624>
        while (READ_BIT(RCC->CR, RCC_CR_PLLRDY) != 0U)
 80020ea:	4b25      	ldr	r3, [pc, #148]	; (8002180 <HAL_RCC_OscConfig+0x62c>)
 80020ec:	681b      	ldr	r3, [r3, #0]
 80020ee:	f003 7300 	and.w	r3, r3, #33554432	; 0x2000000
 80020f2:	2b00      	cmp	r3, #0
 80020f4:	d1f0      	bne.n	80020d8 <HAL_RCC_OscConfig+0x584>
 80020f6:	e03e      	b.n	8002176 <HAL_RCC_OscConfig+0x622>
      }
    }
    else
    {
      /* Check if there is a request to disable the PLL used as System clock source */
      if((RCC_OscInitStruct->PLL.PLLState) == RCC_PLL_OFF)
 80020f8:	687b      	ldr	r3, [r7, #4]
 80020fa:	69db      	ldr	r3, [r3, #28]
 80020fc:	2b01      	cmp	r3, #1
 80020fe:	d101      	bne.n	8002104 <HAL_RCC_OscConfig+0x5b0>
      {
        return HAL_ERROR;
 8002100:	2301      	movs	r3, #1
 8002102:	e039      	b.n	8002178 <HAL_RCC_OscConfig+0x624>
      }
      else
      {
      /* Do not return HAL_ERROR if request repeats the current configuration */
      temp_pllckcfg = RCC->PLLCFGR;
 8002104:	4b1e      	ldr	r3, [pc, #120]	; (8002180 <HAL_RCC_OscConfig+0x62c>)
 8002106:	68db      	ldr	r3, [r3, #12]
 8002108:	617b      	str	r3, [r7, #20]
      if((READ_BIT(temp_pllckcfg, RCC_PLLCFGR_PLLSRC) != RCC_OscInitStruct->PLL.PLLSource) ||
 800210a:	697b      	ldr	r3, [r7, #20]
 800210c:	f003 0203 	and.w	r2, r3, #3
 8002110:	687b      	ldr	r3, [r7, #4]
 8002112:	6a1b      	ldr	r3, [r3, #32]
 8002114:	429a      	cmp	r2, r3
 8002116:	d12c      	bne.n	8002172 <HAL_RCC_OscConfig+0x61e>
         (READ_BIT(temp_pllckcfg, RCC_PLLCFGR_PLLM) != (((RCC_OscInitStruct->PLL.PLLM) - 1U) << RCC_PLLCFGR_PLLM_Pos)) ||
 8002118:	697b      	ldr	r3, [r7, #20]
 800211a:	f003 02f0 	and.w	r2, r3, #240	; 0xf0
 800211e:	687b      	ldr	r3, [r7, #4]
 8002120:	6a5b      	ldr	r3, [r3, #36]	; 0x24
 8002122:	3b01      	subs	r3, #1
 8002124:	011b      	lsls	r3, r3, #4
      if((READ_BIT(temp_pllckcfg, RCC_PLLCFGR_PLLSRC) != RCC_OscInitStruct->PLL.PLLSource) ||
 8002126:	429a      	cmp	r2, r3
 8002128:	d123      	bne.n	8002172 <HAL_RCC_OscConfig+0x61e>
         (READ_BIT(temp_pllckcfg, RCC_PLLCFGR_PLLN) != ((RCC_OscInitStruct->PLL.PLLN) << RCC_PLLCFGR_PLLN_Pos)) ||
 800212a:	697b      	ldr	r3, [r7, #20]
 800212c:	f403 42fe 	and.w	r2, r3, #32512	; 0x7f00
 8002130:	687b      	ldr	r3, [r7, #4]
 8002132:	6a9b      	ldr	r3, [r3, #40]	; 0x28
 8002134:	021b      	lsls	r3, r3, #8
         (READ_BIT(temp_pllckcfg, RCC_PLLCFGR_PLLM) != (((RCC_OscInitStruct->PLL.PLLM) - 1U) << RCC_PLLCFGR_PLLM_Pos)) ||
 8002136:	429a      	cmp	r2, r3
 8002138:	d11b      	bne.n	8002172 <HAL_RCC_OscConfig+0x61e>
         (READ_BIT(temp_pllckcfg, RCC_PLLCFGR_PLLPDIV) != ((RCC_OscInitStruct->PLL.PLLP) << RCC_PLLCFGR_PLLPDIV_Pos)) ||
 800213a:	697b      	ldr	r3, [r7, #20]
 800213c:	f003 4278 	and.w	r2, r3, #4160749568	; 0xf8000000
 8002140:	687b      	ldr	r3, [r7, #4]
 8002142:	6adb      	ldr	r3, [r3, #44]	; 0x2c
 8002144:	06db      	lsls	r3, r3, #27
         (READ_BIT(temp_pllckcfg, RCC_PLLCFGR_PLLN) != ((RCC_OscInitStruct->PLL.PLLN) << RCC_PLLCFGR_PLLN_Pos)) ||
 8002146:	429a      	cmp	r2, r3
 8002148:	d113      	bne.n	8002172 <HAL_RCC_OscConfig+0x61e>
         (READ_BIT(temp_pllckcfg, RCC_PLLCFGR_PLLQ) != ((((RCC_OscInitStruct->PLL.PLLQ) >> 1U) - 1U) << RCC_PLLCFGR_PLLQ_Pos)) ||
 800214a:	697b      	ldr	r3, [r7, #20]
 800214c:	f403 02c0 	and.w	r2, r3, #6291456	; 0x600000
 8002150:	687b      	ldr	r3, [r7, #4]
 8002152:	6b1b      	ldr	r3, [r3, #48]	; 0x30
 8002154:	085b      	lsrs	r3, r3, #1
 8002156:	3b01      	subs	r3, #1
 8002158:	055b      	lsls	r3, r3, #21
         (READ_BIT(temp_pllckcfg, RCC_PLLCFGR_PLLPDIV) != ((RCC_OscInitStruct->PLL.PLLP) << RCC_PLLCFGR_PLLPDIV_Pos)) ||
 800215a:	429a      	cmp	r2, r3
 800215c:	d109      	bne.n	8002172 <HAL_RCC_OscConfig+0x61e>
         (READ_BIT(temp_pllckcfg, RCC_PLLCFGR_PLLR) != ((((RCC_OscInitStruct->PLL.PLLR) >> 1U) - 1U) << RCC_PLLCFGR_PLLR_Pos)))
 800215e:	697b      	ldr	r3, [r7, #20]
 8002160:	f003 62c0 	and.w	r2, r3, #100663296	; 0x6000000
 8002164:	687b      	ldr	r3, [r7, #4]
 8002166:	6b5b      	ldr	r3, [r3, #52]	; 0x34
 8002168:	085b      	lsrs	r3, r3, #1
 800216a:	3b01      	subs	r3, #1
 800216c:	065b      	lsls	r3, r3, #25
         (READ_BIT(temp_pllckcfg, RCC_PLLCFGR_PLLQ) != ((((RCC_OscInitStruct->PLL.PLLQ) >> 1U) - 1U) << RCC_PLLCFGR_PLLQ_Pos)) ||
 800216e:	429a      	cmp	r2, r3
 8002170:	d001      	beq.n	8002176 <HAL_RCC_OscConfig+0x622>
      {
        return HAL_ERROR;
 8002172:	2301      	movs	r3, #1
 8002174:	e000      	b.n	8002178 <HAL_RCC_OscConfig+0x624>
      }
    }
  }
  }

  return HAL_OK;
 8002176:	2300      	movs	r3, #0
}
 8002178:	4618      	mov	r0, r3
 800217a:	3720      	adds	r7, #32
 800217c:	46bd      	mov	sp, r7
 800217e:	bd80      	pop	{r7, pc}
 8002180:	40021000 	.word	0x40021000

08002184 <HAL_RCC_ClockConfig>:
  *         HPRE[3:0] bits to ensure that HCLK not exceed the maximum allowed frequency
  *         (for more details refer to section above "Initialization/de-initialization functions")
  * @retval None
  */
HAL_StatusTypeDef HAL_RCC_ClockConfig(RCC_ClkInitTypeDef  *RCC_ClkInitStruct, uint32_t FLatency)
{
 8002184:	b580      	push	{r7, lr}
 8002186:	b086      	sub	sp, #24
 8002188:	af00      	add	r7, sp, #0
 800218a:	6078      	str	r0, [r7, #4]
 800218c:	6039      	str	r1, [r7, #0]
  uint32_t tickstart;
  uint32_t pllfreq;
  uint32_t hpre = RCC_SYSCLK_DIV1;
 800218e:	2300      	movs	r3, #0
 8002190:	617b      	str	r3, [r7, #20]

  /* Check Null pointer */
  if (RCC_ClkInitStruct == NULL)
 8002192:	687b      	ldr	r3, [r7, #4]
 8002194:	2b00      	cmp	r3, #0
 8002196:	d101      	bne.n	800219c <HAL_RCC_ClockConfig+0x18>
  {
    return HAL_ERROR;
 8002198:	2301      	movs	r3, #1
 800219a:	e11e      	b.n	80023da <HAL_RCC_ClockConfig+0x256>
  /* To correctly read data from FLASH memory, the number of wait states (LATENCY)
    must be correctly programmed according to the frequency of the CPU clock
    (HCLK) and the supply voltage of the device. */

  /* Increasing the number of wait states because of higher CPU frequency */
  if (FLatency > __HAL_FLASH_GET_LATENCY())
 800219c:	4b91      	ldr	r3, [pc, #580]	; (80023e4 <HAL_RCC_ClockConfig+0x260>)
 800219e:	681b      	ldr	r3, [r3, #0]
 80021a0:	f003 030f 	and.w	r3, r3, #15
 80021a4:	683a      	ldr	r2, [r7, #0]
 80021a6:	429a      	cmp	r2, r3
 80021a8:	d910      	bls.n	80021cc <HAL_RCC_ClockConfig+0x48>
  {
    /* Program the new number of wait states to the LATENCY bits in the FLASH_ACR register */
    __HAL_FLASH_SET_LATENCY(FLatency);
 80021aa:	4b8e      	ldr	r3, [pc, #568]	; (80023e4 <HAL_RCC_ClockConfig+0x260>)
 80021ac:	681b      	ldr	r3, [r3, #0]
 80021ae:	f023 020f 	bic.w	r2, r3, #15
 80021b2:	498c      	ldr	r1, [pc, #560]	; (80023e4 <HAL_RCC_ClockConfig+0x260>)
 80021b4:	683b      	ldr	r3, [r7, #0]
 80021b6:	4313      	orrs	r3, r2
 80021b8:	600b      	str	r3, [r1, #0]

    /* Check that the new number of wait states is taken into account to access the Flash
    memory by reading the FLASH_ACR register */
    if (__HAL_FLASH_GET_LATENCY() != FLatency)
 80021ba:	4b8a      	ldr	r3, [pc, #552]	; (80023e4 <HAL_RCC_ClockConfig+0x260>)
 80021bc:	681b      	ldr	r3, [r3, #0]
 80021be:	f003 030f 	and.w	r3, r3, #15
 80021c2:	683a      	ldr	r2, [r7, #0]
 80021c4:	429a      	cmp	r2, r3
 80021c6:	d001      	beq.n	80021cc <HAL_RCC_ClockConfig+0x48>
    {
      return HAL_ERROR;
 80021c8:	2301      	movs	r3, #1
 80021ca:	e106      	b.n	80023da <HAL_RCC_ClockConfig+0x256>
    }
  }

  /*------------------------- SYSCLK Configuration ---------------------------*/
  if(((RCC_ClkInitStruct->ClockType) & RCC_CLOCKTYPE_SYSCLK) == RCC_CLOCKTYPE_SYSCLK)
 80021cc:	687b      	ldr	r3, [r7, #4]
 80021ce:	681b      	ldr	r3, [r3, #0]
 80021d0:	f003 0301 	and.w	r3, r3, #1
 80021d4:	2b00      	cmp	r3, #0
 80021d6:	d073      	beq.n	80022c0 <HAL_RCC_ClockConfig+0x13c>
  {
    assert_param(IS_RCC_SYSCLKSOURCE(RCC_ClkInitStruct->SYSCLKSource));

    /* PLL is selected as System Clock Source */
    if (RCC_ClkInitStruct->SYSCLKSource == RCC_SYSCLKSOURCE_PLLCLK)
 80021d8:	687b      	ldr	r3, [r7, #4]
 80021da:	685b      	ldr	r3, [r3, #4]
 80021dc:	2b03      	cmp	r3, #3
 80021de:	d129      	bne.n	8002234 <HAL_RCC_ClockConfig+0xb0>
    {
      /* Check the PLL ready flag */
      if (READ_BIT(RCC->CR, RCC_CR_PLLRDY) == 0U)
 80021e0:	4b81      	ldr	r3, [pc, #516]	; (80023e8 <HAL_RCC_ClockConfig+0x264>)
 80021e2:	681b      	ldr	r3, [r3, #0]
 80021e4:	f003 7300 	and.w	r3, r3, #33554432	; 0x2000000
 80021e8:	2b00      	cmp	r3, #0
 80021ea:	d101      	bne.n	80021f0 <HAL_RCC_ClockConfig+0x6c>
      {
        return HAL_ERROR;
 80021ec:	2301      	movs	r3, #1
 80021ee:	e0f4      	b.n	80023da <HAL_RCC_ClockConfig+0x256>
      }
      /* Undershoot management when selection PLL as SYSCLK source and frequency above 80Mhz */
      /* Compute target PLL output frequency */
      pllfreq = RCC_GetSysClockFreqFromPLLSource();
 80021f0:	f000 f966 	bl	80024c0 <RCC_GetSysClockFreqFromPLLSource>
 80021f4:	6138      	str	r0, [r7, #16]

      /* Intermediate step with HCLK prescaler 2 necessary before to go over 80Mhz */
      if(pllfreq > 80000000U)
 80021f6:	693b      	ldr	r3, [r7, #16]
 80021f8:	4a7c      	ldr	r2, [pc, #496]	; (80023ec <HAL_RCC_ClockConfig+0x268>)
 80021fa:	4293      	cmp	r3, r2
 80021fc:	d93f      	bls.n	800227e <HAL_RCC_ClockConfig+0xfa>
      {
        if (((READ_BIT(RCC->CFGR, RCC_CFGR_HPRE) == RCC_SYSCLK_DIV1)) ||
 80021fe:	4b7a      	ldr	r3, [pc, #488]	; (80023e8 <HAL_RCC_ClockConfig+0x264>)
 8002200:	689b      	ldr	r3, [r3, #8]
 8002202:	f003 03f0 	and.w	r3, r3, #240	; 0xf0
 8002206:	2b00      	cmp	r3, #0
 8002208:	d009      	beq.n	800221e <HAL_RCC_ClockConfig+0x9a>
            (((((RCC_ClkInitStruct->ClockType) & RCC_CLOCKTYPE_HCLK) == RCC_CLOCKTYPE_HCLK) &&
 800220a:	687b      	ldr	r3, [r7, #4]
 800220c:	681b      	ldr	r3, [r3, #0]
 800220e:	f003 0302 	and.w	r3, r3, #2
        if (((READ_BIT(RCC->CFGR, RCC_CFGR_HPRE) == RCC_SYSCLK_DIV1)) ||
 8002212:	2b00      	cmp	r3, #0
 8002214:	d033      	beq.n	800227e <HAL_RCC_ClockConfig+0xfa>
              (RCC_ClkInitStruct->AHBCLKDivider == RCC_SYSCLK_DIV1))))
 8002216:	687b      	ldr	r3, [r7, #4]
 8002218:	689b      	ldr	r3, [r3, #8]
            (((((RCC_ClkInitStruct->ClockType) & RCC_CLOCKTYPE_HCLK) == RCC_CLOCKTYPE_HCLK) &&
 800221a:	2b00      	cmp	r3, #0
 800221c:	d12f      	bne.n	800227e <HAL_RCC_ClockConfig+0xfa>
        {
          MODIFY_REG(RCC->CFGR, RCC_CFGR_HPRE, RCC_SYSCLK_DIV2);
 800221e:	4b72      	ldr	r3, [pc, #456]	; (80023e8 <HAL_RCC_ClockConfig+0x264>)
 8002220:	689b      	ldr	r3, [r3, #8]
 8002222:	f023 03f0 	bic.w	r3, r3, #240	; 0xf0
 8002226:	4a70      	ldr	r2, [pc, #448]	; (80023e8 <HAL_RCC_ClockConfig+0x264>)
 8002228:	f043 0380 	orr.w	r3, r3, #128	; 0x80
 800222c:	6093      	str	r3, [r2, #8]
          hpre = RCC_SYSCLK_DIV2;
 800222e:	2380      	movs	r3, #128	; 0x80
 8002230:	617b      	str	r3, [r7, #20]
 8002232:	e024      	b.n	800227e <HAL_RCC_ClockConfig+0xfa>
      }
    }
    else
    {
      /* HSE is selected as System Clock Source */
      if (RCC_ClkInitStruct->SYSCLKSource == RCC_SYSCLKSOURCE_HSE)
 8002234:	687b      	ldr	r3, [r7, #4]
 8002236:	685b      	ldr	r3, [r3, #4]
 8002238:	2b02      	cmp	r3, #2
 800223a:	d107      	bne.n	800224c <HAL_RCC_ClockConfig+0xc8>
      {
        /* Check the HSE ready flag */
        if(READ_BIT(RCC->CR, RCC_CR_HSERDY) == 0U)
 800223c:	4b6a      	ldr	r3, [pc, #424]	; (80023e8 <HAL_RCC_ClockConfig+0x264>)
 800223e:	681b      	ldr	r3, [r3, #0]
 8002240:	f403 3300 	and.w	r3, r3, #131072	; 0x20000
 8002244:	2b00      	cmp	r3, #0
 8002246:	d109      	bne.n	800225c <HAL_RCC_ClockConfig+0xd8>
        {
          return HAL_ERROR;
 8002248:	2301      	movs	r3, #1
 800224a:	e0c6      	b.n	80023da <HAL_RCC_ClockConfig+0x256>
      }
      /* HSI is selected as System Clock Source */
      else
      {
        /* Check the HSI ready flag */
        if(READ_BIT(RCC->CR, RCC_CR_HSIRDY) == 0U)
 800224c:	4b66      	ldr	r3, [pc, #408]	; (80023e8 <HAL_RCC_ClockConfig+0x264>)
 800224e:	681b      	ldr	r3, [r3, #0]
 8002250:	f403 6380 	and.w	r3, r3, #1024	; 0x400
 8002254:	2b00      	cmp	r3, #0
 8002256:	d101      	bne.n	800225c <HAL_RCC_ClockConfig+0xd8>
        {
          return HAL_ERROR;
 8002258:	2301      	movs	r3, #1
 800225a:	e0be      	b.n	80023da <HAL_RCC_ClockConfig+0x256>
        }
      }
      /* Overshoot management when going down from PLL as SYSCLK source and frequency above 80Mhz */
      pllfreq = HAL_RCC_GetSysClockFreq();
 800225c:	f000 f8ce 	bl	80023fc <HAL_RCC_GetSysClockFreq>
 8002260:	6138      	str	r0, [r7, #16]

      /* Intermediate step with HCLK prescaler 2 necessary before to go under 80Mhz */
      if(pllfreq > 80000000U)
 8002262:	693b      	ldr	r3, [r7, #16]
 8002264:	4a61      	ldr	r2, [pc, #388]	; (80023ec <HAL_RCC_ClockConfig+0x268>)
 8002266:	4293      	cmp	r3, r2
 8002268:	d909      	bls.n	800227e <HAL_RCC_ClockConfig+0xfa>
      {
        MODIFY_REG(RCC->CFGR, RCC_CFGR_HPRE, RCC_SYSCLK_DIV2);
 800226a:	4b5f      	ldr	r3, [pc, #380]	; (80023e8 <HAL_RCC_ClockConfig+0x264>)
 800226c:	689b      	ldr	r3, [r3, #8]
 800226e:	f023 03f0 	bic.w	r3, r3, #240	; 0xf0
 8002272:	4a5d      	ldr	r2, [pc, #372]	; (80023e8 <HAL_RCC_ClockConfig+0x264>)
 8002274:	f043 0380 	orr.w	r3, r3, #128	; 0x80
 8002278:	6093      	str	r3, [r2, #8]
        hpre = RCC_SYSCLK_DIV2;
 800227a:	2380      	movs	r3, #128	; 0x80
 800227c:	617b      	str	r3, [r7, #20]
      }

    }

    MODIFY_REG(RCC->CFGR, RCC_CFGR_SW, RCC_ClkInitStruct->SYSCLKSource);
 800227e:	4b5a      	ldr	r3, [pc, #360]	; (80023e8 <HAL_RCC_ClockConfig+0x264>)
 8002280:	689b      	ldr	r3, [r3, #8]
 8002282:	f023 0203 	bic.w	r2, r3, #3
 8002286:	687b      	ldr	r3, [r7, #4]
 8002288:	685b      	ldr	r3, [r3, #4]
 800228a:	4957      	ldr	r1, [pc, #348]	; (80023e8 <HAL_RCC_ClockConfig+0x264>)
 800228c:	4313      	orrs	r3, r2
 800228e:	608b      	str	r3, [r1, #8]

    /* Get Start Tick*/
    tickstart = HAL_GetTick();
 8002290:	f7fe f826 	bl	80002e0 <HAL_GetTick>
 8002294:	60f8      	str	r0, [r7, #12]

    while (__HAL_RCC_GET_SYSCLK_SOURCE() != (RCC_ClkInitStruct->SYSCLKSource << RCC_CFGR_SWS_Pos))
 8002296:	e00a      	b.n	80022ae <HAL_RCC_ClockConfig+0x12a>
    {
      if ((HAL_GetTick() - tickstart) > CLOCKSWITCH_TIMEOUT_VALUE)
 8002298:	f7fe f822 	bl	80002e0 <HAL_GetTick>
 800229c:	4602      	mov	r2, r0
 800229e:	68fb      	ldr	r3, [r7, #12]
 80022a0:	1ad3      	subs	r3, r2, r3
 80022a2:	f241 3288 	movw	r2, #5000	; 0x1388
 80022a6:	4293      	cmp	r3, r2
 80022a8:	d901      	bls.n	80022ae <HAL_RCC_ClockConfig+0x12a>
      {
        return HAL_TIMEOUT;
 80022aa:	2303      	movs	r3, #3
 80022ac:	e095      	b.n	80023da <HAL_RCC_ClockConfig+0x256>
    while (__HAL_RCC_GET_SYSCLK_SOURCE() != (RCC_ClkInitStruct->SYSCLKSource << RCC_CFGR_SWS_Pos))
 80022ae:	4b4e      	ldr	r3, [pc, #312]	; (80023e8 <HAL_RCC_ClockConfig+0x264>)
 80022b0:	689b      	ldr	r3, [r3, #8]
 80022b2:	f003 020c 	and.w	r2, r3, #12
 80022b6:	687b      	ldr	r3, [r7, #4]
 80022b8:	685b      	ldr	r3, [r3, #4]
 80022ba:	009b      	lsls	r3, r3, #2
 80022bc:	429a      	cmp	r2, r3
 80022be:	d1eb      	bne.n	8002298 <HAL_RCC_ClockConfig+0x114>
      }
    }
  }

  /*-------------------------- HCLK Configuration --------------------------*/
  if (((RCC_ClkInitStruct->ClockType) & RCC_CLOCKTYPE_HCLK) == RCC_CLOCKTYPE_HCLK)
 80022c0:	687b      	ldr	r3, [r7, #4]
 80022c2:	681b      	ldr	r3, [r3, #0]
 80022c4:	f003 0302 	and.w	r3, r3, #2
 80022c8:	2b00      	cmp	r3, #0
 80022ca:	d023      	beq.n	8002314 <HAL_RCC_ClockConfig+0x190>
  {
    /* Set the highest APB divider in order to ensure that we do not go through
       a non-spec phase whatever we decrease or increase HCLK. */
    if (((RCC_ClkInitStruct->ClockType) & RCC_CLOCKTYPE_PCLK1) == RCC_CLOCKTYPE_PCLK1)
 80022cc:	687b      	ldr	r3, [r7, #4]
 80022ce:	681b      	ldr	r3, [r3, #0]
 80022d0:	f003 0304 	and.w	r3, r3, #4
 80022d4:	2b00      	cmp	r3, #0
 80022d6:	d005      	beq.n	80022e4 <HAL_RCC_ClockConfig+0x160>
    {
      MODIFY_REG(RCC->CFGR, RCC_CFGR_PPRE1, RCC_HCLK_DIV16);
 80022d8:	4b43      	ldr	r3, [pc, #268]	; (80023e8 <HAL_RCC_ClockConfig+0x264>)
 80022da:	689b      	ldr	r3, [r3, #8]
 80022dc:	4a42      	ldr	r2, [pc, #264]	; (80023e8 <HAL_RCC_ClockConfig+0x264>)
 80022de:	f443 63e0 	orr.w	r3, r3, #1792	; 0x700
 80022e2:	6093      	str	r3, [r2, #8]
    }
    if (((RCC_ClkInitStruct->ClockType) & RCC_CLOCKTYPE_PCLK2) == RCC_CLOCKTYPE_PCLK2)
 80022e4:	687b      	ldr	r3, [r7, #4]
 80022e6:	681b      	ldr	r3, [r3, #0]
 80022e8:	f003 0308 	and.w	r3, r3, #8
 80022ec:	2b00      	cmp	r3, #0
 80022ee:	d007      	beq.n	8002300 <HAL_RCC_ClockConfig+0x17c>
    {
      MODIFY_REG(RCC->CFGR, RCC_CFGR_PPRE2, RCC_HCLK_DIV16);
 80022f0:	4b3d      	ldr	r3, [pc, #244]	; (80023e8 <HAL_RCC_ClockConfig+0x264>)
 80022f2:	689b      	ldr	r3, [r3, #8]
 80022f4:	f423 537c 	bic.w	r3, r3, #16128	; 0x3f00
 80022f8:	4a3b      	ldr	r2, [pc, #236]	; (80023e8 <HAL_RCC_ClockConfig+0x264>)
 80022fa:	f443 63e0 	orr.w	r3, r3, #1792	; 0x700
 80022fe:	6093      	str	r3, [r2, #8]
    }

    /* Set the new HCLK clock divider */
    assert_param(IS_RCC_HCLK(RCC_ClkInitStruct->AHBCLKDivider));
    MODIFY_REG(RCC->CFGR, RCC_CFGR_HPRE, RCC_ClkInitStruct->AHBCLKDivider);
 8002300:	4b39      	ldr	r3, [pc, #228]	; (80023e8 <HAL_RCC_ClockConfig+0x264>)
 8002302:	689b      	ldr	r3, [r3, #8]
 8002304:	f023 02f0 	bic.w	r2, r3, #240	; 0xf0
 8002308:	687b      	ldr	r3, [r7, #4]
 800230a:	689b      	ldr	r3, [r3, #8]
 800230c:	4936      	ldr	r1, [pc, #216]	; (80023e8 <HAL_RCC_ClockConfig+0x264>)
 800230e:	4313      	orrs	r3, r2
 8002310:	608b      	str	r3, [r1, #8]
 8002312:	e008      	b.n	8002326 <HAL_RCC_ClockConfig+0x1a2>
  }
  else
  {
    /* Is intermediate HCLK prescaler 2 applied internally, complete with HCLK prescaler 1 */
    if(hpre == RCC_SYSCLK_DIV2)
 8002314:	697b      	ldr	r3, [r7, #20]
 8002316:	2b80      	cmp	r3, #128	; 0x80
 8002318:	d105      	bne.n	8002326 <HAL_RCC_ClockConfig+0x1a2>
    {
      MODIFY_REG(RCC->CFGR, RCC_CFGR_HPRE, RCC_SYSCLK_DIV1);
 800231a:	4b33      	ldr	r3, [pc, #204]	; (80023e8 <HAL_RCC_ClockConfig+0x264>)
 800231c:	689b      	ldr	r3, [r3, #8]
 800231e:	4a32      	ldr	r2, [pc, #200]	; (80023e8 <HAL_RCC_ClockConfig+0x264>)
 8002320:	f023 03f0 	bic.w	r3, r3, #240	; 0xf0
 8002324:	6093      	str	r3, [r2, #8]
    }
  }

  /* Decreasing the number of wait states because of lower CPU frequency */
  if (FLatency < __HAL_FLASH_GET_LATENCY())
 8002326:	4b2f      	ldr	r3, [pc, #188]	; (80023e4 <HAL_RCC_ClockConfig+0x260>)
 8002328:	681b      	ldr	r3, [r3, #0]
 800232a:	f003 030f 	and.w	r3, r3, #15
 800232e:	683a      	ldr	r2, [r7, #0]
 8002330:	429a      	cmp	r2, r3
 8002332:	d21d      	bcs.n	8002370 <HAL_RCC_ClockConfig+0x1ec>
  {
    /* Program the new number of wait states to the LATENCY bits in the FLASH_ACR register */
    __HAL_FLASH_SET_LATENCY(FLatency);
 8002334:	4b2b      	ldr	r3, [pc, #172]	; (80023e4 <HAL_RCC_ClockConfig+0x260>)
 8002336:	681b      	ldr	r3, [r3, #0]
 8002338:	f023 020f 	bic.w	r2, r3, #15
 800233c:	4929      	ldr	r1, [pc, #164]	; (80023e4 <HAL_RCC_ClockConfig+0x260>)
 800233e:	683b      	ldr	r3, [r7, #0]
 8002340:	4313      	orrs	r3, r2
 8002342:	600b      	str	r3, [r1, #0]

    /* Check that the new number of wait states is taken into account to access the Flash
    memory by polling the FLASH_ACR register */
    tickstart = HAL_GetTick();
 8002344:	f7fd ffcc 	bl	80002e0 <HAL_GetTick>
 8002348:	60f8      	str	r0, [r7, #12]

    while (__HAL_FLASH_GET_LATENCY() != FLatency)
 800234a:	e00a      	b.n	8002362 <HAL_RCC_ClockConfig+0x1de>
    {
      if ((HAL_GetTick() - tickstart) > CLOCKSWITCH_TIMEOUT_VALUE)
 800234c:	f7fd ffc8 	bl	80002e0 <HAL_GetTick>
 8002350:	4602      	mov	r2, r0
 8002352:	68fb      	ldr	r3, [r7, #12]
 8002354:	1ad3      	subs	r3, r2, r3
 8002356:	f241 3288 	movw	r2, #5000	; 0x1388
 800235a:	4293      	cmp	r3, r2
 800235c:	d901      	bls.n	8002362 <HAL_RCC_ClockConfig+0x1de>
      {
        return HAL_TIMEOUT;
 800235e:	2303      	movs	r3, #3
 8002360:	e03b      	b.n	80023da <HAL_RCC_ClockConfig+0x256>
    while (__HAL_FLASH_GET_LATENCY() != FLatency)
 8002362:	4b20      	ldr	r3, [pc, #128]	; (80023e4 <HAL_RCC_ClockConfig+0x260>)
 8002364:	681b      	ldr	r3, [r3, #0]
 8002366:	f003 030f 	and.w	r3, r3, #15
 800236a:	683a      	ldr	r2, [r7, #0]
 800236c:	429a      	cmp	r2, r3
 800236e:	d1ed      	bne.n	800234c <HAL_RCC_ClockConfig+0x1c8>
      }
    }
  }

  /*-------------------------- PCLK1 Configuration ---------------------------*/
  if (((RCC_ClkInitStruct->ClockType) & RCC_CLOCKTYPE_PCLK1) == RCC_CLOCKTYPE_PCLK1)
 8002370:	687b      	ldr	r3, [r7, #4]
 8002372:	681b      	ldr	r3, [r3, #0]
 8002374:	f003 0304 	and.w	r3, r3, #4
 8002378:	2b00      	cmp	r3, #0
 800237a:	d008      	beq.n	800238e <HAL_RCC_ClockConfig+0x20a>
  {
    assert_param(IS_RCC_PCLK(RCC_ClkInitStruct->APB1CLKDivider));
    MODIFY_REG(RCC->CFGR, RCC_CFGR_PPRE1, RCC_ClkInitStruct->APB1CLKDivider);
 800237c:	4b1a      	ldr	r3, [pc, #104]	; (80023e8 <HAL_RCC_ClockConfig+0x264>)
 800237e:	689b      	ldr	r3, [r3, #8]
 8002380:	f423 62e0 	bic.w	r2, r3, #1792	; 0x700
 8002384:	687b      	ldr	r3, [r7, #4]
 8002386:	68db      	ldr	r3, [r3, #12]
 8002388:	4917      	ldr	r1, [pc, #92]	; (80023e8 <HAL_RCC_ClockConfig+0x264>)
 800238a:	4313      	orrs	r3, r2
 800238c:	608b      	str	r3, [r1, #8]
  }

  /*-------------------------- PCLK2 Configuration ---------------------------*/
  if(((RCC_ClkInitStruct->ClockType) & RCC_CLOCKTYPE_PCLK2) == RCC_CLOCKTYPE_PCLK2)
 800238e:	687b      	ldr	r3, [r7, #4]
 8002390:	681b      	ldr	r3, [r3, #0]
 8002392:	f003 0308 	and.w	r3, r3, #8
 8002396:	2b00      	cmp	r3, #0
 8002398:	d009      	beq.n	80023ae <HAL_RCC_ClockConfig+0x22a>
  {
    assert_param(IS_RCC_PCLK(RCC_ClkInitStruct->APB2CLKDivider));
    MODIFY_REG(RCC->CFGR, RCC_CFGR_PPRE2, ((RCC_ClkInitStruct->APB2CLKDivider) << 3U));
 800239a:	4b13      	ldr	r3, [pc, #76]	; (80023e8 <HAL_RCC_ClockConfig+0x264>)
 800239c:	689b      	ldr	r3, [r3, #8]
 800239e:	f423 5260 	bic.w	r2, r3, #14336	; 0x3800
 80023a2:	687b      	ldr	r3, [r7, #4]
 80023a4:	691b      	ldr	r3, [r3, #16]
 80023a6:	00db      	lsls	r3, r3, #3
 80023a8:	490f      	ldr	r1, [pc, #60]	; (80023e8 <HAL_RCC_ClockConfig+0x264>)
 80023aa:	4313      	orrs	r3, r2
 80023ac:	608b      	str	r3, [r1, #8]
  }

  /* Update the SystemCoreClock global variable */
  SystemCoreClock = HAL_RCC_GetSysClockFreq() >> (AHBPrescTable[READ_BIT(RCC->CFGR, RCC_CFGR_HPRE) >> RCC_CFGR_HPRE_Pos] & 0x1FU);
 80023ae:	f000 f825 	bl	80023fc <HAL_RCC_GetSysClockFreq>
 80023b2:	4601      	mov	r1, r0
 80023b4:	4b0c      	ldr	r3, [pc, #48]	; (80023e8 <HAL_RCC_ClockConfig+0x264>)
 80023b6:	689b      	ldr	r3, [r3, #8]
 80023b8:	091b      	lsrs	r3, r3, #4
 80023ba:	f003 030f 	and.w	r3, r3, #15
 80023be:	4a0c      	ldr	r2, [pc, #48]	; (80023f0 <HAL_RCC_ClockConfig+0x26c>)
 80023c0:	5cd3      	ldrb	r3, [r2, r3]
 80023c2:	f003 031f 	and.w	r3, r3, #31
 80023c6:	fa21 f303 	lsr.w	r3, r1, r3
 80023ca:	4a0a      	ldr	r2, [pc, #40]	; (80023f4 <HAL_RCC_ClockConfig+0x270>)
 80023cc:	6013      	str	r3, [r2, #0]

  /* Configure the source of time base considering new system clocks settings*/
  return HAL_InitTick(uwTickPrio);
 80023ce:	4b0a      	ldr	r3, [pc, #40]	; (80023f8 <HAL_RCC_ClockConfig+0x274>)
 80023d0:	681b      	ldr	r3, [r3, #0]
 80023d2:	4618      	mov	r0, r3
 80023d4:	f7fd ff38 	bl	8000248 <HAL_InitTick>
 80023d8:	4603      	mov	r3, r0
}
 80023da:	4618      	mov	r0, r3
 80023dc:	3718      	adds	r7, #24
 80023de:	46bd      	mov	sp, r7
 80023e0:	bd80      	pop	{r7, pc}
 80023e2:	bf00      	nop
 80023e4:	40022000 	.word	0x40022000
 80023e8:	40021000 	.word	0x40021000
 80023ec:	04c4b400 	.word	0x04c4b400
 80023f0:	080062cc 	.word	0x080062cc
 80023f4:	20000118 	.word	0x20000118
 80023f8:	20000000 	.word	0x20000000

080023fc <HAL_RCC_GetSysClockFreq>:
  *
  *
  * @retval SYSCLK frequency
  */
uint32_t HAL_RCC_GetSysClockFreq(void)
{
 80023fc:	b480      	push	{r7}
 80023fe:	b087      	sub	sp, #28
 8002400:	af00      	add	r7, sp, #0
  uint32_t pllvco, pllsource, pllr, pllm;
  uint32_t sysclockfreq;

  if (__HAL_RCC_GET_SYSCLK_SOURCE() == RCC_CFGR_SWS_HSI)
 8002402:	4b2c      	ldr	r3, [pc, #176]	; (80024b4 <HAL_RCC_GetSysClockFreq+0xb8>)
 8002404:	689b      	ldr	r3, [r3, #8]
 8002406:	f003 030c 	and.w	r3, r3, #12
 800240a:	2b04      	cmp	r3, #4
 800240c:	d102      	bne.n	8002414 <HAL_RCC_GetSysClockFreq+0x18>
  {
    /* HSI used as system clock source */
    sysclockfreq = HSI_VALUE;
 800240e:	4b2a      	ldr	r3, [pc, #168]	; (80024b8 <HAL_RCC_GetSysClockFreq+0xbc>)
 8002410:	613b      	str	r3, [r7, #16]
 8002412:	e047      	b.n	80024a4 <HAL_RCC_GetSysClockFreq+0xa8>
  }
  else if (__HAL_RCC_GET_SYSCLK_SOURCE() == RCC_CFGR_SWS_HSE)
 8002414:	4b27      	ldr	r3, [pc, #156]	; (80024b4 <HAL_RCC_GetSysClockFreq+0xb8>)
 8002416:	689b      	ldr	r3, [r3, #8]
 8002418:	f003 030c 	and.w	r3, r3, #12
 800241c:	2b08      	cmp	r3, #8
 800241e:	d102      	bne.n	8002426 <HAL_RCC_GetSysClockFreq+0x2a>
  {
    /* HSE used as system clock source */
    sysclockfreq = HSE_VALUE;
 8002420:	4b26      	ldr	r3, [pc, #152]	; (80024bc <HAL_RCC_GetSysClockFreq+0xc0>)
 8002422:	613b      	str	r3, [r7, #16]
 8002424:	e03e      	b.n	80024a4 <HAL_RCC_GetSysClockFreq+0xa8>
  }
  else if (__HAL_RCC_GET_SYSCLK_SOURCE() == RCC_CFGR_SWS_PLL)
 8002426:	4b23      	ldr	r3, [pc, #140]	; (80024b4 <HAL_RCC_GetSysClockFreq+0xb8>)
 8002428:	689b      	ldr	r3, [r3, #8]
 800242a:	f003 030c 	and.w	r3, r3, #12
 800242e:	2b0c      	cmp	r3, #12
 8002430:	d136      	bne.n	80024a0 <HAL_RCC_GetSysClockFreq+0xa4>
    /* PLL used as system clock  source */

    /* PLL_VCO = ((HSE_VALUE or HSI_VALUE)/ PLLM) * PLLN
    SYSCLK = PLL_VCO / PLLR
    */
    pllsource = READ_BIT(RCC->PLLCFGR, RCC_PLLCFGR_PLLSRC);
 8002432:	4b20      	ldr	r3, [pc, #128]	; (80024b4 <HAL_RCC_GetSysClockFreq+0xb8>)
 8002434:	68db      	ldr	r3, [r3, #12]
 8002436:	f003 0303 	and.w	r3, r3, #3
 800243a:	60fb      	str	r3, [r7, #12]
    pllm = (READ_BIT(RCC->PLLCFGR, RCC_PLLCFGR_PLLM) >> RCC_PLLCFGR_PLLM_Pos) + 1U ;
 800243c:	4b1d      	ldr	r3, [pc, #116]	; (80024b4 <HAL_RCC_GetSysClockFreq+0xb8>)
 800243e:	68db      	ldr	r3, [r3, #12]
 8002440:	091b      	lsrs	r3, r3, #4
 8002442:	f003 030f 	and.w	r3, r3, #15
 8002446:	3301      	adds	r3, #1
 8002448:	60bb      	str	r3, [r7, #8]

    switch (pllsource)
 800244a:	68fb      	ldr	r3, [r7, #12]
 800244c:	2b03      	cmp	r3, #3
 800244e:	d10c      	bne.n	800246a <HAL_RCC_GetSysClockFreq+0x6e>
    {
    case RCC_PLLSOURCE_HSE:  /* HSE used as PLL clock source */
      pllvco = (HSE_VALUE / pllm) * (READ_BIT(RCC->PLLCFGR, RCC_PLLCFGR_PLLN) >> RCC_PLLCFGR_PLLN_Pos);
 8002450:	4a1a      	ldr	r2, [pc, #104]	; (80024bc <HAL_RCC_GetSysClockFreq+0xc0>)
 8002452:	68bb      	ldr	r3, [r7, #8]
 8002454:	fbb2 f3f3 	udiv	r3, r2, r3
 8002458:	4a16      	ldr	r2, [pc, #88]	; (80024b4 <HAL_RCC_GetSysClockFreq+0xb8>)
 800245a:	68d2      	ldr	r2, [r2, #12]
 800245c:	0a12      	lsrs	r2, r2, #8
 800245e:	f002 027f 	and.w	r2, r2, #127	; 0x7f
 8002462:	fb02 f303 	mul.w	r3, r2, r3
 8002466:	617b      	str	r3, [r7, #20]
      break;
 8002468:	e00c      	b.n	8002484 <HAL_RCC_GetSysClockFreq+0x88>

    case RCC_PLLSOURCE_HSI:  /* HSI used as PLL clock source */
    default:
      pllvco = (HSI_VALUE / pllm) * (READ_BIT(RCC->PLLCFGR, RCC_PLLCFGR_PLLN) >> RCC_PLLCFGR_PLLN_Pos);
 800246a:	4a13      	ldr	r2, [pc, #76]	; (80024b8 <HAL_RCC_GetSysClockFreq+0xbc>)
 800246c:	68bb      	ldr	r3, [r7, #8]
 800246e:	fbb2 f3f3 	udiv	r3, r2, r3
 8002472:	4a10      	ldr	r2, [pc, #64]	; (80024b4 <HAL_RCC_GetSysClockFreq+0xb8>)
 8002474:	68d2      	ldr	r2, [r2, #12]
 8002476:	0a12      	lsrs	r2, r2, #8
 8002478:	f002 027f 	and.w	r2, r2, #127	; 0x7f
 800247c:	fb02 f303 	mul.w	r3, r2, r3
 8002480:	617b      	str	r3, [r7, #20]
      break;
 8002482:	bf00      	nop
    }
    pllr = ((READ_BIT(RCC->PLLCFGR, RCC_PLLCFGR_PLLR) >> RCC_PLLCFGR_PLLR_Pos) + 1U ) * 2U;
 8002484:	4b0b      	ldr	r3, [pc, #44]	; (80024b4 <HAL_RCC_GetSysClockFreq+0xb8>)
 8002486:	68db      	ldr	r3, [r3, #12]
 8002488:	0e5b      	lsrs	r3, r3, #25
 800248a:	f003 0303 	and.w	r3, r3, #3
 800248e:	3301      	adds	r3, #1
 8002490:	005b      	lsls	r3, r3, #1
 8002492:	607b      	str	r3, [r7, #4]
    sysclockfreq = pllvco/pllr;
 8002494:	697a      	ldr	r2, [r7, #20]
 8002496:	687b      	ldr	r3, [r7, #4]
 8002498:	fbb2 f3f3 	udiv	r3, r2, r3
 800249c:	613b      	str	r3, [r7, #16]
 800249e:	e001      	b.n	80024a4 <HAL_RCC_GetSysClockFreq+0xa8>
  }
  else
  {
    sysclockfreq = 0U;
 80024a0:	2300      	movs	r3, #0
 80024a2:	613b      	str	r3, [r7, #16]
  }

  return sysclockfreq;
 80024a4:	693b      	ldr	r3, [r7, #16]
}
 80024a6:	4618      	mov	r0, r3
 80024a8:	371c      	adds	r7, #28
 80024aa:	46bd      	mov	sp, r7
 80024ac:	f85d 7b04 	ldr.w	r7, [sp], #4
 80024b0:	4770      	bx	lr
 80024b2:	bf00      	nop
 80024b4:	40021000 	.word	0x40021000
 80024b8:	00f42400 	.word	0x00f42400
 80024bc:	007a1200 	.word	0x007a1200

080024c0 <RCC_GetSysClockFreqFromPLLSource>:
/**
  * @brief  Compute SYSCLK frequency based on PLL SYSCLK source.
  * @retval SYSCLK frequency
  */
static uint32_t RCC_GetSysClockFreqFromPLLSource(void)
{
 80024c0:	b480      	push	{r7}
 80024c2:	b087      	sub	sp, #28
 80024c4:	af00      	add	r7, sp, #0
  uint32_t sysclockfreq;

  /* PLL_VCO = (HSE_VALUE or HSI_VALUE/ PLLM) * PLLN
     SYSCLK = PLL_VCO / PLLR
   */
  pllsource = READ_BIT(RCC->PLLCFGR, RCC_PLLCFGR_PLLSRC);
 80024c6:	4b1e      	ldr	r3, [pc, #120]	; (8002540 <RCC_GetSysClockFreqFromPLLSource+0x80>)
 80024c8:	68db      	ldr	r3, [r3, #12]
 80024ca:	f003 0303 	and.w	r3, r3, #3
 80024ce:	613b      	str	r3, [r7, #16]
  pllm = (READ_BIT(RCC->PLLCFGR, RCC_PLLCFGR_PLLM) >> RCC_PLLCFGR_PLLM_Pos) + 1U ;
 80024d0:	4b1b      	ldr	r3, [pc, #108]	; (8002540 <RCC_GetSysClockFreqFromPLLSource+0x80>)
 80024d2:	68db      	ldr	r3, [r3, #12]
 80024d4:	091b      	lsrs	r3, r3, #4
 80024d6:	f003 030f 	and.w	r3, r3, #15
 80024da:	3301      	adds	r3, #1
 80024dc:	60fb      	str	r3, [r7, #12]

  switch (pllsource)
 80024de:	693b      	ldr	r3, [r7, #16]
 80024e0:	2b03      	cmp	r3, #3
 80024e2:	d10c      	bne.n	80024fe <RCC_GetSysClockFreqFromPLLSource+0x3e>
  {
  case RCC_PLLSOURCE_HSE:  /* HSE used as PLL clock source */
    pllvco = (HSE_VALUE / pllm) * (READ_BIT(RCC->PLLCFGR, RCC_PLLCFGR_PLLN) >> RCC_PLLCFGR_PLLN_Pos);
 80024e4:	4a17      	ldr	r2, [pc, #92]	; (8002544 <RCC_GetSysClockFreqFromPLLSource+0x84>)
 80024e6:	68fb      	ldr	r3, [r7, #12]
 80024e8:	fbb2 f3f3 	udiv	r3, r2, r3
 80024ec:	4a14      	ldr	r2, [pc, #80]	; (8002540 <RCC_GetSysClockFreqFromPLLSource+0x80>)
 80024ee:	68d2      	ldr	r2, [r2, #12]
 80024f0:	0a12      	lsrs	r2, r2, #8
 80024f2:	f002 027f 	and.w	r2, r2, #127	; 0x7f
 80024f6:	fb02 f303 	mul.w	r3, r2, r3
 80024fa:	617b      	str	r3, [r7, #20]
    break;
 80024fc:	e00c      	b.n	8002518 <RCC_GetSysClockFreqFromPLLSource+0x58>

  case RCC_PLLSOURCE_HSI:  /* HSI used as PLL clock source */
  default:
    pllvco = (HSI_VALUE / pllm) * (READ_BIT(RCC->PLLCFGR, RCC_PLLCFGR_PLLN) >> RCC_PLLCFGR_PLLN_Pos);
 80024fe:	4a12      	ldr	r2, [pc, #72]	; (8002548 <RCC_GetSysClockFreqFromPLLSource+0x88>)
 8002500:	68fb      	ldr	r3, [r7, #12]
 8002502:	fbb2 f3f3 	udiv	r3, r2, r3
 8002506:	4a0e      	ldr	r2, [pc, #56]	; (8002540 <RCC_GetSysClockFreqFromPLLSource+0x80>)
 8002508:	68d2      	ldr	r2, [r2, #12]
 800250a:	0a12      	lsrs	r2, r2, #8
 800250c:	f002 027f 	and.w	r2, r2, #127	; 0x7f
 8002510:	fb02 f303 	mul.w	r3, r2, r3
 8002514:	617b      	str	r3, [r7, #20]
    break;
 8002516:	bf00      	nop
  }

  pllr = ((READ_BIT(RCC->PLLCFGR, RCC_PLLCFGR_PLLR) >> RCC_PLLCFGR_PLLR_Pos) + 1U ) * 2U;
 8002518:	4b09      	ldr	r3, [pc, #36]	; (8002540 <RCC_GetSysClockFreqFromPLLSource+0x80>)
 800251a:	68db      	ldr	r3, [r3, #12]
 800251c:	0e5b      	lsrs	r3, r3, #25
 800251e:	f003 0303 	and.w	r3, r3, #3
 8002522:	3301      	adds	r3, #1
 8002524:	005b      	lsls	r3, r3, #1
 8002526:	60bb      	str	r3, [r7, #8]
  sysclockfreq = pllvco/pllr;
 8002528:	697a      	ldr	r2, [r7, #20]
 800252a:	68bb      	ldr	r3, [r7, #8]
 800252c:	fbb2 f3f3 	udiv	r3, r2, r3
 8002530:	607b      	str	r3, [r7, #4]

  return sysclockfreq;
 8002532:	687b      	ldr	r3, [r7, #4]
}
 8002534:	4618      	mov	r0, r3
 8002536:	371c      	adds	r7, #28
 8002538:	46bd      	mov	sp, r7
 800253a:	f85d 7b04 	ldr.w	r7, [sp], #4
 800253e:	4770      	bx	lr
 8002540:	40021000 	.word	0x40021000
 8002544:	007a1200 	.word	0x007a1200
 8002548:	00f42400 	.word	0x00f42400

0800254c <HAL_RCCEx_PeriphCLKConfig>:
  *         the RTC clock source: in this case the access to Backup domain is enabled.
  *
  * @retval HAL status
  */
HAL_StatusTypeDef HAL_RCCEx_PeriphCLKConfig(RCC_PeriphCLKInitTypeDef  *PeriphClkInit)
{
 800254c:	b580      	push	{r7, lr}
 800254e:	b086      	sub	sp, #24
 8002550:	af00      	add	r7, sp, #0
 8002552:	6078      	str	r0, [r7, #4]
  uint32_t tmpregister;
  uint32_t tickstart;
  HAL_StatusTypeDef ret = HAL_OK;      /* Intermediate status */
 8002554:	2300      	movs	r3, #0
 8002556:	74fb      	strb	r3, [r7, #19]
  HAL_StatusTypeDef status = HAL_OK;   /* Final status */
 8002558:	2300      	movs	r3, #0
 800255a:	74bb      	strb	r3, [r7, #18]

  /* Check the parameters */
  assert_param(IS_RCC_PERIPHCLOCK(PeriphClkInit->PeriphClockSelection));

  /*-------------------------- RTC clock source configuration ----------------------*/
  if((PeriphClkInit->PeriphClockSelection & RCC_PERIPHCLK_RTC) == RCC_PERIPHCLK_RTC)
 800255c:	687b      	ldr	r3, [r7, #4]
 800255e:	681b      	ldr	r3, [r3, #0]
 8002560:	f403 2300 	and.w	r3, r3, #524288	; 0x80000
 8002564:	2b00      	cmp	r3, #0
 8002566:	f000 8098 	beq.w	800269a <HAL_RCCEx_PeriphCLKConfig+0x14e>
  {
    FlagStatus       pwrclkchanged = RESET;
 800256a:	2300      	movs	r3, #0
 800256c:	747b      	strb	r3, [r7, #17]
    
    /* Check for RTC Parameters used to output RTCCLK */
    assert_param(IS_RCC_RTCCLKSOURCE(PeriphClkInit->RTCClockSelection));

    /* Enable Power Clock */
    if(__HAL_RCC_PWR_IS_CLK_DISABLED())
 800256e:	4b43      	ldr	r3, [pc, #268]	; (800267c <HAL_RCCEx_PeriphCLKConfig+0x130>)
 8002570:	6d9b      	ldr	r3, [r3, #88]	; 0x58
 8002572:	f003 5380 	and.w	r3, r3, #268435456	; 0x10000000
 8002576:	2b00      	cmp	r3, #0
 8002578:	d10d      	bne.n	8002596 <HAL_RCCEx_PeriphCLKConfig+0x4a>
    {
      __HAL_RCC_PWR_CLK_ENABLE();
 800257a:	4b40      	ldr	r3, [pc, #256]	; (800267c <HAL_RCCEx_PeriphCLKConfig+0x130>)
 800257c:	6d9b      	ldr	r3, [r3, #88]	; 0x58
 800257e:	4a3f      	ldr	r2, [pc, #252]	; (800267c <HAL_RCCEx_PeriphCLKConfig+0x130>)
 8002580:	f043 5380 	orr.w	r3, r3, #268435456	; 0x10000000
 8002584:	6593      	str	r3, [r2, #88]	; 0x58
 8002586:	4b3d      	ldr	r3, [pc, #244]	; (800267c <HAL_RCCEx_PeriphCLKConfig+0x130>)
 8002588:	6d9b      	ldr	r3, [r3, #88]	; 0x58
 800258a:	f003 5380 	and.w	r3, r3, #268435456	; 0x10000000
 800258e:	60bb      	str	r3, [r7, #8]
 8002590:	68bb      	ldr	r3, [r7, #8]
      pwrclkchanged = SET;
 8002592:	2301      	movs	r3, #1
 8002594:	747b      	strb	r3, [r7, #17]
    }
      
    /* Enable write access to Backup domain */
    SET_BIT(PWR->CR1, PWR_CR1_DBP);
 8002596:	4b3a      	ldr	r3, [pc, #232]	; (8002680 <HAL_RCCEx_PeriphCLKConfig+0x134>)
 8002598:	681b      	ldr	r3, [r3, #0]
 800259a:	4a39      	ldr	r2, [pc, #228]	; (8002680 <HAL_RCCEx_PeriphCLKConfig+0x134>)
 800259c:	f443 7380 	orr.w	r3, r3, #256	; 0x100
 80025a0:	6013      	str	r3, [r2, #0]

    /* Wait for Backup domain Write protection disable */
    tickstart = HAL_GetTick();
 80025a2:	f7fd fe9d 	bl	80002e0 <HAL_GetTick>
 80025a6:	60f8      	str	r0, [r7, #12]

    while((PWR->CR1 & PWR_CR1_DBP) == 0U)
 80025a8:	e009      	b.n	80025be <HAL_RCCEx_PeriphCLKConfig+0x72>
    {
      if((HAL_GetTick() - tickstart) > RCC_DBP_TIMEOUT_VALUE)
 80025aa:	f7fd fe99 	bl	80002e0 <HAL_GetTick>
 80025ae:	4602      	mov	r2, r0
 80025b0:	68fb      	ldr	r3, [r7, #12]
 80025b2:	1ad3      	subs	r3, r2, r3
 80025b4:	2b02      	cmp	r3, #2
 80025b6:	d902      	bls.n	80025be <HAL_RCCEx_PeriphCLKConfig+0x72>
      {
        ret = HAL_TIMEOUT;
 80025b8:	2303      	movs	r3, #3
 80025ba:	74fb      	strb	r3, [r7, #19]
        break;
 80025bc:	e005      	b.n	80025ca <HAL_RCCEx_PeriphCLKConfig+0x7e>
    while((PWR->CR1 & PWR_CR1_DBP) == 0U)
 80025be:	4b30      	ldr	r3, [pc, #192]	; (8002680 <HAL_RCCEx_PeriphCLKConfig+0x134>)
 80025c0:	681b      	ldr	r3, [r3, #0]
 80025c2:	f403 7380 	and.w	r3, r3, #256	; 0x100
 80025c6:	2b00      	cmp	r3, #0
 80025c8:	d0ef      	beq.n	80025aa <HAL_RCCEx_PeriphCLKConfig+0x5e>
      }
    }

    if(ret == HAL_OK)
 80025ca:	7cfb      	ldrb	r3, [r7, #19]
 80025cc:	2b00      	cmp	r3, #0
 80025ce:	d159      	bne.n	8002684 <HAL_RCCEx_PeriphCLKConfig+0x138>
    { 
      /* Reset the Backup domain only if the RTC Clock source selection is modified from default */
      tmpregister = READ_BIT(RCC->BDCR, RCC_BDCR_RTCSEL);
 80025d0:	4b2a      	ldr	r3, [pc, #168]	; (800267c <HAL_RCCEx_PeriphCLKConfig+0x130>)
 80025d2:	f8d3 3090 	ldr.w	r3, [r3, #144]	; 0x90
 80025d6:	f403 7340 	and.w	r3, r3, #768	; 0x300
 80025da:	617b      	str	r3, [r7, #20]
      
      if((tmpregister != RCC_RTCCLKSOURCE_NONE) && (tmpregister != PeriphClkInit->RTCClockSelection))
 80025dc:	697b      	ldr	r3, [r7, #20]
 80025de:	2b00      	cmp	r3, #0
 80025e0:	d01e      	beq.n	8002620 <HAL_RCCEx_PeriphCLKConfig+0xd4>
 80025e2:	687b      	ldr	r3, [r7, #4]
 80025e4:	6c1b      	ldr	r3, [r3, #64]	; 0x40
 80025e6:	697a      	ldr	r2, [r7, #20]
 80025e8:	429a      	cmp	r2, r3
 80025ea:	d019      	beq.n	8002620 <HAL_RCCEx_PeriphCLKConfig+0xd4>
      {
        /* Store the content of BDCR register before the reset of Backup Domain */
        tmpregister = READ_BIT(RCC->BDCR, ~(RCC_BDCR_RTCSEL));
 80025ec:	4b23      	ldr	r3, [pc, #140]	; (800267c <HAL_RCCEx_PeriphCLKConfig+0x130>)
 80025ee:	f8d3 3090 	ldr.w	r3, [r3, #144]	; 0x90
 80025f2:	f423 7340 	bic.w	r3, r3, #768	; 0x300
 80025f6:	617b      	str	r3, [r7, #20]
        /* RTC Clock selection can be changed only if the Backup Domain is reset */
        __HAL_RCC_BACKUPRESET_FORCE();
 80025f8:	4b20      	ldr	r3, [pc, #128]	; (800267c <HAL_RCCEx_PeriphCLKConfig+0x130>)
 80025fa:	f8d3 3090 	ldr.w	r3, [r3, #144]	; 0x90
 80025fe:	4a1f      	ldr	r2, [pc, #124]	; (800267c <HAL_RCCEx_PeriphCLKConfig+0x130>)
 8002600:	f443 3380 	orr.w	r3, r3, #65536	; 0x10000
 8002604:	f8c2 3090 	str.w	r3, [r2, #144]	; 0x90
        __HAL_RCC_BACKUPRESET_RELEASE();
 8002608:	4b1c      	ldr	r3, [pc, #112]	; (800267c <HAL_RCCEx_PeriphCLKConfig+0x130>)
 800260a:	f8d3 3090 	ldr.w	r3, [r3, #144]	; 0x90
 800260e:	4a1b      	ldr	r2, [pc, #108]	; (800267c <HAL_RCCEx_PeriphCLKConfig+0x130>)
 8002610:	f423 3380 	bic.w	r3, r3, #65536	; 0x10000
 8002614:	f8c2 3090 	str.w	r3, [r2, #144]	; 0x90
        /* Restore the Content of BDCR register */
        RCC->BDCR = tmpregister;
 8002618:	4a18      	ldr	r2, [pc, #96]	; (800267c <HAL_RCCEx_PeriphCLKConfig+0x130>)
 800261a:	697b      	ldr	r3, [r7, #20]
 800261c:	f8c2 3090 	str.w	r3, [r2, #144]	; 0x90
      }

      /* Wait for LSE reactivation if LSE was enable prior to Backup Domain reset */
      if (HAL_IS_BIT_SET(tmpregister, RCC_BDCR_LSEON))
 8002620:	697b      	ldr	r3, [r7, #20]
 8002622:	f003 0301 	and.w	r3, r3, #1
 8002626:	2b00      	cmp	r3, #0
 8002628:	d016      	beq.n	8002658 <HAL_RCCEx_PeriphCLKConfig+0x10c>
      {
        /* Get Start Tick*/
        tickstart = HAL_GetTick();
 800262a:	f7fd fe59 	bl	80002e0 <HAL_GetTick>
 800262e:	60f8      	str	r0, [r7, #12]

        /* Wait till LSE is ready */
        while(READ_BIT(RCC->BDCR, RCC_BDCR_LSERDY) == 0U)
 8002630:	e00b      	b.n	800264a <HAL_RCCEx_PeriphCLKConfig+0xfe>
        {
          if((HAL_GetTick() - tickstart) > RCC_LSE_TIMEOUT_VALUE)
 8002632:	f7fd fe55 	bl	80002e0 <HAL_GetTick>
 8002636:	4602      	mov	r2, r0
 8002638:	68fb      	ldr	r3, [r7, #12]
 800263a:	1ad3      	subs	r3, r2, r3
 800263c:	f241 3288 	movw	r2, #5000	; 0x1388
 8002640:	4293      	cmp	r3, r2
 8002642:	d902      	bls.n	800264a <HAL_RCCEx_PeriphCLKConfig+0xfe>
          {
            ret = HAL_TIMEOUT;
 8002644:	2303      	movs	r3, #3
 8002646:	74fb      	strb	r3, [r7, #19]
            break;
 8002648:	e006      	b.n	8002658 <HAL_RCCEx_PeriphCLKConfig+0x10c>
        while(READ_BIT(RCC->BDCR, RCC_BDCR_LSERDY) == 0U)
 800264a:	4b0c      	ldr	r3, [pc, #48]	; (800267c <HAL_RCCEx_PeriphCLKConfig+0x130>)
 800264c:	f8d3 3090 	ldr.w	r3, [r3, #144]	; 0x90
 8002650:	f003 0302 	and.w	r3, r3, #2
 8002654:	2b00      	cmp	r3, #0
 8002656:	d0ec      	beq.n	8002632 <HAL_RCCEx_PeriphCLKConfig+0xe6>
          }
        }
      }
      
      if(ret == HAL_OK)
 8002658:	7cfb      	ldrb	r3, [r7, #19]
 800265a:	2b00      	cmp	r3, #0
 800265c:	d10b      	bne.n	8002676 <HAL_RCCEx_PeriphCLKConfig+0x12a>
      {
        /* Apply new RTC clock source selection */
        __HAL_RCC_RTC_CONFIG(PeriphClkInit->RTCClockSelection);
 800265e:	4b07      	ldr	r3, [pc, #28]	; (800267c <HAL_RCCEx_PeriphCLKConfig+0x130>)
 8002660:	f8d3 3090 	ldr.w	r3, [r3, #144]	; 0x90
 8002664:	f423 7240 	bic.w	r2, r3, #768	; 0x300
 8002668:	687b      	ldr	r3, [r7, #4]
 800266a:	6c1b      	ldr	r3, [r3, #64]	; 0x40
 800266c:	4903      	ldr	r1, [pc, #12]	; (800267c <HAL_RCCEx_PeriphCLKConfig+0x130>)
 800266e:	4313      	orrs	r3, r2
 8002670:	f8c1 3090 	str.w	r3, [r1, #144]	; 0x90
 8002674:	e008      	b.n	8002688 <HAL_RCCEx_PeriphCLKConfig+0x13c>
      }
      else
      {
        /* set overall return value */
        status = ret;
 8002676:	7cfb      	ldrb	r3, [r7, #19]
 8002678:	74bb      	strb	r3, [r7, #18]
 800267a:	e005      	b.n	8002688 <HAL_RCCEx_PeriphCLKConfig+0x13c>
 800267c:	40021000 	.word	0x40021000
 8002680:	40007000 	.word	0x40007000
      }
    }
    else
    {
      /* set overall return value */
      status = ret;
 8002684:	7cfb      	ldrb	r3, [r7, #19]
 8002686:	74bb      	strb	r3, [r7, #18]
    }

    /* Restore clock configuration if changed */
    if(pwrclkchanged == SET)
 8002688:	7c7b      	ldrb	r3, [r7, #17]
 800268a:	2b01      	cmp	r3, #1
 800268c:	d105      	bne.n	800269a <HAL_RCCEx_PeriphCLKConfig+0x14e>
    {
      __HAL_RCC_PWR_CLK_DISABLE();
 800268e:	4ba6      	ldr	r3, [pc, #664]	; (8002928 <HAL_RCCEx_PeriphCLKConfig+0x3dc>)
 8002690:	6d9b      	ldr	r3, [r3, #88]	; 0x58
 8002692:	4aa5      	ldr	r2, [pc, #660]	; (8002928 <HAL_RCCEx_PeriphCLKConfig+0x3dc>)
 8002694:	f023 5380 	bic.w	r3, r3, #268435456	; 0x10000000
 8002698:	6593      	str	r3, [r2, #88]	; 0x58
    }
  }

  /*-------------------------- USART1 clock source configuration -------------------*/
  if(((PeriphClkInit->PeriphClockSelection) & RCC_PERIPHCLK_USART1) == RCC_PERIPHCLK_USART1)
 800269a:	687b      	ldr	r3, [r7, #4]
 800269c:	681b      	ldr	r3, [r3, #0]
 800269e:	f003 0301 	and.w	r3, r3, #1
 80026a2:	2b00      	cmp	r3, #0
 80026a4:	d00a      	beq.n	80026bc <HAL_RCCEx_PeriphCLKConfig+0x170>
  {
    /* Check the parameters */
    assert_param(IS_RCC_USART1CLKSOURCE(PeriphClkInit->Usart1ClockSelection));

    /* Configure the USART1 clock source */
    __HAL_RCC_USART1_CONFIG(PeriphClkInit->Usart1ClockSelection);
 80026a6:	4ba0      	ldr	r3, [pc, #640]	; (8002928 <HAL_RCCEx_PeriphCLKConfig+0x3dc>)
 80026a8:	f8d3 3088 	ldr.w	r3, [r3, #136]	; 0x88
 80026ac:	f023 0203 	bic.w	r2, r3, #3
 80026b0:	687b      	ldr	r3, [r7, #4]
 80026b2:	685b      	ldr	r3, [r3, #4]
 80026b4:	499c      	ldr	r1, [pc, #624]	; (8002928 <HAL_RCCEx_PeriphCLKConfig+0x3dc>)
 80026b6:	4313      	orrs	r3, r2
 80026b8:	f8c1 3088 	str.w	r3, [r1, #136]	; 0x88
  }

  /*-------------------------- USART2 clock source configuration -------------------*/
  if(((PeriphClkInit->PeriphClockSelection) & RCC_PERIPHCLK_USART2) == RCC_PERIPHCLK_USART2)
 80026bc:	687b      	ldr	r3, [r7, #4]
 80026be:	681b      	ldr	r3, [r3, #0]
 80026c0:	f003 0302 	and.w	r3, r3, #2
 80026c4:	2b00      	cmp	r3, #0
 80026c6:	d00a      	beq.n	80026de <HAL_RCCEx_PeriphCLKConfig+0x192>
  {
    /* Check the parameters */
    assert_param(IS_RCC_USART2CLKSOURCE(PeriphClkInit->Usart2ClockSelection));

    /* Configure the USART2 clock source */
    __HAL_RCC_USART2_CONFIG(PeriphClkInit->Usart2ClockSelection);
 80026c8:	4b97      	ldr	r3, [pc, #604]	; (8002928 <HAL_RCCEx_PeriphCLKConfig+0x3dc>)
 80026ca:	f8d3 3088 	ldr.w	r3, [r3, #136]	; 0x88
 80026ce:	f023 020c 	bic.w	r2, r3, #12
 80026d2:	687b      	ldr	r3, [r7, #4]
 80026d4:	689b      	ldr	r3, [r3, #8]
 80026d6:	4994      	ldr	r1, [pc, #592]	; (8002928 <HAL_RCCEx_PeriphCLKConfig+0x3dc>)
 80026d8:	4313      	orrs	r3, r2
 80026da:	f8c1 3088 	str.w	r3, [r1, #136]	; 0x88
  }

  /*-------------------------- USART3 clock source configuration -------------------*/
  if(((PeriphClkInit->PeriphClockSelection) & RCC_PERIPHCLK_USART3) == RCC_PERIPHCLK_USART3)
 80026de:	687b      	ldr	r3, [r7, #4]
 80026e0:	681b      	ldr	r3, [r3, #0]
 80026e2:	f003 0304 	and.w	r3, r3, #4
 80026e6:	2b00      	cmp	r3, #0
 80026e8:	d00a      	beq.n	8002700 <HAL_RCCEx_PeriphCLKConfig+0x1b4>
  {
    /* Check the parameters */
    assert_param(IS_RCC_USART3CLKSOURCE(PeriphClkInit->Usart3ClockSelection));

    /* Configure the USART3 clock source */
    __HAL_RCC_USART3_CONFIG(PeriphClkInit->Usart3ClockSelection);
 80026ea:	4b8f      	ldr	r3, [pc, #572]	; (8002928 <HAL_RCCEx_PeriphCLKConfig+0x3dc>)
 80026ec:	f8d3 3088 	ldr.w	r3, [r3, #136]	; 0x88
 80026f0:	f023 0230 	bic.w	r2, r3, #48	; 0x30
 80026f4:	687b      	ldr	r3, [r7, #4]
 80026f6:	68db      	ldr	r3, [r3, #12]
 80026f8:	498b      	ldr	r1, [pc, #556]	; (8002928 <HAL_RCCEx_PeriphCLKConfig+0x3dc>)
 80026fa:	4313      	orrs	r3, r2
 80026fc:	f8c1 3088 	str.w	r3, [r1, #136]	; 0x88
  }

#if defined(UART4)
  /*-------------------------- UART4 clock source configuration --------------------*/
  if(((PeriphClkInit->PeriphClockSelection) & RCC_PERIPHCLK_UART4) == RCC_PERIPHCLK_UART4)
 8002700:	687b      	ldr	r3, [r7, #4]
 8002702:	681b      	ldr	r3, [r3, #0]
 8002704:	f003 0308 	and.w	r3, r3, #8
 8002708:	2b00      	cmp	r3, #0
 800270a:	d00a      	beq.n	8002722 <HAL_RCCEx_PeriphCLKConfig+0x1d6>
  {
    /* Check the parameters */
    assert_param(IS_RCC_UART4CLKSOURCE(PeriphClkInit->Uart4ClockSelection));

    /* Configure the UART4 clock source */
    __HAL_RCC_UART4_CONFIG(PeriphClkInit->Uart4ClockSelection);
 800270c:	4b86      	ldr	r3, [pc, #536]	; (8002928 <HAL_RCCEx_PeriphCLKConfig+0x3dc>)
 800270e:	f8d3 3088 	ldr.w	r3, [r3, #136]	; 0x88
 8002712:	f023 02c0 	bic.w	r2, r3, #192	; 0xc0
 8002716:	687b      	ldr	r3, [r7, #4]
 8002718:	691b      	ldr	r3, [r3, #16]
 800271a:	4983      	ldr	r1, [pc, #524]	; (8002928 <HAL_RCCEx_PeriphCLKConfig+0x3dc>)
 800271c:	4313      	orrs	r3, r2
 800271e:	f8c1 3088 	str.w	r3, [r1, #136]	; 0x88
  }

#endif /* UART5 */

  /*-------------------------- LPUART1 clock source configuration ------------------*/
  if(((PeriphClkInit->PeriphClockSelection) & RCC_PERIPHCLK_LPUART1) == RCC_PERIPHCLK_LPUART1)
 8002722:	687b      	ldr	r3, [r7, #4]
 8002724:	681b      	ldr	r3, [r3, #0]
 8002726:	f003 0320 	and.w	r3, r3, #32
 800272a:	2b00      	cmp	r3, #0
 800272c:	d00a      	beq.n	8002744 <HAL_RCCEx_PeriphCLKConfig+0x1f8>
  {
    /* Check the parameters */
    assert_param(IS_RCC_LPUART1CLKSOURCE(PeriphClkInit->Lpuart1ClockSelection));

    /* Configure the LPUAR1 clock source */
    __HAL_RCC_LPUART1_CONFIG(PeriphClkInit->Lpuart1ClockSelection);
 800272e:	4b7e      	ldr	r3, [pc, #504]	; (8002928 <HAL_RCCEx_PeriphCLKConfig+0x3dc>)
 8002730:	f8d3 3088 	ldr.w	r3, [r3, #136]	; 0x88
 8002734:	f423 6240 	bic.w	r2, r3, #3072	; 0xc00
 8002738:	687b      	ldr	r3, [r7, #4]
 800273a:	695b      	ldr	r3, [r3, #20]
 800273c:	497a      	ldr	r1, [pc, #488]	; (8002928 <HAL_RCCEx_PeriphCLKConfig+0x3dc>)
 800273e:	4313      	orrs	r3, r2
 8002740:	f8c1 3088 	str.w	r3, [r1, #136]	; 0x88
  }

  /*-------------------------- I2C1 clock source configuration ---------------------*/
  if(((PeriphClkInit->PeriphClockSelection) & RCC_PERIPHCLK_I2C1) == RCC_PERIPHCLK_I2C1)
 8002744:	687b      	ldr	r3, [r7, #4]
 8002746:	681b      	ldr	r3, [r3, #0]
 8002748:	f003 0340 	and.w	r3, r3, #64	; 0x40
 800274c:	2b00      	cmp	r3, #0
 800274e:	d00a      	beq.n	8002766 <HAL_RCCEx_PeriphCLKConfig+0x21a>
  {
    /* Check the parameters */
    assert_param(IS_RCC_I2C1CLKSOURCE(PeriphClkInit->I2c1ClockSelection));

    /* Configure the I2C1 clock source */
    __HAL_RCC_I2C1_CONFIG(PeriphClkInit->I2c1ClockSelection);
 8002750:	4b75      	ldr	r3, [pc, #468]	; (8002928 <HAL_RCCEx_PeriphCLKConfig+0x3dc>)
 8002752:	f8d3 3088 	ldr.w	r3, [r3, #136]	; 0x88
 8002756:	f423 5240 	bic.w	r2, r3, #12288	; 0x3000
 800275a:	687b      	ldr	r3, [r7, #4]
 800275c:	699b      	ldr	r3, [r3, #24]
 800275e:	4972      	ldr	r1, [pc, #456]	; (8002928 <HAL_RCCEx_PeriphCLKConfig+0x3dc>)
 8002760:	4313      	orrs	r3, r2
 8002762:	f8c1 3088 	str.w	r3, [r1, #136]	; 0x88
  }

  /*-------------------------- I2C2 clock source configuration ---------------------*/
  if(((PeriphClkInit->PeriphClockSelection) & RCC_PERIPHCLK_I2C2) == RCC_PERIPHCLK_I2C2)
 8002766:	687b      	ldr	r3, [r7, #4]
 8002768:	681b      	ldr	r3, [r3, #0]
 800276a:	f003 0380 	and.w	r3, r3, #128	; 0x80
 800276e:	2b00      	cmp	r3, #0
 8002770:	d00a      	beq.n	8002788 <HAL_RCCEx_PeriphCLKConfig+0x23c>
  {
    /* Check the parameters */
    assert_param(IS_RCC_I2C2CLKSOURCE(PeriphClkInit->I2c2ClockSelection));

    /* Configure the I2C2 clock source */
    __HAL_RCC_I2C2_CONFIG(PeriphClkInit->I2c2ClockSelection);
 8002772:	4b6d      	ldr	r3, [pc, #436]	; (8002928 <HAL_RCCEx_PeriphCLKConfig+0x3dc>)
 8002774:	f8d3 3088 	ldr.w	r3, [r3, #136]	; 0x88
 8002778:	f423 4240 	bic.w	r2, r3, #49152	; 0xc000
 800277c:	687b      	ldr	r3, [r7, #4]
 800277e:	69db      	ldr	r3, [r3, #28]
 8002780:	4969      	ldr	r1, [pc, #420]	; (8002928 <HAL_RCCEx_PeriphCLKConfig+0x3dc>)
 8002782:	4313      	orrs	r3, r2
 8002784:	f8c1 3088 	str.w	r3, [r1, #136]	; 0x88
  }

  /*-------------------------- I2C3 clock source configuration ---------------------*/
  if(((PeriphClkInit->PeriphClockSelection) & RCC_PERIPHCLK_I2C3) == RCC_PERIPHCLK_I2C3)
 8002788:	687b      	ldr	r3, [r7, #4]
 800278a:	681b      	ldr	r3, [r3, #0]
 800278c:	f403 7380 	and.w	r3, r3, #256	; 0x100
 8002790:	2b00      	cmp	r3, #0
 8002792:	d00a      	beq.n	80027aa <HAL_RCCEx_PeriphCLKConfig+0x25e>
  {
    /* Check the parameters */
    assert_param(IS_RCC_I2C3CLKSOURCE(PeriphClkInit->I2c3ClockSelection));

    /* Configure the I2C3 clock source */
    __HAL_RCC_I2C3_CONFIG(PeriphClkInit->I2c3ClockSelection);
 8002794:	4b64      	ldr	r3, [pc, #400]	; (8002928 <HAL_RCCEx_PeriphCLKConfig+0x3dc>)
 8002796:	f8d3 3088 	ldr.w	r3, [r3, #136]	; 0x88
 800279a:	f423 3240 	bic.w	r2, r3, #196608	; 0x30000
 800279e:	687b      	ldr	r3, [r7, #4]
 80027a0:	6a1b      	ldr	r3, [r3, #32]
 80027a2:	4961      	ldr	r1, [pc, #388]	; (8002928 <HAL_RCCEx_PeriphCLKConfig+0x3dc>)
 80027a4:	4313      	orrs	r3, r2
 80027a6:	f8c1 3088 	str.w	r3, [r1, #136]	; 0x88
  }

#endif /* I2C4 */

  /*-------------------------- LPTIM1 clock source configuration ---------------------*/
  if(((PeriphClkInit->PeriphClockSelection) & RCC_PERIPHCLK_LPTIM1) == RCC_PERIPHCLK_LPTIM1)
 80027aa:	687b      	ldr	r3, [r7, #4]
 80027ac:	681b      	ldr	r3, [r3, #0]
 80027ae:	f403 7300 	and.w	r3, r3, #512	; 0x200
 80027b2:	2b00      	cmp	r3, #0
 80027b4:	d00a      	beq.n	80027cc <HAL_RCCEx_PeriphCLKConfig+0x280>
  {
    /* Check the parameters */
    assert_param(IS_RCC_LPTIM1CLKSOURCE(PeriphClkInit->Lptim1ClockSelection));

    /* Configure the LPTIM1 clock source */
    __HAL_RCC_LPTIM1_CONFIG(PeriphClkInit->Lptim1ClockSelection);
 80027b6:	4b5c      	ldr	r3, [pc, #368]	; (8002928 <HAL_RCCEx_PeriphCLKConfig+0x3dc>)
 80027b8:	f8d3 3088 	ldr.w	r3, [r3, #136]	; 0x88
 80027bc:	f423 2240 	bic.w	r2, r3, #786432	; 0xc0000
 80027c0:	687b      	ldr	r3, [r7, #4]
 80027c2:	6a5b      	ldr	r3, [r3, #36]	; 0x24
 80027c4:	4958      	ldr	r1, [pc, #352]	; (8002928 <HAL_RCCEx_PeriphCLKConfig+0x3dc>)
 80027c6:	4313      	orrs	r3, r2
 80027c8:	f8c1 3088 	str.w	r3, [r1, #136]	; 0x88
  }

  /*-------------------------- SAI1 clock source configuration ---------------------*/
  if(((PeriphClkInit->PeriphClockSelection) & RCC_PERIPHCLK_SAI1) == RCC_PERIPHCLK_SAI1)
 80027cc:	687b      	ldr	r3, [r7, #4]
 80027ce:	681b      	ldr	r3, [r3, #0]
 80027d0:	f403 6380 	and.w	r3, r3, #1024	; 0x400
 80027d4:	2b00      	cmp	r3, #0
 80027d6:	d015      	beq.n	8002804 <HAL_RCCEx_PeriphCLKConfig+0x2b8>
  {
    /* Check the parameters */
    assert_param(IS_RCC_SAI1CLKSOURCE(PeriphClkInit->Sai1ClockSelection));

    /* Configure the SAI1 interface clock source */
    __HAL_RCC_SAI1_CONFIG(PeriphClkInit->Sai1ClockSelection);
 80027d8:	4b53      	ldr	r3, [pc, #332]	; (8002928 <HAL_RCCEx_PeriphCLKConfig+0x3dc>)
 80027da:	f8d3 3088 	ldr.w	r3, [r3, #136]	; 0x88
 80027de:	f423 1240 	bic.w	r2, r3, #3145728	; 0x300000
 80027e2:	687b      	ldr	r3, [r7, #4]
 80027e4:	6a9b      	ldr	r3, [r3, #40]	; 0x28
 80027e6:	4950      	ldr	r1, [pc, #320]	; (8002928 <HAL_RCCEx_PeriphCLKConfig+0x3dc>)
 80027e8:	4313      	orrs	r3, r2
 80027ea:	f8c1 3088 	str.w	r3, [r1, #136]	; 0x88
    
    if(PeriphClkInit->Sai1ClockSelection == RCC_SAI1CLKSOURCE_PLL)
 80027ee:	687b      	ldr	r3, [r7, #4]
 80027f0:	6a9b      	ldr	r3, [r3, #40]	; 0x28
 80027f2:	f5b3 1f80 	cmp.w	r3, #1048576	; 0x100000
 80027f6:	d105      	bne.n	8002804 <HAL_RCCEx_PeriphCLKConfig+0x2b8>
    {
      /* Enable PLL48M1CLK output */
      __HAL_RCC_PLLCLKOUT_ENABLE(RCC_PLL_48M1CLK);
 80027f8:	4b4b      	ldr	r3, [pc, #300]	; (8002928 <HAL_RCCEx_PeriphCLKConfig+0x3dc>)
 80027fa:	68db      	ldr	r3, [r3, #12]
 80027fc:	4a4a      	ldr	r2, [pc, #296]	; (8002928 <HAL_RCCEx_PeriphCLKConfig+0x3dc>)
 80027fe:	f443 1380 	orr.w	r3, r3, #1048576	; 0x100000
 8002802:	60d3      	str	r3, [r2, #12]
    }
  }

  /*-------------------------- I2S clock source configuration ---------------------*/
  if(((PeriphClkInit->PeriphClockSelection) & RCC_PERIPHCLK_I2S) == RCC_PERIPHCLK_I2S)
 8002804:	687b      	ldr	r3, [r7, #4]
 8002806:	681b      	ldr	r3, [r3, #0]
 8002808:	f403 6300 	and.w	r3, r3, #2048	; 0x800
 800280c:	2b00      	cmp	r3, #0
 800280e:	d015      	beq.n	800283c <HAL_RCCEx_PeriphCLKConfig+0x2f0>
  {
    /* Check the parameters */
    assert_param(IS_RCC_I2SCLKSOURCE(PeriphClkInit->I2sClockSelection));

    /* Configure the I2S interface clock source */
    __HAL_RCC_I2S_CONFIG(PeriphClkInit->I2sClockSelection);
 8002810:	4b45      	ldr	r3, [pc, #276]	; (8002928 <HAL_RCCEx_PeriphCLKConfig+0x3dc>)
 8002812:	f8d3 3088 	ldr.w	r3, [r3, #136]	; 0x88
 8002816:	f423 0240 	bic.w	r2, r3, #12582912	; 0xc00000
 800281a:	687b      	ldr	r3, [r7, #4]
 800281c:	6adb      	ldr	r3, [r3, #44]	; 0x2c
 800281e:	4942      	ldr	r1, [pc, #264]	; (8002928 <HAL_RCCEx_PeriphCLKConfig+0x3dc>)
 8002820:	4313      	orrs	r3, r2
 8002822:	f8c1 3088 	str.w	r3, [r1, #136]	; 0x88
    
    if(PeriphClkInit->I2sClockSelection == RCC_I2SCLKSOURCE_PLL)
 8002826:	687b      	ldr	r3, [r7, #4]
 8002828:	6adb      	ldr	r3, [r3, #44]	; 0x2c
 800282a:	f5b3 0f80 	cmp.w	r3, #4194304	; 0x400000
 800282e:	d105      	bne.n	800283c <HAL_RCCEx_PeriphCLKConfig+0x2f0>
    {
      /* Enable PLL48M1CLK output */
      __HAL_RCC_PLLCLKOUT_ENABLE(RCC_PLL_48M1CLK);
 8002830:	4b3d      	ldr	r3, [pc, #244]	; (8002928 <HAL_RCCEx_PeriphCLKConfig+0x3dc>)
 8002832:	68db      	ldr	r3, [r3, #12]
 8002834:	4a3c      	ldr	r2, [pc, #240]	; (8002928 <HAL_RCCEx_PeriphCLKConfig+0x3dc>)
 8002836:	f443 1380 	orr.w	r3, r3, #1048576	; 0x100000
 800283a:	60d3      	str	r3, [r2, #12]
    }
  }

#if defined(FDCAN1)
  /*-------------------------- FDCAN clock source configuration ---------------------*/
  if(((PeriphClkInit->PeriphClockSelection) & RCC_PERIPHCLK_FDCAN) == RCC_PERIPHCLK_FDCAN)
 800283c:	687b      	ldr	r3, [r7, #4]
 800283e:	681b      	ldr	r3, [r3, #0]
 8002840:	f403 5380 	and.w	r3, r3, #4096	; 0x1000
 8002844:	2b00      	cmp	r3, #0
 8002846:	d015      	beq.n	8002874 <HAL_RCCEx_PeriphCLKConfig+0x328>
  {
    /* Check the parameters */
    assert_param(IS_RCC_FDCANCLKSOURCE(PeriphClkInit->FdcanClockSelection));

    /* Configure the FDCAN interface clock source */
    __HAL_RCC_FDCAN_CONFIG(PeriphClkInit->FdcanClockSelection);
 8002848:	4b37      	ldr	r3, [pc, #220]	; (8002928 <HAL_RCCEx_PeriphCLKConfig+0x3dc>)
 800284a:	f8d3 3088 	ldr.w	r3, [r3, #136]	; 0x88
 800284e:	f023 7240 	bic.w	r2, r3, #50331648	; 0x3000000
 8002852:	687b      	ldr	r3, [r7, #4]
 8002854:	6b1b      	ldr	r3, [r3, #48]	; 0x30
 8002856:	4934      	ldr	r1, [pc, #208]	; (8002928 <HAL_RCCEx_PeriphCLKConfig+0x3dc>)
 8002858:	4313      	orrs	r3, r2
 800285a:	f8c1 3088 	str.w	r3, [r1, #136]	; 0x88
    
    if(PeriphClkInit->FdcanClockSelection == RCC_FDCANCLKSOURCE_PLL)
 800285e:	687b      	ldr	r3, [r7, #4]
 8002860:	6b1b      	ldr	r3, [r3, #48]	; 0x30
 8002862:	f1b3 7f80 	cmp.w	r3, #16777216	; 0x1000000
 8002866:	d105      	bne.n	8002874 <HAL_RCCEx_PeriphCLKConfig+0x328>
    {
      /* Enable PLL48M1CLK output */
      __HAL_RCC_PLLCLKOUT_ENABLE(RCC_PLL_48M1CLK);
 8002868:	4b2f      	ldr	r3, [pc, #188]	; (8002928 <HAL_RCCEx_PeriphCLKConfig+0x3dc>)
 800286a:	68db      	ldr	r3, [r3, #12]
 800286c:	4a2e      	ldr	r2, [pc, #184]	; (8002928 <HAL_RCCEx_PeriphCLKConfig+0x3dc>)
 800286e:	f443 1380 	orr.w	r3, r3, #1048576	; 0x100000
 8002872:	60d3      	str	r3, [r2, #12]
#endif /* FDCAN1 */

#if defined(USB)

  /*-------------------------- USB clock source configuration ----------------------*/
  if(((PeriphClkInit->PeriphClockSelection) & RCC_PERIPHCLK_USB) == (RCC_PERIPHCLK_USB))
 8002874:	687b      	ldr	r3, [r7, #4]
 8002876:	681b      	ldr	r3, [r3, #0]
 8002878:	f403 5300 	and.w	r3, r3, #8192	; 0x2000
 800287c:	2b00      	cmp	r3, #0
 800287e:	d015      	beq.n	80028ac <HAL_RCCEx_PeriphCLKConfig+0x360>
  {
    assert_param(IS_RCC_USBCLKSOURCE(PeriphClkInit->UsbClockSelection));
    __HAL_RCC_USB_CONFIG(PeriphClkInit->UsbClockSelection);
 8002880:	4b29      	ldr	r3, [pc, #164]	; (8002928 <HAL_RCCEx_PeriphCLKConfig+0x3dc>)
 8002882:	f8d3 3088 	ldr.w	r3, [r3, #136]	; 0x88
 8002886:	f023 6240 	bic.w	r2, r3, #201326592	; 0xc000000
 800288a:	687b      	ldr	r3, [r7, #4]
 800288c:	6b5b      	ldr	r3, [r3, #52]	; 0x34
 800288e:	4926      	ldr	r1, [pc, #152]	; (8002928 <HAL_RCCEx_PeriphCLKConfig+0x3dc>)
 8002890:	4313      	orrs	r3, r2
 8002892:	f8c1 3088 	str.w	r3, [r1, #136]	; 0x88

    if(PeriphClkInit->UsbClockSelection == RCC_USBCLKSOURCE_PLL)
 8002896:	687b      	ldr	r3, [r7, #4]
 8002898:	6b5b      	ldr	r3, [r3, #52]	; 0x34
 800289a:	f1b3 6f00 	cmp.w	r3, #134217728	; 0x8000000
 800289e:	d105      	bne.n	80028ac <HAL_RCCEx_PeriphCLKConfig+0x360>
    {
      /* Enable PLL48M1CLK output */
      __HAL_RCC_PLLCLKOUT_ENABLE(RCC_PLL_48M1CLK);
 80028a0:	4b21      	ldr	r3, [pc, #132]	; (8002928 <HAL_RCCEx_PeriphCLKConfig+0x3dc>)
 80028a2:	68db      	ldr	r3, [r3, #12]
 80028a4:	4a20      	ldr	r2, [pc, #128]	; (8002928 <HAL_RCCEx_PeriphCLKConfig+0x3dc>)
 80028a6:	f443 1380 	orr.w	r3, r3, #1048576	; 0x100000
 80028aa:	60d3      	str	r3, [r2, #12]
  }

#endif /* USB */

  /*-------------------------- RNG clock source configuration ----------------------*/
  if(((PeriphClkInit->PeriphClockSelection) & RCC_PERIPHCLK_RNG) == (RCC_PERIPHCLK_RNG))
 80028ac:	687b      	ldr	r3, [r7, #4]
 80028ae:	681b      	ldr	r3, [r3, #0]
 80028b0:	f403 4380 	and.w	r3, r3, #16384	; 0x4000
 80028b4:	2b00      	cmp	r3, #0
 80028b6:	d015      	beq.n	80028e4 <HAL_RCCEx_PeriphCLKConfig+0x398>
  {
    assert_param(IS_RCC_RNGCLKSOURCE(PeriphClkInit->RngClockSelection));
    __HAL_RCC_RNG_CONFIG(PeriphClkInit->RngClockSelection);
 80028b8:	4b1b      	ldr	r3, [pc, #108]	; (8002928 <HAL_RCCEx_PeriphCLKConfig+0x3dc>)
 80028ba:	f8d3 3088 	ldr.w	r3, [r3, #136]	; 0x88
 80028be:	f023 6240 	bic.w	r2, r3, #201326592	; 0xc000000
 80028c2:	687b      	ldr	r3, [r7, #4]
 80028c4:	6b9b      	ldr	r3, [r3, #56]	; 0x38
 80028c6:	4918      	ldr	r1, [pc, #96]	; (8002928 <HAL_RCCEx_PeriphCLKConfig+0x3dc>)
 80028c8:	4313      	orrs	r3, r2
 80028ca:	f8c1 3088 	str.w	r3, [r1, #136]	; 0x88

    if(PeriphClkInit->RngClockSelection == RCC_RNGCLKSOURCE_PLL)
 80028ce:	687b      	ldr	r3, [r7, #4]
 80028d0:	6b9b      	ldr	r3, [r3, #56]	; 0x38
 80028d2:	f1b3 6f00 	cmp.w	r3, #134217728	; 0x8000000
 80028d6:	d105      	bne.n	80028e4 <HAL_RCCEx_PeriphCLKConfig+0x398>
    {
      /* Enable PLL48M1CLK output */
      __HAL_RCC_PLLCLKOUT_ENABLE(RCC_PLL_48M1CLK);
 80028d8:	4b13      	ldr	r3, [pc, #76]	; (8002928 <HAL_RCCEx_PeriphCLKConfig+0x3dc>)
 80028da:	68db      	ldr	r3, [r3, #12]
 80028dc:	4a12      	ldr	r2, [pc, #72]	; (8002928 <HAL_RCCEx_PeriphCLKConfig+0x3dc>)
 80028de:	f443 1380 	orr.w	r3, r3, #1048576	; 0x100000
 80028e2:	60d3      	str	r3, [r2, #12]
    }
  }

  /*-------------------------- ADC12 clock source configuration ----------------------*/
  if(((PeriphClkInit->PeriphClockSelection) & RCC_PERIPHCLK_ADC12) == RCC_PERIPHCLK_ADC12)
 80028e4:	687b      	ldr	r3, [r7, #4]
 80028e6:	681b      	ldr	r3, [r3, #0]
 80028e8:	f403 4300 	and.w	r3, r3, #32768	; 0x8000
 80028ec:	2b00      	cmp	r3, #0
 80028ee:	d015      	beq.n	800291c <HAL_RCCEx_PeriphCLKConfig+0x3d0>
  {
    /* Check the parameters */
    assert_param(IS_RCC_ADC12CLKSOURCE(PeriphClkInit->Adc12ClockSelection));

    /* Configure the ADC12 interface clock source */
    __HAL_RCC_ADC12_CONFIG(PeriphClkInit->Adc12ClockSelection);
 80028f0:	4b0d      	ldr	r3, [pc, #52]	; (8002928 <HAL_RCCEx_PeriphCLKConfig+0x3dc>)
 80028f2:	f8d3 3088 	ldr.w	r3, [r3, #136]	; 0x88
 80028f6:	f023 5240 	bic.w	r2, r3, #805306368	; 0x30000000
 80028fa:	687b      	ldr	r3, [r7, #4]
 80028fc:	6bdb      	ldr	r3, [r3, #60]	; 0x3c
 80028fe:	490a      	ldr	r1, [pc, #40]	; (8002928 <HAL_RCCEx_PeriphCLKConfig+0x3dc>)
 8002900:	4313      	orrs	r3, r2
 8002902:	f8c1 3088 	str.w	r3, [r1, #136]	; 0x88
    
    if(PeriphClkInit->Adc12ClockSelection == RCC_ADC12CLKSOURCE_PLL)
 8002906:	687b      	ldr	r3, [r7, #4]
 8002908:	6bdb      	ldr	r3, [r3, #60]	; 0x3c
 800290a:	f1b3 5f80 	cmp.w	r3, #268435456	; 0x10000000
 800290e:	d105      	bne.n	800291c <HAL_RCCEx_PeriphCLKConfig+0x3d0>
    {
      /* Enable PLLADCCLK output */
      __HAL_RCC_PLLCLKOUT_ENABLE(RCC_PLL_ADCCLK);
 8002910:	4b05      	ldr	r3, [pc, #20]	; (8002928 <HAL_RCCEx_PeriphCLKConfig+0x3dc>)
 8002912:	68db      	ldr	r3, [r3, #12]
 8002914:	4a04      	ldr	r2, [pc, #16]	; (8002928 <HAL_RCCEx_PeriphCLKConfig+0x3dc>)
 8002916:	f443 3380 	orr.w	r3, r3, #65536	; 0x10000
 800291a:	60d3      	str	r3, [r2, #12]
    }
  }

#endif /* QUADSPI */

  return status;
 800291c:	7cbb      	ldrb	r3, [r7, #18]
}
 800291e:	4618      	mov	r0, r3
 8002920:	3718      	adds	r7, #24
 8002922:	46bd      	mov	sp, r7
 8002924:	bd80      	pop	{r7, pc}
 8002926:	bf00      	nop
 8002928:	40021000 	.word	0x40021000

0800292c <USB_EnableGlobalInt>:
  *         Enables the controller's Global Int in the AHB Config reg
  * @param  USBx : Selected device
  * @retval HAL status
  */
HAL_StatusTypeDef USB_EnableGlobalInt(USB_TypeDef *USBx)
{
 800292c:	b480      	push	{r7}
 800292e:	b085      	sub	sp, #20
 8002930:	af00      	add	r7, sp, #0
 8002932:	6078      	str	r0, [r7, #4]
  uint32_t winterruptmask;

  /* Set winterruptmask variable */
  winterruptmask = USB_CNTR_CTRM  | USB_CNTR_WKUPM |
 8002934:	f64b 7380 	movw	r3, #49024	; 0xbf80
 8002938:	60fb      	str	r3, [r7, #12]
                   USB_CNTR_SUSPM | USB_CNTR_ERRM |
                   USB_CNTR_SOFM | USB_CNTR_ESOFM |
                   USB_CNTR_RESETM | USB_CNTR_L1REQM;

  /* Set interrupt mask */
  USBx->CNTR |= (uint16_t)winterruptmask;
 800293a:	687b      	ldr	r3, [r7, #4]
 800293c:	f8b3 3040 	ldrh.w	r3, [r3, #64]	; 0x40
 8002940:	b29a      	uxth	r2, r3
 8002942:	68fb      	ldr	r3, [r7, #12]
 8002944:	b29b      	uxth	r3, r3
 8002946:	4313      	orrs	r3, r2
 8002948:	b29a      	uxth	r2, r3
 800294a:	687b      	ldr	r3, [r7, #4]
 800294c:	f8a3 2040 	strh.w	r2, [r3, #64]	; 0x40

  return HAL_OK;
 8002950:	2300      	movs	r3, #0
}
 8002952:	4618      	mov	r0, r3
 8002954:	3714      	adds	r7, #20
 8002956:	46bd      	mov	sp, r7
 8002958:	f85d 7b04 	ldr.w	r7, [sp], #4
 800295c:	4770      	bx	lr

0800295e <USB_DisableGlobalInt>:
  *         Disable the controller's Global Int in the AHB Config reg
  * @param  USBx : Selected device
  * @retval HAL status
*/
HAL_StatusTypeDef USB_DisableGlobalInt(USB_TypeDef *USBx)
{
 800295e:	b480      	push	{r7}
 8002960:	b085      	sub	sp, #20
 8002962:	af00      	add	r7, sp, #0
 8002964:	6078      	str	r0, [r7, #4]
  uint32_t winterruptmask;

  /* Set winterruptmask variable */
  winterruptmask = USB_CNTR_CTRM  | USB_CNTR_WKUPM |
 8002966:	f64b 7380 	movw	r3, #49024	; 0xbf80
 800296a:	60fb      	str	r3, [r7, #12]
                   USB_CNTR_SUSPM | USB_CNTR_ERRM |
                   USB_CNTR_SOFM | USB_CNTR_ESOFM |
                   USB_CNTR_RESETM | USB_CNTR_L1REQM;

  /* Clear interrupt mask */
  USBx->CNTR &= (uint16_t)(~winterruptmask);
 800296c:	687b      	ldr	r3, [r7, #4]
 800296e:	f8b3 3040 	ldrh.w	r3, [r3, #64]	; 0x40
 8002972:	b29a      	uxth	r2, r3
 8002974:	68fb      	ldr	r3, [r7, #12]
 8002976:	b29b      	uxth	r3, r3
 8002978:	43db      	mvns	r3, r3
 800297a:	b29b      	uxth	r3, r3
 800297c:	4013      	ands	r3, r2
 800297e:	b29a      	uxth	r2, r3
 8002980:	687b      	ldr	r3, [r7, #4]
 8002982:	f8a3 2040 	strh.w	r2, [r3, #64]	; 0x40

  return HAL_OK;
 8002986:	2300      	movs	r3, #0
}
 8002988:	4618      	mov	r0, r3
 800298a:	3714      	adds	r7, #20
 800298c:	46bd      	mov	sp, r7
 800298e:	f85d 7b04 	ldr.w	r7, [sp], #4
 8002992:	4770      	bx	lr

08002994 <USB_DevInit>:
  * @param  cfg  : pointer to a USB_CfgTypeDef structure that contains
  *         the configuration information for the specified USBx peripheral.
  * @retval HAL status
  */
HAL_StatusTypeDef USB_DevInit(USB_TypeDef *USBx, USB_CfgTypeDef cfg)
{
 8002994:	b084      	sub	sp, #16
 8002996:	b580      	push	{r7, lr}
 8002998:	b082      	sub	sp, #8
 800299a:	af00      	add	r7, sp, #0
 800299c:	6078      	str	r0, [r7, #4]
 800299e:	f107 0014 	add.w	r0, r7, #20
 80029a2:	e880 000e 	stmia.w	r0, {r1, r2, r3}
  /* Prevent unused argument(s) compilation warning */
  UNUSED(cfg);

  /* Init Device */
  /*CNTR_FRES = 1*/
  USBx->CNTR = (uint16_t)USB_CNTR_FRES;
 80029a6:	687b      	ldr	r3, [r7, #4]
 80029a8:	2201      	movs	r2, #1
 80029aa:	f8a3 2040 	strh.w	r2, [r3, #64]	; 0x40

  /*CNTR_FRES = 0*/
  USBx->CNTR = 0U;
 80029ae:	687b      	ldr	r3, [r7, #4]
 80029b0:	2200      	movs	r2, #0
 80029b2:	f8a3 2040 	strh.w	r2, [r3, #64]	; 0x40

  /*Clear pending interrupts*/
  USBx->ISTR = 0U;
 80029b6:	687b      	ldr	r3, [r7, #4]
 80029b8:	2200      	movs	r2, #0
 80029ba:	f8a3 2044 	strh.w	r2, [r3, #68]	; 0x44

  /*Set Btable Address*/
  USBx->BTABLE = BTABLE_ADDRESS;
 80029be:	687b      	ldr	r3, [r7, #4]
 80029c0:	2200      	movs	r2, #0
 80029c2:	f8a3 2050 	strh.w	r2, [r3, #80]	; 0x50

  /* Enable USB Device Interrupt mask */
  (void)USB_EnableGlobalInt(USBx);
 80029c6:	6878      	ldr	r0, [r7, #4]
 80029c8:	f7ff ffb0 	bl	800292c <USB_EnableGlobalInt>

  return HAL_OK;
 80029cc:	2300      	movs	r3, #0
}
 80029ce:	4618      	mov	r0, r3
 80029d0:	3708      	adds	r7, #8
 80029d2:	46bd      	mov	sp, r7
 80029d4:	e8bd 4080 	ldmia.w	sp!, {r7, lr}
 80029d8:	b004      	add	sp, #16
 80029da:	4770      	bx	lr

080029dc <USB_ActivateEndpoint>:
  * @param  USBx : Selected device
  * @param  ep: pointer to endpoint structure
  * @retval HAL status
  */
HAL_StatusTypeDef USB_ActivateEndpoint(USB_TypeDef *USBx, USB_EPTypeDef *ep)
{
 80029dc:	b490      	push	{r4, r7}
 80029de:	b084      	sub	sp, #16
 80029e0:	af00      	add	r7, sp, #0
 80029e2:	6078      	str	r0, [r7, #4]
 80029e4:	6039      	str	r1, [r7, #0]
  HAL_StatusTypeDef ret = HAL_OK;
 80029e6:	2300      	movs	r3, #0
 80029e8:	73fb      	strb	r3, [r7, #15]
  uint16_t wEpRegVal;

  wEpRegVal = PCD_GET_ENDPOINT(USBx, ep->num) & USB_EP_T_MASK;
 80029ea:	687a      	ldr	r2, [r7, #4]
 80029ec:	683b      	ldr	r3, [r7, #0]
 80029ee:	781b      	ldrb	r3, [r3, #0]
 80029f0:	009b      	lsls	r3, r3, #2
 80029f2:	4413      	add	r3, r2
 80029f4:	881b      	ldrh	r3, [r3, #0]
 80029f6:	b29b      	uxth	r3, r3
 80029f8:	f423 43ec 	bic.w	r3, r3, #30208	; 0x7600
 80029fc:	f023 0370 	bic.w	r3, r3, #112	; 0x70
 8002a00:	81bb      	strh	r3, [r7, #12]

  /* initialize Endpoint */
  switch (ep->type)
 8002a02:	683b      	ldr	r3, [r7, #0]
 8002a04:	78db      	ldrb	r3, [r3, #3]
 8002a06:	2b03      	cmp	r3, #3
 8002a08:	d819      	bhi.n	8002a3e <USB_ActivateEndpoint+0x62>
 8002a0a:	a201      	add	r2, pc, #4	; (adr r2, 8002a10 <USB_ActivateEndpoint+0x34>)
 8002a0c:	f852 f023 	ldr.w	pc, [r2, r3, lsl #2]
 8002a10:	08002a21 	.word	0x08002a21
 8002a14:	08002a35 	.word	0x08002a35
 8002a18:	08002a45 	.word	0x08002a45
 8002a1c:	08002a2b 	.word	0x08002a2b
  {
    case EP_TYPE_CTRL:
      wEpRegVal |= USB_EP_CONTROL;
 8002a20:	89bb      	ldrh	r3, [r7, #12]
 8002a22:	f443 7300 	orr.w	r3, r3, #512	; 0x200
 8002a26:	81bb      	strh	r3, [r7, #12]
      break;
 8002a28:	e00d      	b.n	8002a46 <USB_ActivateEndpoint+0x6a>
    case EP_TYPE_BULK:
      wEpRegVal |= USB_EP_BULK;
      break;

    case EP_TYPE_INTR:
      wEpRegVal |= USB_EP_INTERRUPT;
 8002a2a:	89bb      	ldrh	r3, [r7, #12]
 8002a2c:	f443 63c0 	orr.w	r3, r3, #1536	; 0x600
 8002a30:	81bb      	strh	r3, [r7, #12]
      break;
 8002a32:	e008      	b.n	8002a46 <USB_ActivateEndpoint+0x6a>

    case EP_TYPE_ISOC:
      wEpRegVal |= USB_EP_ISOCHRONOUS;
 8002a34:	89bb      	ldrh	r3, [r7, #12]
 8002a36:	f443 6380 	orr.w	r3, r3, #1024	; 0x400
 8002a3a:	81bb      	strh	r3, [r7, #12]
      break;
 8002a3c:	e003      	b.n	8002a46 <USB_ActivateEndpoint+0x6a>

    default:
      ret = HAL_ERROR;
 8002a3e:	2301      	movs	r3, #1
 8002a40:	73fb      	strb	r3, [r7, #15]
      break;
 8002a42:	e000      	b.n	8002a46 <USB_ActivateEndpoint+0x6a>
      break;
 8002a44:	bf00      	nop
  }

  PCD_SET_ENDPOINT(USBx, ep->num, (wEpRegVal | USB_EP_CTR_RX | USB_EP_CTR_TX));
 8002a46:	687a      	ldr	r2, [r7, #4]
 8002a48:	683b      	ldr	r3, [r7, #0]
 8002a4a:	781b      	ldrb	r3, [r3, #0]
 8002a4c:	009b      	lsls	r3, r3, #2
 8002a4e:	441a      	add	r2, r3
 8002a50:	89bb      	ldrh	r3, [r7, #12]
 8002a52:	f043 437f 	orr.w	r3, r3, #4278190080	; 0xff000000
 8002a56:	f443 037f 	orr.w	r3, r3, #16711680	; 0xff0000
 8002a5a:	f443 4300 	orr.w	r3, r3, #32768	; 0x8000
 8002a5e:	f043 0380 	orr.w	r3, r3, #128	; 0x80
 8002a62:	b29b      	uxth	r3, r3
 8002a64:	8013      	strh	r3, [r2, #0]

  PCD_SET_EP_ADDRESS(USBx, ep->num, ep->num);
 8002a66:	687a      	ldr	r2, [r7, #4]
 8002a68:	683b      	ldr	r3, [r7, #0]
 8002a6a:	781b      	ldrb	r3, [r3, #0]
 8002a6c:	009b      	lsls	r3, r3, #2
 8002a6e:	4413      	add	r3, r2
 8002a70:	881b      	ldrh	r3, [r3, #0]
 8002a72:	b29b      	uxth	r3, r3
 8002a74:	b21b      	sxth	r3, r3
 8002a76:	f423 43e0 	bic.w	r3, r3, #28672	; 0x7000
 8002a7a:	f023 0370 	bic.w	r3, r3, #112	; 0x70
 8002a7e:	b21a      	sxth	r2, r3
 8002a80:	683b      	ldr	r3, [r7, #0]
 8002a82:	781b      	ldrb	r3, [r3, #0]
 8002a84:	b21b      	sxth	r3, r3
 8002a86:	4313      	orrs	r3, r2
 8002a88:	b21b      	sxth	r3, r3
 8002a8a:	b29c      	uxth	r4, r3
 8002a8c:	687a      	ldr	r2, [r7, #4]
 8002a8e:	683b      	ldr	r3, [r7, #0]
 8002a90:	781b      	ldrb	r3, [r3, #0]
 8002a92:	009b      	lsls	r3, r3, #2
 8002a94:	441a      	add	r2, r3
 8002a96:	4b8a      	ldr	r3, [pc, #552]	; (8002cc0 <USB_ActivateEndpoint+0x2e4>)
 8002a98:	4323      	orrs	r3, r4
 8002a9a:	b29b      	uxth	r3, r3
 8002a9c:	8013      	strh	r3, [r2, #0]

  if (ep->doublebuffer == 0U)
 8002a9e:	683b      	ldr	r3, [r7, #0]
 8002aa0:	7b1b      	ldrb	r3, [r3, #12]
 8002aa2:	2b00      	cmp	r3, #0
 8002aa4:	f040 8112 	bne.w	8002ccc <USB_ActivateEndpoint+0x2f0>
  {
    if (ep->is_in != 0U)
 8002aa8:	683b      	ldr	r3, [r7, #0]
 8002aaa:	785b      	ldrb	r3, [r3, #1]
 8002aac:	2b00      	cmp	r3, #0
 8002aae:	d067      	beq.n	8002b80 <USB_ActivateEndpoint+0x1a4>
    {
      /*Set the endpoint Transmit buffer address */
      PCD_SET_EP_TX_ADDRESS(USBx, ep->num, ep->pmaadress);
 8002ab0:	687c      	ldr	r4, [r7, #4]
 8002ab2:	687b      	ldr	r3, [r7, #4]
 8002ab4:	f8b3 3050 	ldrh.w	r3, [r3, #80]	; 0x50
 8002ab8:	b29b      	uxth	r3, r3
 8002aba:	441c      	add	r4, r3
 8002abc:	683b      	ldr	r3, [r7, #0]
 8002abe:	781b      	ldrb	r3, [r3, #0]
 8002ac0:	00db      	lsls	r3, r3, #3
 8002ac2:	4423      	add	r3, r4
 8002ac4:	f503 6380 	add.w	r3, r3, #1024	; 0x400
 8002ac8:	461c      	mov	r4, r3
 8002aca:	683b      	ldr	r3, [r7, #0]
 8002acc:	88db      	ldrh	r3, [r3, #6]
 8002ace:	085b      	lsrs	r3, r3, #1
 8002ad0:	b29b      	uxth	r3, r3
 8002ad2:	005b      	lsls	r3, r3, #1
 8002ad4:	b29b      	uxth	r3, r3
 8002ad6:	8023      	strh	r3, [r4, #0]
      PCD_CLEAR_TX_DTOG(USBx, ep->num);
 8002ad8:	687a      	ldr	r2, [r7, #4]
 8002ada:	683b      	ldr	r3, [r7, #0]
 8002adc:	781b      	ldrb	r3, [r3, #0]
 8002ade:	009b      	lsls	r3, r3, #2
 8002ae0:	4413      	add	r3, r2
 8002ae2:	881b      	ldrh	r3, [r3, #0]
 8002ae4:	b29c      	uxth	r4, r3
 8002ae6:	4623      	mov	r3, r4
 8002ae8:	f003 0340 	and.w	r3, r3, #64	; 0x40
 8002aec:	2b00      	cmp	r3, #0
 8002aee:	d014      	beq.n	8002b1a <USB_ActivateEndpoint+0x13e>
 8002af0:	687a      	ldr	r2, [r7, #4]
 8002af2:	683b      	ldr	r3, [r7, #0]
 8002af4:	781b      	ldrb	r3, [r3, #0]
 8002af6:	009b      	lsls	r3, r3, #2
 8002af8:	4413      	add	r3, r2
 8002afa:	881b      	ldrh	r3, [r3, #0]
 8002afc:	b29b      	uxth	r3, r3
 8002afe:	f423 43e0 	bic.w	r3, r3, #28672	; 0x7000
 8002b02:	f023 0370 	bic.w	r3, r3, #112	; 0x70
 8002b06:	b29c      	uxth	r4, r3
 8002b08:	687a      	ldr	r2, [r7, #4]
 8002b0a:	683b      	ldr	r3, [r7, #0]
 8002b0c:	781b      	ldrb	r3, [r3, #0]
 8002b0e:	009b      	lsls	r3, r3, #2
 8002b10:	441a      	add	r2, r3
 8002b12:	4b6c      	ldr	r3, [pc, #432]	; (8002cc4 <USB_ActivateEndpoint+0x2e8>)
 8002b14:	4323      	orrs	r3, r4
 8002b16:	b29b      	uxth	r3, r3
 8002b18:	8013      	strh	r3, [r2, #0]

      if (ep->type != EP_TYPE_ISOC)
 8002b1a:	683b      	ldr	r3, [r7, #0]
 8002b1c:	78db      	ldrb	r3, [r3, #3]
 8002b1e:	2b01      	cmp	r3, #1
 8002b20:	d018      	beq.n	8002b54 <USB_ActivateEndpoint+0x178>
      {
        /* Configure NAK status for the Endpoint */
        PCD_SET_EP_TX_STATUS(USBx, ep->num, USB_EP_TX_NAK);
 8002b22:	687a      	ldr	r2, [r7, #4]
 8002b24:	683b      	ldr	r3, [r7, #0]
 8002b26:	781b      	ldrb	r3, [r3, #0]
 8002b28:	009b      	lsls	r3, r3, #2
 8002b2a:	4413      	add	r3, r2
 8002b2c:	881b      	ldrh	r3, [r3, #0]
 8002b2e:	b29b      	uxth	r3, r3
 8002b30:	f423 43e0 	bic.w	r3, r3, #28672	; 0x7000
 8002b34:	f023 0340 	bic.w	r3, r3, #64	; 0x40
 8002b38:	b29c      	uxth	r4, r3
 8002b3a:	f084 0320 	eor.w	r3, r4, #32
 8002b3e:	b29c      	uxth	r4, r3
 8002b40:	687a      	ldr	r2, [r7, #4]
 8002b42:	683b      	ldr	r3, [r7, #0]
 8002b44:	781b      	ldrb	r3, [r3, #0]
 8002b46:	009b      	lsls	r3, r3, #2
 8002b48:	441a      	add	r2, r3
 8002b4a:	4b5d      	ldr	r3, [pc, #372]	; (8002cc0 <USB_ActivateEndpoint+0x2e4>)
 8002b4c:	4323      	orrs	r3, r4
 8002b4e:	b29b      	uxth	r3, r3
 8002b50:	8013      	strh	r3, [r2, #0]
 8002b52:	e22b      	b.n	8002fac <USB_ActivateEndpoint+0x5d0>
      }
      else
      {
        /* Configure TX Endpoint to disabled state */
        PCD_SET_EP_TX_STATUS(USBx, ep->num, USB_EP_TX_DIS);
 8002b54:	687a      	ldr	r2, [r7, #4]
 8002b56:	683b      	ldr	r3, [r7, #0]
 8002b58:	781b      	ldrb	r3, [r3, #0]
 8002b5a:	009b      	lsls	r3, r3, #2
 8002b5c:	4413      	add	r3, r2
 8002b5e:	881b      	ldrh	r3, [r3, #0]
 8002b60:	b29b      	uxth	r3, r3
 8002b62:	f423 43e0 	bic.w	r3, r3, #28672	; 0x7000
 8002b66:	f023 0340 	bic.w	r3, r3, #64	; 0x40
 8002b6a:	b29c      	uxth	r4, r3
 8002b6c:	687a      	ldr	r2, [r7, #4]
 8002b6e:	683b      	ldr	r3, [r7, #0]
 8002b70:	781b      	ldrb	r3, [r3, #0]
 8002b72:	009b      	lsls	r3, r3, #2
 8002b74:	441a      	add	r2, r3
 8002b76:	4b52      	ldr	r3, [pc, #328]	; (8002cc0 <USB_ActivateEndpoint+0x2e4>)
 8002b78:	4323      	orrs	r3, r4
 8002b7a:	b29b      	uxth	r3, r3
 8002b7c:	8013      	strh	r3, [r2, #0]
 8002b7e:	e215      	b.n	8002fac <USB_ActivateEndpoint+0x5d0>
      }
    }
    else
    {
      /*Set the endpoint Receive buffer address */
      PCD_SET_EP_RX_ADDRESS(USBx, ep->num, ep->pmaadress);
 8002b80:	687c      	ldr	r4, [r7, #4]
 8002b82:	687b      	ldr	r3, [r7, #4]
 8002b84:	f8b3 3050 	ldrh.w	r3, [r3, #80]	; 0x50
 8002b88:	b29b      	uxth	r3, r3
 8002b8a:	441c      	add	r4, r3
 8002b8c:	683b      	ldr	r3, [r7, #0]
 8002b8e:	781b      	ldrb	r3, [r3, #0]
 8002b90:	00db      	lsls	r3, r3, #3
 8002b92:	4423      	add	r3, r4
 8002b94:	f203 4304 	addw	r3, r3, #1028	; 0x404
 8002b98:	461c      	mov	r4, r3
 8002b9a:	683b      	ldr	r3, [r7, #0]
 8002b9c:	88db      	ldrh	r3, [r3, #6]
 8002b9e:	085b      	lsrs	r3, r3, #1
 8002ba0:	b29b      	uxth	r3, r3
 8002ba2:	005b      	lsls	r3, r3, #1
 8002ba4:	b29b      	uxth	r3, r3
 8002ba6:	8023      	strh	r3, [r4, #0]
      /*Set the endpoint Receive buffer counter*/
      PCD_SET_EP_RX_CNT(USBx, ep->num, ep->maxpacket);
 8002ba8:	687c      	ldr	r4, [r7, #4]
 8002baa:	687b      	ldr	r3, [r7, #4]
 8002bac:	f8b3 3050 	ldrh.w	r3, [r3, #80]	; 0x50
 8002bb0:	b29b      	uxth	r3, r3
 8002bb2:	441c      	add	r4, r3
 8002bb4:	683b      	ldr	r3, [r7, #0]
 8002bb6:	781b      	ldrb	r3, [r3, #0]
 8002bb8:	00db      	lsls	r3, r3, #3
 8002bba:	4423      	add	r3, r4
 8002bbc:	f203 4306 	addw	r3, r3, #1030	; 0x406
 8002bc0:	461c      	mov	r4, r3
 8002bc2:	683b      	ldr	r3, [r7, #0]
 8002bc4:	691b      	ldr	r3, [r3, #16]
 8002bc6:	2b00      	cmp	r3, #0
 8002bc8:	d10e      	bne.n	8002be8 <USB_ActivateEndpoint+0x20c>
 8002bca:	8823      	ldrh	r3, [r4, #0]
 8002bcc:	b29b      	uxth	r3, r3
 8002bce:	f423 43f8 	bic.w	r3, r3, #31744	; 0x7c00
 8002bd2:	b29b      	uxth	r3, r3
 8002bd4:	8023      	strh	r3, [r4, #0]
 8002bd6:	8823      	ldrh	r3, [r4, #0]
 8002bd8:	b29b      	uxth	r3, r3
 8002bda:	ea6f 4343 	mvn.w	r3, r3, lsl #17
 8002bde:	ea6f 4353 	mvn.w	r3, r3, lsr #17
 8002be2:	b29b      	uxth	r3, r3
 8002be4:	8023      	strh	r3, [r4, #0]
 8002be6:	e02d      	b.n	8002c44 <USB_ActivateEndpoint+0x268>
 8002be8:	683b      	ldr	r3, [r7, #0]
 8002bea:	691b      	ldr	r3, [r3, #16]
 8002bec:	2b3e      	cmp	r3, #62	; 0x3e
 8002bee:	d812      	bhi.n	8002c16 <USB_ActivateEndpoint+0x23a>
 8002bf0:	683b      	ldr	r3, [r7, #0]
 8002bf2:	691b      	ldr	r3, [r3, #16]
 8002bf4:	085b      	lsrs	r3, r3, #1
 8002bf6:	60bb      	str	r3, [r7, #8]
 8002bf8:	683b      	ldr	r3, [r7, #0]
 8002bfa:	691b      	ldr	r3, [r3, #16]
 8002bfc:	f003 0301 	and.w	r3, r3, #1
 8002c00:	2b00      	cmp	r3, #0
 8002c02:	d002      	beq.n	8002c0a <USB_ActivateEndpoint+0x22e>
 8002c04:	68bb      	ldr	r3, [r7, #8]
 8002c06:	3301      	adds	r3, #1
 8002c08:	60bb      	str	r3, [r7, #8]
 8002c0a:	68bb      	ldr	r3, [r7, #8]
 8002c0c:	b29b      	uxth	r3, r3
 8002c0e:	029b      	lsls	r3, r3, #10
 8002c10:	b29b      	uxth	r3, r3
 8002c12:	8023      	strh	r3, [r4, #0]
 8002c14:	e016      	b.n	8002c44 <USB_ActivateEndpoint+0x268>
 8002c16:	683b      	ldr	r3, [r7, #0]
 8002c18:	691b      	ldr	r3, [r3, #16]
 8002c1a:	095b      	lsrs	r3, r3, #5
 8002c1c:	60bb      	str	r3, [r7, #8]
 8002c1e:	683b      	ldr	r3, [r7, #0]
 8002c20:	691b      	ldr	r3, [r3, #16]
 8002c22:	f003 031f 	and.w	r3, r3, #31
 8002c26:	2b00      	cmp	r3, #0
 8002c28:	d102      	bne.n	8002c30 <USB_ActivateEndpoint+0x254>
 8002c2a:	68bb      	ldr	r3, [r7, #8]
 8002c2c:	3b01      	subs	r3, #1
 8002c2e:	60bb      	str	r3, [r7, #8]
 8002c30:	68bb      	ldr	r3, [r7, #8]
 8002c32:	b29b      	uxth	r3, r3
 8002c34:	029b      	lsls	r3, r3, #10
 8002c36:	b29b      	uxth	r3, r3
 8002c38:	ea6f 4343 	mvn.w	r3, r3, lsl #17
 8002c3c:	ea6f 4353 	mvn.w	r3, r3, lsr #17
 8002c40:	b29b      	uxth	r3, r3
 8002c42:	8023      	strh	r3, [r4, #0]
      PCD_CLEAR_RX_DTOG(USBx, ep->num);
 8002c44:	687a      	ldr	r2, [r7, #4]
 8002c46:	683b      	ldr	r3, [r7, #0]
 8002c48:	781b      	ldrb	r3, [r3, #0]
 8002c4a:	009b      	lsls	r3, r3, #2
 8002c4c:	4413      	add	r3, r2
 8002c4e:	881b      	ldrh	r3, [r3, #0]
 8002c50:	b29c      	uxth	r4, r3
 8002c52:	4623      	mov	r3, r4
 8002c54:	f403 4380 	and.w	r3, r3, #16384	; 0x4000
 8002c58:	2b00      	cmp	r3, #0
 8002c5a:	d014      	beq.n	8002c86 <USB_ActivateEndpoint+0x2aa>
 8002c5c:	687a      	ldr	r2, [r7, #4]
 8002c5e:	683b      	ldr	r3, [r7, #0]
 8002c60:	781b      	ldrb	r3, [r3, #0]
 8002c62:	009b      	lsls	r3, r3, #2
 8002c64:	4413      	add	r3, r2
 8002c66:	881b      	ldrh	r3, [r3, #0]
 8002c68:	b29b      	uxth	r3, r3
 8002c6a:	f423 43e0 	bic.w	r3, r3, #28672	; 0x7000
 8002c6e:	f023 0370 	bic.w	r3, r3, #112	; 0x70
 8002c72:	b29c      	uxth	r4, r3
 8002c74:	687a      	ldr	r2, [r7, #4]
 8002c76:	683b      	ldr	r3, [r7, #0]
 8002c78:	781b      	ldrb	r3, [r3, #0]
 8002c7a:	009b      	lsls	r3, r3, #2
 8002c7c:	441a      	add	r2, r3
 8002c7e:	4b12      	ldr	r3, [pc, #72]	; (8002cc8 <USB_ActivateEndpoint+0x2ec>)
 8002c80:	4323      	orrs	r3, r4
 8002c82:	b29b      	uxth	r3, r3
 8002c84:	8013      	strh	r3, [r2, #0]
      /* Configure VALID status for the Endpoint*/
      PCD_SET_EP_RX_STATUS(USBx, ep->num, USB_EP_RX_VALID);
 8002c86:	687a      	ldr	r2, [r7, #4]
 8002c88:	683b      	ldr	r3, [r7, #0]
 8002c8a:	781b      	ldrb	r3, [r3, #0]
 8002c8c:	009b      	lsls	r3, r3, #2
 8002c8e:	4413      	add	r3, r2
 8002c90:	881b      	ldrh	r3, [r3, #0]
 8002c92:	b29b      	uxth	r3, r3
 8002c94:	f423 4380 	bic.w	r3, r3, #16384	; 0x4000
 8002c98:	f023 0370 	bic.w	r3, r3, #112	; 0x70
 8002c9c:	b29c      	uxth	r4, r3
 8002c9e:	f484 5380 	eor.w	r3, r4, #4096	; 0x1000
 8002ca2:	b29c      	uxth	r4, r3
 8002ca4:	f484 5300 	eor.w	r3, r4, #8192	; 0x2000
 8002ca8:	b29c      	uxth	r4, r3
 8002caa:	687a      	ldr	r2, [r7, #4]
 8002cac:	683b      	ldr	r3, [r7, #0]
 8002cae:	781b      	ldrb	r3, [r3, #0]
 8002cb0:	009b      	lsls	r3, r3, #2
 8002cb2:	441a      	add	r2, r3
 8002cb4:	4b02      	ldr	r3, [pc, #8]	; (8002cc0 <USB_ActivateEndpoint+0x2e4>)
 8002cb6:	4323      	orrs	r3, r4
 8002cb8:	b29b      	uxth	r3, r3
 8002cba:	8013      	strh	r3, [r2, #0]
 8002cbc:	e176      	b.n	8002fac <USB_ActivateEndpoint+0x5d0>
 8002cbe:	bf00      	nop
 8002cc0:	ffff8080 	.word	0xffff8080
 8002cc4:	ffff80c0 	.word	0xffff80c0
 8002cc8:	ffffc080 	.word	0xffffc080
  }
  /*Double Buffer*/
  else
  {
    /* Set the endpoint as double buffered */
    PCD_SET_EP_DBUF(USBx, ep->num);
 8002ccc:	687a      	ldr	r2, [r7, #4]
 8002cce:	683b      	ldr	r3, [r7, #0]
 8002cd0:	781b      	ldrb	r3, [r3, #0]
 8002cd2:	009b      	lsls	r3, r3, #2
 8002cd4:	4413      	add	r3, r2
 8002cd6:	881b      	ldrh	r3, [r3, #0]
 8002cd8:	b29b      	uxth	r3, r3
 8002cda:	f423 43e0 	bic.w	r3, r3, #28672	; 0x7000
 8002cde:	f023 0370 	bic.w	r3, r3, #112	; 0x70
 8002ce2:	b29c      	uxth	r4, r3
 8002ce4:	687a      	ldr	r2, [r7, #4]
 8002ce6:	683b      	ldr	r3, [r7, #0]
 8002ce8:	781b      	ldrb	r3, [r3, #0]
 8002cea:	009b      	lsls	r3, r3, #2
 8002cec:	441a      	add	r2, r3
 8002cee:	4b96      	ldr	r3, [pc, #600]	; (8002f48 <USB_ActivateEndpoint+0x56c>)
 8002cf0:	4323      	orrs	r3, r4
 8002cf2:	b29b      	uxth	r3, r3
 8002cf4:	8013      	strh	r3, [r2, #0]
    /* Set buffer address for double buffered mode */
    PCD_SET_EP_DBUF_ADDR(USBx, ep->num, ep->pmaaddr0, ep->pmaaddr1);
 8002cf6:	687c      	ldr	r4, [r7, #4]
 8002cf8:	687b      	ldr	r3, [r7, #4]
 8002cfa:	f8b3 3050 	ldrh.w	r3, [r3, #80]	; 0x50
 8002cfe:	b29b      	uxth	r3, r3
 8002d00:	441c      	add	r4, r3
 8002d02:	683b      	ldr	r3, [r7, #0]
 8002d04:	781b      	ldrb	r3, [r3, #0]
 8002d06:	00db      	lsls	r3, r3, #3
 8002d08:	4423      	add	r3, r4
 8002d0a:	f503 6380 	add.w	r3, r3, #1024	; 0x400
 8002d0e:	461c      	mov	r4, r3
 8002d10:	683b      	ldr	r3, [r7, #0]
 8002d12:	891b      	ldrh	r3, [r3, #8]
 8002d14:	085b      	lsrs	r3, r3, #1
 8002d16:	b29b      	uxth	r3, r3
 8002d18:	005b      	lsls	r3, r3, #1
 8002d1a:	b29b      	uxth	r3, r3
 8002d1c:	8023      	strh	r3, [r4, #0]
 8002d1e:	687c      	ldr	r4, [r7, #4]
 8002d20:	687b      	ldr	r3, [r7, #4]
 8002d22:	f8b3 3050 	ldrh.w	r3, [r3, #80]	; 0x50
 8002d26:	b29b      	uxth	r3, r3
 8002d28:	441c      	add	r4, r3
 8002d2a:	683b      	ldr	r3, [r7, #0]
 8002d2c:	781b      	ldrb	r3, [r3, #0]
 8002d2e:	00db      	lsls	r3, r3, #3
 8002d30:	4423      	add	r3, r4
 8002d32:	f203 4304 	addw	r3, r3, #1028	; 0x404
 8002d36:	461c      	mov	r4, r3
 8002d38:	683b      	ldr	r3, [r7, #0]
 8002d3a:	895b      	ldrh	r3, [r3, #10]
 8002d3c:	085b      	lsrs	r3, r3, #1
 8002d3e:	b29b      	uxth	r3, r3
 8002d40:	005b      	lsls	r3, r3, #1
 8002d42:	b29b      	uxth	r3, r3
 8002d44:	8023      	strh	r3, [r4, #0]

    if (ep->is_in == 0U)
 8002d46:	683b      	ldr	r3, [r7, #0]
 8002d48:	785b      	ldrb	r3, [r3, #1]
 8002d4a:	2b00      	cmp	r3, #0
 8002d4c:	f040 8088 	bne.w	8002e60 <USB_ActivateEndpoint+0x484>
    {
      /* Clear the data toggle bits for the endpoint IN/OUT */
      PCD_CLEAR_RX_DTOG(USBx, ep->num);
 8002d50:	687a      	ldr	r2, [r7, #4]
 8002d52:	683b      	ldr	r3, [r7, #0]
 8002d54:	781b      	ldrb	r3, [r3, #0]
 8002d56:	009b      	lsls	r3, r3, #2
 8002d58:	4413      	add	r3, r2
 8002d5a:	881b      	ldrh	r3, [r3, #0]
 8002d5c:	b29c      	uxth	r4, r3
 8002d5e:	4623      	mov	r3, r4
 8002d60:	f403 4380 	and.w	r3, r3, #16384	; 0x4000
 8002d64:	2b00      	cmp	r3, #0
 8002d66:	d014      	beq.n	8002d92 <USB_ActivateEndpoint+0x3b6>
 8002d68:	687a      	ldr	r2, [r7, #4]
 8002d6a:	683b      	ldr	r3, [r7, #0]
 8002d6c:	781b      	ldrb	r3, [r3, #0]
 8002d6e:	009b      	lsls	r3, r3, #2
 8002d70:	4413      	add	r3, r2
 8002d72:	881b      	ldrh	r3, [r3, #0]
 8002d74:	b29b      	uxth	r3, r3
 8002d76:	f423 43e0 	bic.w	r3, r3, #28672	; 0x7000
 8002d7a:	f023 0370 	bic.w	r3, r3, #112	; 0x70
 8002d7e:	b29c      	uxth	r4, r3
 8002d80:	687a      	ldr	r2, [r7, #4]
 8002d82:	683b      	ldr	r3, [r7, #0]
 8002d84:	781b      	ldrb	r3, [r3, #0]
 8002d86:	009b      	lsls	r3, r3, #2
 8002d88:	441a      	add	r2, r3
 8002d8a:	4b70      	ldr	r3, [pc, #448]	; (8002f4c <USB_ActivateEndpoint+0x570>)
 8002d8c:	4323      	orrs	r3, r4
 8002d8e:	b29b      	uxth	r3, r3
 8002d90:	8013      	strh	r3, [r2, #0]
      PCD_CLEAR_TX_DTOG(USBx, ep->num);
 8002d92:	687a      	ldr	r2, [r7, #4]
 8002d94:	683b      	ldr	r3, [r7, #0]
 8002d96:	781b      	ldrb	r3, [r3, #0]
 8002d98:	009b      	lsls	r3, r3, #2
 8002d9a:	4413      	add	r3, r2
 8002d9c:	881b      	ldrh	r3, [r3, #0]
 8002d9e:	b29c      	uxth	r4, r3
 8002da0:	4623      	mov	r3, r4
 8002da2:	f003 0340 	and.w	r3, r3, #64	; 0x40
 8002da6:	2b00      	cmp	r3, #0
 8002da8:	d014      	beq.n	8002dd4 <USB_ActivateEndpoint+0x3f8>
 8002daa:	687a      	ldr	r2, [r7, #4]
 8002dac:	683b      	ldr	r3, [r7, #0]
 8002dae:	781b      	ldrb	r3, [r3, #0]
 8002db0:	009b      	lsls	r3, r3, #2
 8002db2:	4413      	add	r3, r2
 8002db4:	881b      	ldrh	r3, [r3, #0]
 8002db6:	b29b      	uxth	r3, r3
 8002db8:	f423 43e0 	bic.w	r3, r3, #28672	; 0x7000
 8002dbc:	f023 0370 	bic.w	r3, r3, #112	; 0x70
 8002dc0:	b29c      	uxth	r4, r3
 8002dc2:	687a      	ldr	r2, [r7, #4]
 8002dc4:	683b      	ldr	r3, [r7, #0]
 8002dc6:	781b      	ldrb	r3, [r3, #0]
 8002dc8:	009b      	lsls	r3, r3, #2
 8002dca:	441a      	add	r2, r3
 8002dcc:	4b60      	ldr	r3, [pc, #384]	; (8002f50 <USB_ActivateEndpoint+0x574>)
 8002dce:	4323      	orrs	r3, r4
 8002dd0:	b29b      	uxth	r3, r3
 8002dd2:	8013      	strh	r3, [r2, #0]

      /* Reset value of the data toggle bits for the endpoint out */
      PCD_TX_DTOG(USBx, ep->num);
 8002dd4:	687a      	ldr	r2, [r7, #4]
 8002dd6:	683b      	ldr	r3, [r7, #0]
 8002dd8:	781b      	ldrb	r3, [r3, #0]
 8002dda:	009b      	lsls	r3, r3, #2
 8002ddc:	4413      	add	r3, r2
 8002dde:	881b      	ldrh	r3, [r3, #0]
 8002de0:	b29b      	uxth	r3, r3
 8002de2:	f423 43e0 	bic.w	r3, r3, #28672	; 0x7000
 8002de6:	f023 0370 	bic.w	r3, r3, #112	; 0x70
 8002dea:	b29c      	uxth	r4, r3
 8002dec:	687a      	ldr	r2, [r7, #4]
 8002dee:	683b      	ldr	r3, [r7, #0]
 8002df0:	781b      	ldrb	r3, [r3, #0]
 8002df2:	009b      	lsls	r3, r3, #2
 8002df4:	441a      	add	r2, r3
 8002df6:	4b56      	ldr	r3, [pc, #344]	; (8002f50 <USB_ActivateEndpoint+0x574>)
 8002df8:	4323      	orrs	r3, r4
 8002dfa:	b29b      	uxth	r3, r3
 8002dfc:	8013      	strh	r3, [r2, #0]

      PCD_SET_EP_RX_STATUS(USBx, ep->num, USB_EP_RX_VALID);
 8002dfe:	687a      	ldr	r2, [r7, #4]
 8002e00:	683b      	ldr	r3, [r7, #0]
 8002e02:	781b      	ldrb	r3, [r3, #0]
 8002e04:	009b      	lsls	r3, r3, #2
 8002e06:	4413      	add	r3, r2
 8002e08:	881b      	ldrh	r3, [r3, #0]
 8002e0a:	b29b      	uxth	r3, r3
 8002e0c:	f423 4380 	bic.w	r3, r3, #16384	; 0x4000
 8002e10:	f023 0370 	bic.w	r3, r3, #112	; 0x70
 8002e14:	b29c      	uxth	r4, r3
 8002e16:	f484 5380 	eor.w	r3, r4, #4096	; 0x1000
 8002e1a:	b29c      	uxth	r4, r3
 8002e1c:	f484 5300 	eor.w	r3, r4, #8192	; 0x2000
 8002e20:	b29c      	uxth	r4, r3
 8002e22:	687a      	ldr	r2, [r7, #4]
 8002e24:	683b      	ldr	r3, [r7, #0]
 8002e26:	781b      	ldrb	r3, [r3, #0]
 8002e28:	009b      	lsls	r3, r3, #2
 8002e2a:	441a      	add	r2, r3
 8002e2c:	4b49      	ldr	r3, [pc, #292]	; (8002f54 <USB_ActivateEndpoint+0x578>)
 8002e2e:	4323      	orrs	r3, r4
 8002e30:	b29b      	uxth	r3, r3
 8002e32:	8013      	strh	r3, [r2, #0]
      PCD_SET_EP_TX_STATUS(USBx, ep->num, USB_EP_TX_DIS);
 8002e34:	687a      	ldr	r2, [r7, #4]
 8002e36:	683b      	ldr	r3, [r7, #0]
 8002e38:	781b      	ldrb	r3, [r3, #0]
 8002e3a:	009b      	lsls	r3, r3, #2
 8002e3c:	4413      	add	r3, r2
 8002e3e:	881b      	ldrh	r3, [r3, #0]
 8002e40:	b29b      	uxth	r3, r3
 8002e42:	f423 43e0 	bic.w	r3, r3, #28672	; 0x7000
 8002e46:	f023 0340 	bic.w	r3, r3, #64	; 0x40
 8002e4a:	b29c      	uxth	r4, r3
 8002e4c:	687a      	ldr	r2, [r7, #4]
 8002e4e:	683b      	ldr	r3, [r7, #0]
 8002e50:	781b      	ldrb	r3, [r3, #0]
 8002e52:	009b      	lsls	r3, r3, #2
 8002e54:	441a      	add	r2, r3
 8002e56:	4b3f      	ldr	r3, [pc, #252]	; (8002f54 <USB_ActivateEndpoint+0x578>)
 8002e58:	4323      	orrs	r3, r4
 8002e5a:	b29b      	uxth	r3, r3
 8002e5c:	8013      	strh	r3, [r2, #0]
 8002e5e:	e0a5      	b.n	8002fac <USB_ActivateEndpoint+0x5d0>
    }
    else
    {
      /* Clear the data toggle bits for the endpoint IN/OUT */
      PCD_CLEAR_RX_DTOG(USBx, ep->num);
 8002e60:	687a      	ldr	r2, [r7, #4]
 8002e62:	683b      	ldr	r3, [r7, #0]
 8002e64:	781b      	ldrb	r3, [r3, #0]
 8002e66:	009b      	lsls	r3, r3, #2
 8002e68:	4413      	add	r3, r2
 8002e6a:	881b      	ldrh	r3, [r3, #0]
 8002e6c:	b29c      	uxth	r4, r3
 8002e6e:	4623      	mov	r3, r4
 8002e70:	f403 4380 	and.w	r3, r3, #16384	; 0x4000
 8002e74:	2b00      	cmp	r3, #0
 8002e76:	d014      	beq.n	8002ea2 <USB_ActivateEndpoint+0x4c6>
 8002e78:	687a      	ldr	r2, [r7, #4]
 8002e7a:	683b      	ldr	r3, [r7, #0]
 8002e7c:	781b      	ldrb	r3, [r3, #0]
 8002e7e:	009b      	lsls	r3, r3, #2
 8002e80:	4413      	add	r3, r2
 8002e82:	881b      	ldrh	r3, [r3, #0]
 8002e84:	b29b      	uxth	r3, r3
 8002e86:	f423 43e0 	bic.w	r3, r3, #28672	; 0x7000
 8002e8a:	f023 0370 	bic.w	r3, r3, #112	; 0x70
 8002e8e:	b29c      	uxth	r4, r3
 8002e90:	687a      	ldr	r2, [r7, #4]
 8002e92:	683b      	ldr	r3, [r7, #0]
 8002e94:	781b      	ldrb	r3, [r3, #0]
 8002e96:	009b      	lsls	r3, r3, #2
 8002e98:	441a      	add	r2, r3
 8002e9a:	4b2c      	ldr	r3, [pc, #176]	; (8002f4c <USB_ActivateEndpoint+0x570>)
 8002e9c:	4323      	orrs	r3, r4
 8002e9e:	b29b      	uxth	r3, r3
 8002ea0:	8013      	strh	r3, [r2, #0]
      PCD_CLEAR_TX_DTOG(USBx, ep->num);
 8002ea2:	687a      	ldr	r2, [r7, #4]
 8002ea4:	683b      	ldr	r3, [r7, #0]
 8002ea6:	781b      	ldrb	r3, [r3, #0]
 8002ea8:	009b      	lsls	r3, r3, #2
 8002eaa:	4413      	add	r3, r2
 8002eac:	881b      	ldrh	r3, [r3, #0]
 8002eae:	b29c      	uxth	r4, r3
 8002eb0:	4623      	mov	r3, r4
 8002eb2:	f003 0340 	and.w	r3, r3, #64	; 0x40
 8002eb6:	2b00      	cmp	r3, #0
 8002eb8:	d014      	beq.n	8002ee4 <USB_ActivateEndpoint+0x508>
 8002eba:	687a      	ldr	r2, [r7, #4]
 8002ebc:	683b      	ldr	r3, [r7, #0]
 8002ebe:	781b      	ldrb	r3, [r3, #0]
 8002ec0:	009b      	lsls	r3, r3, #2
 8002ec2:	4413      	add	r3, r2
 8002ec4:	881b      	ldrh	r3, [r3, #0]
 8002ec6:	b29b      	uxth	r3, r3
 8002ec8:	f423 43e0 	bic.w	r3, r3, #28672	; 0x7000
 8002ecc:	f023 0370 	bic.w	r3, r3, #112	; 0x70
 8002ed0:	b29c      	uxth	r4, r3
 8002ed2:	687a      	ldr	r2, [r7, #4]
 8002ed4:	683b      	ldr	r3, [r7, #0]
 8002ed6:	781b      	ldrb	r3, [r3, #0]
 8002ed8:	009b      	lsls	r3, r3, #2
 8002eda:	441a      	add	r2, r3
 8002edc:	4b1c      	ldr	r3, [pc, #112]	; (8002f50 <USB_ActivateEndpoint+0x574>)
 8002ede:	4323      	orrs	r3, r4
 8002ee0:	b29b      	uxth	r3, r3
 8002ee2:	8013      	strh	r3, [r2, #0]
      PCD_RX_DTOG(USBx, ep->num);
 8002ee4:	687a      	ldr	r2, [r7, #4]
 8002ee6:	683b      	ldr	r3, [r7, #0]
 8002ee8:	781b      	ldrb	r3, [r3, #0]
 8002eea:	009b      	lsls	r3, r3, #2
 8002eec:	4413      	add	r3, r2
 8002eee:	881b      	ldrh	r3, [r3, #0]
 8002ef0:	b29b      	uxth	r3, r3
 8002ef2:	f423 43e0 	bic.w	r3, r3, #28672	; 0x7000
 8002ef6:	f023 0370 	bic.w	r3, r3, #112	; 0x70
 8002efa:	b29c      	uxth	r4, r3
 8002efc:	687a      	ldr	r2, [r7, #4]
 8002efe:	683b      	ldr	r3, [r7, #0]
 8002f00:	781b      	ldrb	r3, [r3, #0]
 8002f02:	009b      	lsls	r3, r3, #2
 8002f04:	441a      	add	r2, r3
 8002f06:	4b11      	ldr	r3, [pc, #68]	; (8002f4c <USB_ActivateEndpoint+0x570>)
 8002f08:	4323      	orrs	r3, r4
 8002f0a:	b29b      	uxth	r3, r3
 8002f0c:	8013      	strh	r3, [r2, #0]

      if (ep->type != EP_TYPE_ISOC)
 8002f0e:	683b      	ldr	r3, [r7, #0]
 8002f10:	78db      	ldrb	r3, [r3, #3]
 8002f12:	2b01      	cmp	r3, #1
 8002f14:	d020      	beq.n	8002f58 <USB_ActivateEndpoint+0x57c>
      {
        /* Configure NAK status for the Endpoint */
        PCD_SET_EP_TX_STATUS(USBx, ep->num, USB_EP_TX_NAK);
 8002f16:	687a      	ldr	r2, [r7, #4]
 8002f18:	683b      	ldr	r3, [r7, #0]
 8002f1a:	781b      	ldrb	r3, [r3, #0]
 8002f1c:	009b      	lsls	r3, r3, #2
 8002f1e:	4413      	add	r3, r2
 8002f20:	881b      	ldrh	r3, [r3, #0]
 8002f22:	b29b      	uxth	r3, r3
 8002f24:	f423 43e0 	bic.w	r3, r3, #28672	; 0x7000
 8002f28:	f023 0340 	bic.w	r3, r3, #64	; 0x40
 8002f2c:	b29c      	uxth	r4, r3
 8002f2e:	f084 0320 	eor.w	r3, r4, #32
 8002f32:	b29c      	uxth	r4, r3
 8002f34:	687a      	ldr	r2, [r7, #4]
 8002f36:	683b      	ldr	r3, [r7, #0]
 8002f38:	781b      	ldrb	r3, [r3, #0]
 8002f3a:	009b      	lsls	r3, r3, #2
 8002f3c:	441a      	add	r2, r3
 8002f3e:	4b05      	ldr	r3, [pc, #20]	; (8002f54 <USB_ActivateEndpoint+0x578>)
 8002f40:	4323      	orrs	r3, r4
 8002f42:	b29b      	uxth	r3, r3
 8002f44:	8013      	strh	r3, [r2, #0]
 8002f46:	e01c      	b.n	8002f82 <USB_ActivateEndpoint+0x5a6>
 8002f48:	ffff8180 	.word	0xffff8180
 8002f4c:	ffffc080 	.word	0xffffc080
 8002f50:	ffff80c0 	.word	0xffff80c0
 8002f54:	ffff8080 	.word	0xffff8080
      }
      else
      {
        /* Configure TX Endpoint to disabled state */
        PCD_SET_EP_TX_STATUS(USBx, ep->num, USB_EP_TX_DIS);
 8002f58:	687a      	ldr	r2, [r7, #4]
 8002f5a:	683b      	ldr	r3, [r7, #0]
 8002f5c:	781b      	ldrb	r3, [r3, #0]
 8002f5e:	009b      	lsls	r3, r3, #2
 8002f60:	4413      	add	r3, r2
 8002f62:	881b      	ldrh	r3, [r3, #0]
 8002f64:	b29b      	uxth	r3, r3
 8002f66:	f423 43e0 	bic.w	r3, r3, #28672	; 0x7000
 8002f6a:	f023 0340 	bic.w	r3, r3, #64	; 0x40
 8002f6e:	b29c      	uxth	r4, r3
 8002f70:	687a      	ldr	r2, [r7, #4]
 8002f72:	683b      	ldr	r3, [r7, #0]
 8002f74:	781b      	ldrb	r3, [r3, #0]
 8002f76:	009b      	lsls	r3, r3, #2
 8002f78:	441a      	add	r2, r3
 8002f7a:	4b0f      	ldr	r3, [pc, #60]	; (8002fb8 <USB_ActivateEndpoint+0x5dc>)
 8002f7c:	4323      	orrs	r3, r4
 8002f7e:	b29b      	uxth	r3, r3
 8002f80:	8013      	strh	r3, [r2, #0]
      }

      PCD_SET_EP_RX_STATUS(USBx, ep->num, USB_EP_RX_DIS);
 8002f82:	687a      	ldr	r2, [r7, #4]
 8002f84:	683b      	ldr	r3, [r7, #0]
 8002f86:	781b      	ldrb	r3, [r3, #0]
 8002f88:	009b      	lsls	r3, r3, #2
 8002f8a:	4413      	add	r3, r2
 8002f8c:	881b      	ldrh	r3, [r3, #0]
 8002f8e:	b29b      	uxth	r3, r3
 8002f90:	f423 4380 	bic.w	r3, r3, #16384	; 0x4000
 8002f94:	f023 0370 	bic.w	r3, r3, #112	; 0x70
 8002f98:	b29c      	uxth	r4, r3
 8002f9a:	687a      	ldr	r2, [r7, #4]
 8002f9c:	683b      	ldr	r3, [r7, #0]
 8002f9e:	781b      	ldrb	r3, [r3, #0]
 8002fa0:	009b      	lsls	r3, r3, #2
 8002fa2:	441a      	add	r2, r3
 8002fa4:	4b04      	ldr	r3, [pc, #16]	; (8002fb8 <USB_ActivateEndpoint+0x5dc>)
 8002fa6:	4323      	orrs	r3, r4
 8002fa8:	b29b      	uxth	r3, r3
 8002faa:	8013      	strh	r3, [r2, #0]
    }
  }

  return ret;
 8002fac:	7bfb      	ldrb	r3, [r7, #15]
}
 8002fae:	4618      	mov	r0, r3
 8002fb0:	3710      	adds	r7, #16
 8002fb2:	46bd      	mov	sp, r7
 8002fb4:	bc90      	pop	{r4, r7}
 8002fb6:	4770      	bx	lr
 8002fb8:	ffff8080 	.word	0xffff8080

08002fbc <USB_DeactivateEndpoint>:
  * @param  USBx : Selected device
  * @param  ep: pointer to endpoint structure
  * @retval HAL status
  */
HAL_StatusTypeDef USB_DeactivateEndpoint(USB_TypeDef *USBx, USB_EPTypeDef *ep)
{
 8002fbc:	b490      	push	{r4, r7}
 8002fbe:	b082      	sub	sp, #8
 8002fc0:	af00      	add	r7, sp, #0
 8002fc2:	6078      	str	r0, [r7, #4]
 8002fc4:	6039      	str	r1, [r7, #0]
  if (ep->doublebuffer == 0U)
 8002fc6:	683b      	ldr	r3, [r7, #0]
 8002fc8:	7b1b      	ldrb	r3, [r3, #12]
 8002fca:	2b00      	cmp	r3, #0
 8002fcc:	d171      	bne.n	80030b2 <USB_DeactivateEndpoint+0xf6>
  {
    if (ep->is_in != 0U)
 8002fce:	683b      	ldr	r3, [r7, #0]
 8002fd0:	785b      	ldrb	r3, [r3, #1]
 8002fd2:	2b00      	cmp	r3, #0
 8002fd4:	d036      	beq.n	8003044 <USB_DeactivateEndpoint+0x88>
    {
      PCD_CLEAR_TX_DTOG(USBx, ep->num);
 8002fd6:	687a      	ldr	r2, [r7, #4]
 8002fd8:	683b      	ldr	r3, [r7, #0]
 8002fda:	781b      	ldrb	r3, [r3, #0]
 8002fdc:	009b      	lsls	r3, r3, #2
 8002fde:	4413      	add	r3, r2
 8002fe0:	881b      	ldrh	r3, [r3, #0]
 8002fe2:	b29c      	uxth	r4, r3
 8002fe4:	4623      	mov	r3, r4
 8002fe6:	f003 0340 	and.w	r3, r3, #64	; 0x40
 8002fea:	2b00      	cmp	r3, #0
 8002fec:	d014      	beq.n	8003018 <USB_DeactivateEndpoint+0x5c>
 8002fee:	687a      	ldr	r2, [r7, #4]
 8002ff0:	683b      	ldr	r3, [r7, #0]
 8002ff2:	781b      	ldrb	r3, [r3, #0]
 8002ff4:	009b      	lsls	r3, r3, #2
 8002ff6:	4413      	add	r3, r2
 8002ff8:	881b      	ldrh	r3, [r3, #0]
 8002ffa:	b29b      	uxth	r3, r3
 8002ffc:	f423 43e0 	bic.w	r3, r3, #28672	; 0x7000
 8003000:	f023 0370 	bic.w	r3, r3, #112	; 0x70
 8003004:	b29c      	uxth	r4, r3
 8003006:	687a      	ldr	r2, [r7, #4]
 8003008:	683b      	ldr	r3, [r7, #0]
 800300a:	781b      	ldrb	r3, [r3, #0]
 800300c:	009b      	lsls	r3, r3, #2
 800300e:	441a      	add	r2, r3
 8003010:	4b6b      	ldr	r3, [pc, #428]	; (80031c0 <USB_DeactivateEndpoint+0x204>)
 8003012:	4323      	orrs	r3, r4
 8003014:	b29b      	uxth	r3, r3
 8003016:	8013      	strh	r3, [r2, #0]
      /* Configure DISABLE status for the Endpoint*/
      PCD_SET_EP_TX_STATUS(USBx, ep->num, USB_EP_TX_DIS);
 8003018:	687a      	ldr	r2, [r7, #4]
 800301a:	683b      	ldr	r3, [r7, #0]
 800301c:	781b      	ldrb	r3, [r3, #0]
 800301e:	009b      	lsls	r3, r3, #2
 8003020:	4413      	add	r3, r2
 8003022:	881b      	ldrh	r3, [r3, #0]
 8003024:	b29b      	uxth	r3, r3
 8003026:	f423 43e0 	bic.w	r3, r3, #28672	; 0x7000
 800302a:	f023 0340 	bic.w	r3, r3, #64	; 0x40
 800302e:	b29c      	uxth	r4, r3
 8003030:	687a      	ldr	r2, [r7, #4]
 8003032:	683b      	ldr	r3, [r7, #0]
 8003034:	781b      	ldrb	r3, [r3, #0]
 8003036:	009b      	lsls	r3, r3, #2
 8003038:	441a      	add	r2, r3
 800303a:	4b62      	ldr	r3, [pc, #392]	; (80031c4 <USB_DeactivateEndpoint+0x208>)
 800303c:	4323      	orrs	r3, r4
 800303e:	b29b      	uxth	r3, r3
 8003040:	8013      	strh	r3, [r2, #0]
 8003042:	e144      	b.n	80032ce <USB_DeactivateEndpoint+0x312>
    }
    else
    {
      PCD_CLEAR_RX_DTOG(USBx, ep->num);
 8003044:	687a      	ldr	r2, [r7, #4]
 8003046:	683b      	ldr	r3, [r7, #0]
 8003048:	781b      	ldrb	r3, [r3, #0]
 800304a:	009b      	lsls	r3, r3, #2
 800304c:	4413      	add	r3, r2
 800304e:	881b      	ldrh	r3, [r3, #0]
 8003050:	b29c      	uxth	r4, r3
 8003052:	4623      	mov	r3, r4
 8003054:	f403 4380 	and.w	r3, r3, #16384	; 0x4000
 8003058:	2b00      	cmp	r3, #0
 800305a:	d014      	beq.n	8003086 <USB_DeactivateEndpoint+0xca>
 800305c:	687a      	ldr	r2, [r7, #4]
 800305e:	683b      	ldr	r3, [r7, #0]
 8003060:	781b      	ldrb	r3, [r3, #0]
 8003062:	009b      	lsls	r3, r3, #2
 8003064:	4413      	add	r3, r2
 8003066:	881b      	ldrh	r3, [r3, #0]
 8003068:	b29b      	uxth	r3, r3
 800306a:	f423 43e0 	bic.w	r3, r3, #28672	; 0x7000
 800306e:	f023 0370 	bic.w	r3, r3, #112	; 0x70
 8003072:	b29c      	uxth	r4, r3
 8003074:	687a      	ldr	r2, [r7, #4]
 8003076:	683b      	ldr	r3, [r7, #0]
 8003078:	781b      	ldrb	r3, [r3, #0]
 800307a:	009b      	lsls	r3, r3, #2
 800307c:	441a      	add	r2, r3
 800307e:	4b52      	ldr	r3, [pc, #328]	; (80031c8 <USB_DeactivateEndpoint+0x20c>)
 8003080:	4323      	orrs	r3, r4
 8003082:	b29b      	uxth	r3, r3
 8003084:	8013      	strh	r3, [r2, #0]
      /* Configure DISABLE status for the Endpoint*/
      PCD_SET_EP_RX_STATUS(USBx, ep->num, USB_EP_RX_DIS);
 8003086:	687a      	ldr	r2, [r7, #4]
 8003088:	683b      	ldr	r3, [r7, #0]
 800308a:	781b      	ldrb	r3, [r3, #0]
 800308c:	009b      	lsls	r3, r3, #2
 800308e:	4413      	add	r3, r2
 8003090:	881b      	ldrh	r3, [r3, #0]
 8003092:	b29b      	uxth	r3, r3
 8003094:	f423 4380 	bic.w	r3, r3, #16384	; 0x4000
 8003098:	f023 0370 	bic.w	r3, r3, #112	; 0x70
 800309c:	b29c      	uxth	r4, r3
 800309e:	687a      	ldr	r2, [r7, #4]
 80030a0:	683b      	ldr	r3, [r7, #0]
 80030a2:	781b      	ldrb	r3, [r3, #0]
 80030a4:	009b      	lsls	r3, r3, #2
 80030a6:	441a      	add	r2, r3
 80030a8:	4b46      	ldr	r3, [pc, #280]	; (80031c4 <USB_DeactivateEndpoint+0x208>)
 80030aa:	4323      	orrs	r3, r4
 80030ac:	b29b      	uxth	r3, r3
 80030ae:	8013      	strh	r3, [r2, #0]
 80030b0:	e10d      	b.n	80032ce <USB_DeactivateEndpoint+0x312>
    }
  }
  /*Double Buffer*/
  else
  {
    if (ep->is_in == 0U)
 80030b2:	683b      	ldr	r3, [r7, #0]
 80030b4:	785b      	ldrb	r3, [r3, #1]
 80030b6:	2b00      	cmp	r3, #0
 80030b8:	f040 8088 	bne.w	80031cc <USB_DeactivateEndpoint+0x210>
    {
      /* Clear the data toggle bits for the endpoint IN/OUT*/
      PCD_CLEAR_RX_DTOG(USBx, ep->num);
 80030bc:	687a      	ldr	r2, [r7, #4]
 80030be:	683b      	ldr	r3, [r7, #0]
 80030c0:	781b      	ldrb	r3, [r3, #0]
 80030c2:	009b      	lsls	r3, r3, #2
 80030c4:	4413      	add	r3, r2
 80030c6:	881b      	ldrh	r3, [r3, #0]
 80030c8:	b29c      	uxth	r4, r3
 80030ca:	4623      	mov	r3, r4
 80030cc:	f403 4380 	and.w	r3, r3, #16384	; 0x4000
 80030d0:	2b00      	cmp	r3, #0
 80030d2:	d014      	beq.n	80030fe <USB_DeactivateEndpoint+0x142>
 80030d4:	687a      	ldr	r2, [r7, #4]
 80030d6:	683b      	ldr	r3, [r7, #0]
 80030d8:	781b      	ldrb	r3, [r3, #0]
 80030da:	009b      	lsls	r3, r3, #2
 80030dc:	4413      	add	r3, r2
 80030de:	881b      	ldrh	r3, [r3, #0]
 80030e0:	b29b      	uxth	r3, r3
 80030e2:	f423 43e0 	bic.w	r3, r3, #28672	; 0x7000
 80030e6:	f023 0370 	bic.w	r3, r3, #112	; 0x70
 80030ea:	b29c      	uxth	r4, r3
 80030ec:	687a      	ldr	r2, [r7, #4]
 80030ee:	683b      	ldr	r3, [r7, #0]
 80030f0:	781b      	ldrb	r3, [r3, #0]
 80030f2:	009b      	lsls	r3, r3, #2
 80030f4:	441a      	add	r2, r3
 80030f6:	4b34      	ldr	r3, [pc, #208]	; (80031c8 <USB_DeactivateEndpoint+0x20c>)
 80030f8:	4323      	orrs	r3, r4
 80030fa:	b29b      	uxth	r3, r3
 80030fc:	8013      	strh	r3, [r2, #0]
      PCD_CLEAR_TX_DTOG(USBx, ep->num);
 80030fe:	687a      	ldr	r2, [r7, #4]
 8003100:	683b      	ldr	r3, [r7, #0]
 8003102:	781b      	ldrb	r3, [r3, #0]
 8003104:	009b      	lsls	r3, r3, #2
 8003106:	4413      	add	r3, r2
 8003108:	881b      	ldrh	r3, [r3, #0]
 800310a:	b29c      	uxth	r4, r3
 800310c:	4623      	mov	r3, r4
 800310e:	f003 0340 	and.w	r3, r3, #64	; 0x40
 8003112:	2b00      	cmp	r3, #0
 8003114:	d014      	beq.n	8003140 <USB_DeactivateEndpoint+0x184>
 8003116:	687a      	ldr	r2, [r7, #4]
 8003118:	683b      	ldr	r3, [r7, #0]
 800311a:	781b      	ldrb	r3, [r3, #0]
 800311c:	009b      	lsls	r3, r3, #2
 800311e:	4413      	add	r3, r2
 8003120:	881b      	ldrh	r3, [r3, #0]
 8003122:	b29b      	uxth	r3, r3
 8003124:	f423 43e0 	bic.w	r3, r3, #28672	; 0x7000
 8003128:	f023 0370 	bic.w	r3, r3, #112	; 0x70
 800312c:	b29c      	uxth	r4, r3
 800312e:	687a      	ldr	r2, [r7, #4]
 8003130:	683b      	ldr	r3, [r7, #0]
 8003132:	781b      	ldrb	r3, [r3, #0]
 8003134:	009b      	lsls	r3, r3, #2
 8003136:	441a      	add	r2, r3
 8003138:	4b21      	ldr	r3, [pc, #132]	; (80031c0 <USB_DeactivateEndpoint+0x204>)
 800313a:	4323      	orrs	r3, r4
 800313c:	b29b      	uxth	r3, r3
 800313e:	8013      	strh	r3, [r2, #0]

      /* Reset value of the data toggle bits for the endpoint out*/
      PCD_TX_DTOG(USBx, ep->num);
 8003140:	687a      	ldr	r2, [r7, #4]
 8003142:	683b      	ldr	r3, [r7, #0]
 8003144:	781b      	ldrb	r3, [r3, #0]
 8003146:	009b      	lsls	r3, r3, #2
 8003148:	4413      	add	r3, r2
 800314a:	881b      	ldrh	r3, [r3, #0]
 800314c:	b29b      	uxth	r3, r3
 800314e:	f423 43e0 	bic.w	r3, r3, #28672	; 0x7000
 8003152:	f023 0370 	bic.w	r3, r3, #112	; 0x70
 8003156:	b29c      	uxth	r4, r3
 8003158:	687a      	ldr	r2, [r7, #4]
 800315a:	683b      	ldr	r3, [r7, #0]
 800315c:	781b      	ldrb	r3, [r3, #0]
 800315e:	009b      	lsls	r3, r3, #2
 8003160:	441a      	add	r2, r3
 8003162:	4b17      	ldr	r3, [pc, #92]	; (80031c0 <USB_DeactivateEndpoint+0x204>)
 8003164:	4323      	orrs	r3, r4
 8003166:	b29b      	uxth	r3, r3
 8003168:	8013      	strh	r3, [r2, #0]

      PCD_SET_EP_RX_STATUS(USBx, ep->num, USB_EP_RX_DIS);
 800316a:	687a      	ldr	r2, [r7, #4]
 800316c:	683b      	ldr	r3, [r7, #0]
 800316e:	781b      	ldrb	r3, [r3, #0]
 8003170:	009b      	lsls	r3, r3, #2
 8003172:	4413      	add	r3, r2
 8003174:	881b      	ldrh	r3, [r3, #0]
 8003176:	b29b      	uxth	r3, r3
 8003178:	f423 4380 	bic.w	r3, r3, #16384	; 0x4000
 800317c:	f023 0370 	bic.w	r3, r3, #112	; 0x70
 8003180:	b29c      	uxth	r4, r3
 8003182:	687a      	ldr	r2, [r7, #4]
 8003184:	683b      	ldr	r3, [r7, #0]
 8003186:	781b      	ldrb	r3, [r3, #0]
 8003188:	009b      	lsls	r3, r3, #2
 800318a:	441a      	add	r2, r3
 800318c:	4b0d      	ldr	r3, [pc, #52]	; (80031c4 <USB_DeactivateEndpoint+0x208>)
 800318e:	4323      	orrs	r3, r4
 8003190:	b29b      	uxth	r3, r3
 8003192:	8013      	strh	r3, [r2, #0]
      PCD_SET_EP_TX_STATUS(USBx, ep->num, USB_EP_TX_DIS);
 8003194:	687a      	ldr	r2, [r7, #4]
 8003196:	683b      	ldr	r3, [r7, #0]
 8003198:	781b      	ldrb	r3, [r3, #0]
 800319a:	009b      	lsls	r3, r3, #2
 800319c:	4413      	add	r3, r2
 800319e:	881b      	ldrh	r3, [r3, #0]
 80031a0:	b29b      	uxth	r3, r3
 80031a2:	f423 43e0 	bic.w	r3, r3, #28672	; 0x7000
 80031a6:	f023 0340 	bic.w	r3, r3, #64	; 0x40
 80031aa:	b29c      	uxth	r4, r3
 80031ac:	687a      	ldr	r2, [r7, #4]
 80031ae:	683b      	ldr	r3, [r7, #0]
 80031b0:	781b      	ldrb	r3, [r3, #0]
 80031b2:	009b      	lsls	r3, r3, #2
 80031b4:	441a      	add	r2, r3
 80031b6:	4b03      	ldr	r3, [pc, #12]	; (80031c4 <USB_DeactivateEndpoint+0x208>)
 80031b8:	4323      	orrs	r3, r4
 80031ba:	b29b      	uxth	r3, r3
 80031bc:	8013      	strh	r3, [r2, #0]
 80031be:	e086      	b.n	80032ce <USB_DeactivateEndpoint+0x312>
 80031c0:	ffff80c0 	.word	0xffff80c0
 80031c4:	ffff8080 	.word	0xffff8080
 80031c8:	ffffc080 	.word	0xffffc080
    }
    else
    {
      /* Clear the data toggle bits for the endpoint IN/OUT*/
      PCD_CLEAR_RX_DTOG(USBx, ep->num);
 80031cc:	687a      	ldr	r2, [r7, #4]
 80031ce:	683b      	ldr	r3, [r7, #0]
 80031d0:	781b      	ldrb	r3, [r3, #0]
 80031d2:	009b      	lsls	r3, r3, #2
 80031d4:	4413      	add	r3, r2
 80031d6:	881b      	ldrh	r3, [r3, #0]
 80031d8:	b29c      	uxth	r4, r3
 80031da:	4623      	mov	r3, r4
 80031dc:	f403 4380 	and.w	r3, r3, #16384	; 0x4000
 80031e0:	2b00      	cmp	r3, #0
 80031e2:	d014      	beq.n	800320e <USB_DeactivateEndpoint+0x252>
 80031e4:	687a      	ldr	r2, [r7, #4]
 80031e6:	683b      	ldr	r3, [r7, #0]
 80031e8:	781b      	ldrb	r3, [r3, #0]
 80031ea:	009b      	lsls	r3, r3, #2
 80031ec:	4413      	add	r3, r2
 80031ee:	881b      	ldrh	r3, [r3, #0]
 80031f0:	b29b      	uxth	r3, r3
 80031f2:	f423 43e0 	bic.w	r3, r3, #28672	; 0x7000
 80031f6:	f023 0370 	bic.w	r3, r3, #112	; 0x70
 80031fa:	b29c      	uxth	r4, r3
 80031fc:	687a      	ldr	r2, [r7, #4]
 80031fe:	683b      	ldr	r3, [r7, #0]
 8003200:	781b      	ldrb	r3, [r3, #0]
 8003202:	009b      	lsls	r3, r3, #2
 8003204:	441a      	add	r2, r3
 8003206:	4b35      	ldr	r3, [pc, #212]	; (80032dc <USB_DeactivateEndpoint+0x320>)
 8003208:	4323      	orrs	r3, r4
 800320a:	b29b      	uxth	r3, r3
 800320c:	8013      	strh	r3, [r2, #0]
      PCD_CLEAR_TX_DTOG(USBx, ep->num);
 800320e:	687a      	ldr	r2, [r7, #4]
 8003210:	683b      	ldr	r3, [r7, #0]
 8003212:	781b      	ldrb	r3, [r3, #0]
 8003214:	009b      	lsls	r3, r3, #2
 8003216:	4413      	add	r3, r2
 8003218:	881b      	ldrh	r3, [r3, #0]
 800321a:	b29c      	uxth	r4, r3
 800321c:	4623      	mov	r3, r4
 800321e:	f003 0340 	and.w	r3, r3, #64	; 0x40
 8003222:	2b00      	cmp	r3, #0
 8003224:	d014      	beq.n	8003250 <USB_DeactivateEndpoint+0x294>
 8003226:	687a      	ldr	r2, [r7, #4]
 8003228:	683b      	ldr	r3, [r7, #0]
 800322a:	781b      	ldrb	r3, [r3, #0]
 800322c:	009b      	lsls	r3, r3, #2
 800322e:	4413      	add	r3, r2
 8003230:	881b      	ldrh	r3, [r3, #0]
 8003232:	b29b      	uxth	r3, r3
 8003234:	f423 43e0 	bic.w	r3, r3, #28672	; 0x7000
 8003238:	f023 0370 	bic.w	r3, r3, #112	; 0x70
 800323c:	b29c      	uxth	r4, r3
 800323e:	687a      	ldr	r2, [r7, #4]
 8003240:	683b      	ldr	r3, [r7, #0]
 8003242:	781b      	ldrb	r3, [r3, #0]
 8003244:	009b      	lsls	r3, r3, #2
 8003246:	441a      	add	r2, r3
 8003248:	4b25      	ldr	r3, [pc, #148]	; (80032e0 <USB_DeactivateEndpoint+0x324>)
 800324a:	4323      	orrs	r3, r4
 800324c:	b29b      	uxth	r3, r3
 800324e:	8013      	strh	r3, [r2, #0]
      PCD_RX_DTOG(USBx, ep->num);
 8003250:	687a      	ldr	r2, [r7, #4]
 8003252:	683b      	ldr	r3, [r7, #0]
 8003254:	781b      	ldrb	r3, [r3, #0]
 8003256:	009b      	lsls	r3, r3, #2
 8003258:	4413      	add	r3, r2
 800325a:	881b      	ldrh	r3, [r3, #0]
 800325c:	b29b      	uxth	r3, r3
 800325e:	f423 43e0 	bic.w	r3, r3, #28672	; 0x7000
 8003262:	f023 0370 	bic.w	r3, r3, #112	; 0x70
 8003266:	b29c      	uxth	r4, r3
 8003268:	687a      	ldr	r2, [r7, #4]
 800326a:	683b      	ldr	r3, [r7, #0]
 800326c:	781b      	ldrb	r3, [r3, #0]
 800326e:	009b      	lsls	r3, r3, #2
 8003270:	441a      	add	r2, r3
 8003272:	4b1a      	ldr	r3, [pc, #104]	; (80032dc <USB_DeactivateEndpoint+0x320>)
 8003274:	4323      	orrs	r3, r4
 8003276:	b29b      	uxth	r3, r3
 8003278:	8013      	strh	r3, [r2, #0]
      /* Configure DISABLE status for the Endpoint*/
      PCD_SET_EP_TX_STATUS(USBx, ep->num, USB_EP_TX_DIS);
 800327a:	687a      	ldr	r2, [r7, #4]
 800327c:	683b      	ldr	r3, [r7, #0]
 800327e:	781b      	ldrb	r3, [r3, #0]
 8003280:	009b      	lsls	r3, r3, #2
 8003282:	4413      	add	r3, r2
 8003284:	881b      	ldrh	r3, [r3, #0]
 8003286:	b29b      	uxth	r3, r3
 8003288:	f423 43e0 	bic.w	r3, r3, #28672	; 0x7000
 800328c:	f023 0340 	bic.w	r3, r3, #64	; 0x40
 8003290:	b29c      	uxth	r4, r3
 8003292:	687a      	ldr	r2, [r7, #4]
 8003294:	683b      	ldr	r3, [r7, #0]
 8003296:	781b      	ldrb	r3, [r3, #0]
 8003298:	009b      	lsls	r3, r3, #2
 800329a:	441a      	add	r2, r3
 800329c:	4b11      	ldr	r3, [pc, #68]	; (80032e4 <USB_DeactivateEndpoint+0x328>)
 800329e:	4323      	orrs	r3, r4
 80032a0:	b29b      	uxth	r3, r3
 80032a2:	8013      	strh	r3, [r2, #0]
      PCD_SET_EP_RX_STATUS(USBx, ep->num, USB_EP_RX_DIS);
 80032a4:	687a      	ldr	r2, [r7, #4]
 80032a6:	683b      	ldr	r3, [r7, #0]
 80032a8:	781b      	ldrb	r3, [r3, #0]
 80032aa:	009b      	lsls	r3, r3, #2
 80032ac:	4413      	add	r3, r2
 80032ae:	881b      	ldrh	r3, [r3, #0]
 80032b0:	b29b      	uxth	r3, r3
 80032b2:	f423 4380 	bic.w	r3, r3, #16384	; 0x4000
 80032b6:	f023 0370 	bic.w	r3, r3, #112	; 0x70
 80032ba:	b29c      	uxth	r4, r3
 80032bc:	687a      	ldr	r2, [r7, #4]
 80032be:	683b      	ldr	r3, [r7, #0]
 80032c0:	781b      	ldrb	r3, [r3, #0]
 80032c2:	009b      	lsls	r3, r3, #2
 80032c4:	441a      	add	r2, r3
 80032c6:	4b07      	ldr	r3, [pc, #28]	; (80032e4 <USB_DeactivateEndpoint+0x328>)
 80032c8:	4323      	orrs	r3, r4
 80032ca:	b29b      	uxth	r3, r3
 80032cc:	8013      	strh	r3, [r2, #0]
    }
  }

  return HAL_OK;
 80032ce:	2300      	movs	r3, #0
}
 80032d0:	4618      	mov	r0, r3
 80032d2:	3708      	adds	r7, #8
 80032d4:	46bd      	mov	sp, r7
 80032d6:	bc90      	pop	{r4, r7}
 80032d8:	4770      	bx	lr
 80032da:	bf00      	nop
 80032dc:	ffffc080 	.word	0xffffc080
 80032e0:	ffff80c0 	.word	0xffff80c0
 80032e4:	ffff8080 	.word	0xffff8080

080032e8 <USB_EPStartXfer>:
  * @param  USBx : Selected device
  * @param  ep: pointer to endpoint structure
  * @retval HAL status
  */
HAL_StatusTypeDef USB_EPStartXfer(USB_TypeDef *USBx, USB_EPTypeDef *ep)
{
 80032e8:	b590      	push	{r4, r7, lr}
 80032ea:	b08d      	sub	sp, #52	; 0x34
 80032ec:	af00      	add	r7, sp, #0
 80032ee:	6078      	str	r0, [r7, #4]
 80032f0:	6039      	str	r1, [r7, #0]
  uint16_t pmabuffer;
  uint32_t len;

  /* IN endpoint */
  if (ep->is_in == 1U)
 80032f2:	683b      	ldr	r3, [r7, #0]
 80032f4:	785b      	ldrb	r3, [r3, #1]
 80032f6:	2b01      	cmp	r3, #1
 80032f8:	f040 8160 	bne.w	80035bc <USB_EPStartXfer+0x2d4>
  {
    /*Multi packet transfer*/
    if (ep->xfer_len > ep->maxpacket)
 80032fc:	683b      	ldr	r3, [r7, #0]
 80032fe:	699a      	ldr	r2, [r3, #24]
 8003300:	683b      	ldr	r3, [r7, #0]
 8003302:	691b      	ldr	r3, [r3, #16]
 8003304:	429a      	cmp	r2, r3
 8003306:	d909      	bls.n	800331c <USB_EPStartXfer+0x34>
    {
      len = ep->maxpacket;
 8003308:	683b      	ldr	r3, [r7, #0]
 800330a:	691b      	ldr	r3, [r3, #16]
 800330c:	62bb      	str	r3, [r7, #40]	; 0x28
      ep->xfer_len -= len;
 800330e:	683b      	ldr	r3, [r7, #0]
 8003310:	699a      	ldr	r2, [r3, #24]
 8003312:	6abb      	ldr	r3, [r7, #40]	; 0x28
 8003314:	1ad2      	subs	r2, r2, r3
 8003316:	683b      	ldr	r3, [r7, #0]
 8003318:	619a      	str	r2, [r3, #24]
 800331a:	e005      	b.n	8003328 <USB_EPStartXfer+0x40>
    }
    else
    {
      len = ep->xfer_len;
 800331c:	683b      	ldr	r3, [r7, #0]
 800331e:	699b      	ldr	r3, [r3, #24]
 8003320:	62bb      	str	r3, [r7, #40]	; 0x28
      ep->xfer_len = 0U;
 8003322:	683b      	ldr	r3, [r7, #0]
 8003324:	2200      	movs	r2, #0
 8003326:	619a      	str	r2, [r3, #24]
    }

    /* configure and validate Tx endpoint */
    if (ep->doublebuffer == 0U)
 8003328:	683b      	ldr	r3, [r7, #0]
 800332a:	7b1b      	ldrb	r3, [r3, #12]
 800332c:	2b00      	cmp	r3, #0
 800332e:	d119      	bne.n	8003364 <USB_EPStartXfer+0x7c>
    {
      USB_WritePMA(USBx, ep->xfer_buff, ep->pmaadress, (uint16_t)len);
 8003330:	683b      	ldr	r3, [r7, #0]
 8003332:	6959      	ldr	r1, [r3, #20]
 8003334:	683b      	ldr	r3, [r7, #0]
 8003336:	88da      	ldrh	r2, [r3, #6]
 8003338:	6abb      	ldr	r3, [r7, #40]	; 0x28
 800333a:	b29b      	uxth	r3, r3
 800333c:	6878      	ldr	r0, [r7, #4]
 800333e:	f000 fba8 	bl	8003a92 <USB_WritePMA>
      PCD_SET_EP_TX_CNT(USBx, ep->num, len);
 8003342:	687c      	ldr	r4, [r7, #4]
 8003344:	687b      	ldr	r3, [r7, #4]
 8003346:	f8b3 3050 	ldrh.w	r3, [r3, #80]	; 0x50
 800334a:	b29b      	uxth	r3, r3
 800334c:	441c      	add	r4, r3
 800334e:	683b      	ldr	r3, [r7, #0]
 8003350:	781b      	ldrb	r3, [r3, #0]
 8003352:	00db      	lsls	r3, r3, #3
 8003354:	4423      	add	r3, r4
 8003356:	f203 4302 	addw	r3, r3, #1026	; 0x402
 800335a:	461c      	mov	r4, r3
 800335c:	6abb      	ldr	r3, [r7, #40]	; 0x28
 800335e:	b29b      	uxth	r3, r3
 8003360:	8023      	strh	r3, [r4, #0]
 8003362:	e10f      	b.n	8003584 <USB_EPStartXfer+0x29c>
    }
    else
    {
      /* Write the data to the USB endpoint */
      if ((PCD_GET_ENDPOINT(USBx, ep->num) & USB_EP_DTOG_TX) != 0U)
 8003364:	687a      	ldr	r2, [r7, #4]
 8003366:	683b      	ldr	r3, [r7, #0]
 8003368:	781b      	ldrb	r3, [r3, #0]
 800336a:	009b      	lsls	r3, r3, #2
 800336c:	4413      	add	r3, r2
 800336e:	881b      	ldrh	r3, [r3, #0]
 8003370:	b29b      	uxth	r3, r3
 8003372:	f003 0340 	and.w	r3, r3, #64	; 0x40
 8003376:	2b00      	cmp	r3, #0
 8003378:	d065      	beq.n	8003446 <USB_EPStartXfer+0x15e>
      {
        /* Set the Double buffer counter for pmabuffer1 */
        PCD_SET_EP_DBUF1_CNT(USBx, ep->num, ep->is_in, len);
 800337a:	687c      	ldr	r4, [r7, #4]
 800337c:	683b      	ldr	r3, [r7, #0]
 800337e:	785b      	ldrb	r3, [r3, #1]
 8003380:	2b00      	cmp	r3, #0
 8003382:	d148      	bne.n	8003416 <USB_EPStartXfer+0x12e>
 8003384:	687c      	ldr	r4, [r7, #4]
 8003386:	687b      	ldr	r3, [r7, #4]
 8003388:	f8b3 3050 	ldrh.w	r3, [r3, #80]	; 0x50
 800338c:	b29b      	uxth	r3, r3
 800338e:	441c      	add	r4, r3
 8003390:	683b      	ldr	r3, [r7, #0]
 8003392:	781b      	ldrb	r3, [r3, #0]
 8003394:	00db      	lsls	r3, r3, #3
 8003396:	4423      	add	r3, r4
 8003398:	f203 4306 	addw	r3, r3, #1030	; 0x406
 800339c:	461c      	mov	r4, r3
 800339e:	6abb      	ldr	r3, [r7, #40]	; 0x28
 80033a0:	2b00      	cmp	r3, #0
 80033a2:	d10e      	bne.n	80033c2 <USB_EPStartXfer+0xda>
 80033a4:	8823      	ldrh	r3, [r4, #0]
 80033a6:	b29b      	uxth	r3, r3
 80033a8:	f423 43f8 	bic.w	r3, r3, #31744	; 0x7c00
 80033ac:	b29b      	uxth	r3, r3
 80033ae:	8023      	strh	r3, [r4, #0]
 80033b0:	8823      	ldrh	r3, [r4, #0]
 80033b2:	b29b      	uxth	r3, r3
 80033b4:	ea6f 4343 	mvn.w	r3, r3, lsl #17
 80033b8:	ea6f 4353 	mvn.w	r3, r3, lsr #17
 80033bc:	b29b      	uxth	r3, r3
 80033be:	8023      	strh	r3, [r4, #0]
 80033c0:	e03d      	b.n	800343e <USB_EPStartXfer+0x156>
 80033c2:	6abb      	ldr	r3, [r7, #40]	; 0x28
 80033c4:	2b3e      	cmp	r3, #62	; 0x3e
 80033c6:	d810      	bhi.n	80033ea <USB_EPStartXfer+0x102>
 80033c8:	6abb      	ldr	r3, [r7, #40]	; 0x28
 80033ca:	085b      	lsrs	r3, r3, #1
 80033cc:	627b      	str	r3, [r7, #36]	; 0x24
 80033ce:	6abb      	ldr	r3, [r7, #40]	; 0x28
 80033d0:	f003 0301 	and.w	r3, r3, #1
 80033d4:	2b00      	cmp	r3, #0
 80033d6:	d002      	beq.n	80033de <USB_EPStartXfer+0xf6>
 80033d8:	6a7b      	ldr	r3, [r7, #36]	; 0x24
 80033da:	3301      	adds	r3, #1
 80033dc:	627b      	str	r3, [r7, #36]	; 0x24
 80033de:	6a7b      	ldr	r3, [r7, #36]	; 0x24
 80033e0:	b29b      	uxth	r3, r3
 80033e2:	029b      	lsls	r3, r3, #10
 80033e4:	b29b      	uxth	r3, r3
 80033e6:	8023      	strh	r3, [r4, #0]
 80033e8:	e029      	b.n	800343e <USB_EPStartXfer+0x156>
 80033ea:	6abb      	ldr	r3, [r7, #40]	; 0x28
 80033ec:	095b      	lsrs	r3, r3, #5
 80033ee:	627b      	str	r3, [r7, #36]	; 0x24
 80033f0:	6abb      	ldr	r3, [r7, #40]	; 0x28
 80033f2:	f003 031f 	and.w	r3, r3, #31
 80033f6:	2b00      	cmp	r3, #0
 80033f8:	d102      	bne.n	8003400 <USB_EPStartXfer+0x118>
 80033fa:	6a7b      	ldr	r3, [r7, #36]	; 0x24
 80033fc:	3b01      	subs	r3, #1
 80033fe:	627b      	str	r3, [r7, #36]	; 0x24
 8003400:	6a7b      	ldr	r3, [r7, #36]	; 0x24
 8003402:	b29b      	uxth	r3, r3
 8003404:	029b      	lsls	r3, r3, #10
 8003406:	b29b      	uxth	r3, r3
 8003408:	ea6f 4343 	mvn.w	r3, r3, lsl #17
 800340c:	ea6f 4353 	mvn.w	r3, r3, lsr #17
 8003410:	b29b      	uxth	r3, r3
 8003412:	8023      	strh	r3, [r4, #0]
 8003414:	e013      	b.n	800343e <USB_EPStartXfer+0x156>
 8003416:	683b      	ldr	r3, [r7, #0]
 8003418:	785b      	ldrb	r3, [r3, #1]
 800341a:	2b01      	cmp	r3, #1
 800341c:	d10f      	bne.n	800343e <USB_EPStartXfer+0x156>
 800341e:	687b      	ldr	r3, [r7, #4]
 8003420:	f8b3 3050 	ldrh.w	r3, [r3, #80]	; 0x50
 8003424:	b29b      	uxth	r3, r3
 8003426:	441c      	add	r4, r3
 8003428:	683b      	ldr	r3, [r7, #0]
 800342a:	781b      	ldrb	r3, [r3, #0]
 800342c:	00db      	lsls	r3, r3, #3
 800342e:	4423      	add	r3, r4
 8003430:	f203 4306 	addw	r3, r3, #1030	; 0x406
 8003434:	60fb      	str	r3, [r7, #12]
 8003436:	6abb      	ldr	r3, [r7, #40]	; 0x28
 8003438:	b29a      	uxth	r2, r3
 800343a:	68fb      	ldr	r3, [r7, #12]
 800343c:	801a      	strh	r2, [r3, #0]
        pmabuffer = ep->pmaaddr1;
 800343e:	683b      	ldr	r3, [r7, #0]
 8003440:	895b      	ldrh	r3, [r3, #10]
 8003442:	85fb      	strh	r3, [r7, #46]	; 0x2e
 8003444:	e063      	b.n	800350e <USB_EPStartXfer+0x226>
      }
      else
      {
        /* Set the Double buffer counter for pmabuffer0 */
        PCD_SET_EP_DBUF0_CNT(USBx, ep->num, ep->is_in, len);
 8003446:	683b      	ldr	r3, [r7, #0]
 8003448:	785b      	ldrb	r3, [r3, #1]
 800344a:	2b00      	cmp	r3, #0
 800344c:	d148      	bne.n	80034e0 <USB_EPStartXfer+0x1f8>
 800344e:	687c      	ldr	r4, [r7, #4]
 8003450:	687b      	ldr	r3, [r7, #4]
 8003452:	f8b3 3050 	ldrh.w	r3, [r3, #80]	; 0x50
 8003456:	b29b      	uxth	r3, r3
 8003458:	441c      	add	r4, r3
 800345a:	683b      	ldr	r3, [r7, #0]
 800345c:	781b      	ldrb	r3, [r3, #0]
 800345e:	00db      	lsls	r3, r3, #3
 8003460:	4423      	add	r3, r4
 8003462:	f203 4302 	addw	r3, r3, #1026	; 0x402
 8003466:	461c      	mov	r4, r3
 8003468:	6abb      	ldr	r3, [r7, #40]	; 0x28
 800346a:	2b00      	cmp	r3, #0
 800346c:	d10e      	bne.n	800348c <USB_EPStartXfer+0x1a4>
 800346e:	8823      	ldrh	r3, [r4, #0]
 8003470:	b29b      	uxth	r3, r3
 8003472:	f423 43f8 	bic.w	r3, r3, #31744	; 0x7c00
 8003476:	b29b      	uxth	r3, r3
 8003478:	8023      	strh	r3, [r4, #0]
 800347a:	8823      	ldrh	r3, [r4, #0]
 800347c:	b29b      	uxth	r3, r3
 800347e:	ea6f 4343 	mvn.w	r3, r3, lsl #17
 8003482:	ea6f 4353 	mvn.w	r3, r3, lsr #17
 8003486:	b29b      	uxth	r3, r3
 8003488:	8023      	strh	r3, [r4, #0]
 800348a:	e03d      	b.n	8003508 <USB_EPStartXfer+0x220>
 800348c:	6abb      	ldr	r3, [r7, #40]	; 0x28
 800348e:	2b3e      	cmp	r3, #62	; 0x3e
 8003490:	d810      	bhi.n	80034b4 <USB_EPStartXfer+0x1cc>
 8003492:	6abb      	ldr	r3, [r7, #40]	; 0x28
 8003494:	085b      	lsrs	r3, r3, #1
 8003496:	623b      	str	r3, [r7, #32]
 8003498:	6abb      	ldr	r3, [r7, #40]	; 0x28
 800349a:	f003 0301 	and.w	r3, r3, #1
 800349e:	2b00      	cmp	r3, #0
 80034a0:	d002      	beq.n	80034a8 <USB_EPStartXfer+0x1c0>
 80034a2:	6a3b      	ldr	r3, [r7, #32]
 80034a4:	3301      	adds	r3, #1
 80034a6:	623b      	str	r3, [r7, #32]
 80034a8:	6a3b      	ldr	r3, [r7, #32]
 80034aa:	b29b      	uxth	r3, r3
 80034ac:	029b      	lsls	r3, r3, #10
 80034ae:	b29b      	uxth	r3, r3
 80034b0:	8023      	strh	r3, [r4, #0]
 80034b2:	e029      	b.n	8003508 <USB_EPStartXfer+0x220>
 80034b4:	6abb      	ldr	r3, [r7, #40]	; 0x28
 80034b6:	095b      	lsrs	r3, r3, #5
 80034b8:	623b      	str	r3, [r7, #32]
 80034ba:	6abb      	ldr	r3, [r7, #40]	; 0x28
 80034bc:	f003 031f 	and.w	r3, r3, #31
 80034c0:	2b00      	cmp	r3, #0
 80034c2:	d102      	bne.n	80034ca <USB_EPStartXfer+0x1e2>
 80034c4:	6a3b      	ldr	r3, [r7, #32]
 80034c6:	3b01      	subs	r3, #1
 80034c8:	623b      	str	r3, [r7, #32]
 80034ca:	6a3b      	ldr	r3, [r7, #32]
 80034cc:	b29b      	uxth	r3, r3
 80034ce:	029b      	lsls	r3, r3, #10
 80034d0:	b29b      	uxth	r3, r3
 80034d2:	ea6f 4343 	mvn.w	r3, r3, lsl #17
 80034d6:	ea6f 4353 	mvn.w	r3, r3, lsr #17
 80034da:	b29b      	uxth	r3, r3
 80034dc:	8023      	strh	r3, [r4, #0]
 80034de:	e013      	b.n	8003508 <USB_EPStartXfer+0x220>
 80034e0:	683b      	ldr	r3, [r7, #0]
 80034e2:	785b      	ldrb	r3, [r3, #1]
 80034e4:	2b01      	cmp	r3, #1
 80034e6:	d10f      	bne.n	8003508 <USB_EPStartXfer+0x220>
 80034e8:	687c      	ldr	r4, [r7, #4]
 80034ea:	687b      	ldr	r3, [r7, #4]
 80034ec:	f8b3 3050 	ldrh.w	r3, [r3, #80]	; 0x50
 80034f0:	b29b      	uxth	r3, r3
 80034f2:	441c      	add	r4, r3
 80034f4:	683b      	ldr	r3, [r7, #0]
 80034f6:	781b      	ldrb	r3, [r3, #0]
 80034f8:	00db      	lsls	r3, r3, #3
 80034fa:	4423      	add	r3, r4
 80034fc:	f203 4302 	addw	r3, r3, #1026	; 0x402
 8003500:	461c      	mov	r4, r3
 8003502:	6abb      	ldr	r3, [r7, #40]	; 0x28
 8003504:	b29b      	uxth	r3, r3
 8003506:	8023      	strh	r3, [r4, #0]
        pmabuffer = ep->pmaaddr0;
 8003508:	683b      	ldr	r3, [r7, #0]
 800350a:	891b      	ldrh	r3, [r3, #8]
 800350c:	85fb      	strh	r3, [r7, #46]	; 0x2e
      }
      USB_WritePMA(USBx, ep->xfer_buff, pmabuffer, (uint16_t)len);
 800350e:	683b      	ldr	r3, [r7, #0]
 8003510:	6959      	ldr	r1, [r3, #20]
 8003512:	6abb      	ldr	r3, [r7, #40]	; 0x28
 8003514:	b29b      	uxth	r3, r3
 8003516:	8dfa      	ldrh	r2, [r7, #46]	; 0x2e
 8003518:	6878      	ldr	r0, [r7, #4]
 800351a:	f000 faba 	bl	8003a92 <USB_WritePMA>
      PCD_FreeUserBuffer(USBx, ep->num, ep->is_in);
 800351e:	683b      	ldr	r3, [r7, #0]
 8003520:	785b      	ldrb	r3, [r3, #1]
 8003522:	2b00      	cmp	r3, #0
 8003524:	d115      	bne.n	8003552 <USB_EPStartXfer+0x26a>
 8003526:	687a      	ldr	r2, [r7, #4]
 8003528:	683b      	ldr	r3, [r7, #0]
 800352a:	781b      	ldrb	r3, [r3, #0]
 800352c:	009b      	lsls	r3, r3, #2
 800352e:	4413      	add	r3, r2
 8003530:	881b      	ldrh	r3, [r3, #0]
 8003532:	b29b      	uxth	r3, r3
 8003534:	f423 43e0 	bic.w	r3, r3, #28672	; 0x7000
 8003538:	f023 0370 	bic.w	r3, r3, #112	; 0x70
 800353c:	b29c      	uxth	r4, r3
 800353e:	687a      	ldr	r2, [r7, #4]
 8003540:	683b      	ldr	r3, [r7, #0]
 8003542:	781b      	ldrb	r3, [r3, #0]
 8003544:	009b      	lsls	r3, r3, #2
 8003546:	441a      	add	r2, r3
 8003548:	4b9a      	ldr	r3, [pc, #616]	; (80037b4 <USB_EPStartXfer+0x4cc>)
 800354a:	4323      	orrs	r3, r4
 800354c:	b29b      	uxth	r3, r3
 800354e:	8013      	strh	r3, [r2, #0]
 8003550:	e018      	b.n	8003584 <USB_EPStartXfer+0x29c>
 8003552:	683b      	ldr	r3, [r7, #0]
 8003554:	785b      	ldrb	r3, [r3, #1]
 8003556:	2b01      	cmp	r3, #1
 8003558:	d114      	bne.n	8003584 <USB_EPStartXfer+0x29c>
 800355a:	687a      	ldr	r2, [r7, #4]
 800355c:	683b      	ldr	r3, [r7, #0]
 800355e:	781b      	ldrb	r3, [r3, #0]
 8003560:	009b      	lsls	r3, r3, #2
 8003562:	4413      	add	r3, r2
 8003564:	881b      	ldrh	r3, [r3, #0]
 8003566:	b29b      	uxth	r3, r3
 8003568:	f423 43e0 	bic.w	r3, r3, #28672	; 0x7000
 800356c:	f023 0370 	bic.w	r3, r3, #112	; 0x70
 8003570:	b29c      	uxth	r4, r3
 8003572:	687a      	ldr	r2, [r7, #4]
 8003574:	683b      	ldr	r3, [r7, #0]
 8003576:	781b      	ldrb	r3, [r3, #0]
 8003578:	009b      	lsls	r3, r3, #2
 800357a:	441a      	add	r2, r3
 800357c:	4b8e      	ldr	r3, [pc, #568]	; (80037b8 <USB_EPStartXfer+0x4d0>)
 800357e:	4323      	orrs	r3, r4
 8003580:	b29b      	uxth	r3, r3
 8003582:	8013      	strh	r3, [r2, #0]
    }

    PCD_SET_EP_TX_STATUS(USBx, ep->num, USB_EP_TX_VALID);
 8003584:	687a      	ldr	r2, [r7, #4]
 8003586:	683b      	ldr	r3, [r7, #0]
 8003588:	781b      	ldrb	r3, [r3, #0]
 800358a:	009b      	lsls	r3, r3, #2
 800358c:	4413      	add	r3, r2
 800358e:	881b      	ldrh	r3, [r3, #0]
 8003590:	b29b      	uxth	r3, r3
 8003592:	f423 43e0 	bic.w	r3, r3, #28672	; 0x7000
 8003596:	f023 0340 	bic.w	r3, r3, #64	; 0x40
 800359a:	b29c      	uxth	r4, r3
 800359c:	f084 0310 	eor.w	r3, r4, #16
 80035a0:	b29c      	uxth	r4, r3
 80035a2:	f084 0320 	eor.w	r3, r4, #32
 80035a6:	b29c      	uxth	r4, r3
 80035a8:	687a      	ldr	r2, [r7, #4]
 80035aa:	683b      	ldr	r3, [r7, #0]
 80035ac:	781b      	ldrb	r3, [r3, #0]
 80035ae:	009b      	lsls	r3, r3, #2
 80035b0:	441a      	add	r2, r3
 80035b2:	4b82      	ldr	r3, [pc, #520]	; (80037bc <USB_EPStartXfer+0x4d4>)
 80035b4:	4323      	orrs	r3, r4
 80035b6:	b29b      	uxth	r3, r3
 80035b8:	8013      	strh	r3, [r2, #0]
 80035ba:	e146      	b.n	800384a <USB_EPStartXfer+0x562>
  }
  else /* OUT endpoint */
  {
    /* Multi packet transfer*/
    if (ep->xfer_len > ep->maxpacket)
 80035bc:	683b      	ldr	r3, [r7, #0]
 80035be:	699a      	ldr	r2, [r3, #24]
 80035c0:	683b      	ldr	r3, [r7, #0]
 80035c2:	691b      	ldr	r3, [r3, #16]
 80035c4:	429a      	cmp	r2, r3
 80035c6:	d909      	bls.n	80035dc <USB_EPStartXfer+0x2f4>
    {
      len = ep->maxpacket;
 80035c8:	683b      	ldr	r3, [r7, #0]
 80035ca:	691b      	ldr	r3, [r3, #16]
 80035cc:	62bb      	str	r3, [r7, #40]	; 0x28
      ep->xfer_len -= len;
 80035ce:	683b      	ldr	r3, [r7, #0]
 80035d0:	699a      	ldr	r2, [r3, #24]
 80035d2:	6abb      	ldr	r3, [r7, #40]	; 0x28
 80035d4:	1ad2      	subs	r2, r2, r3
 80035d6:	683b      	ldr	r3, [r7, #0]
 80035d8:	619a      	str	r2, [r3, #24]
 80035da:	e005      	b.n	80035e8 <USB_EPStartXfer+0x300>
    }
    else
    {
      len = ep->xfer_len;
 80035dc:	683b      	ldr	r3, [r7, #0]
 80035de:	699b      	ldr	r3, [r3, #24]
 80035e0:	62bb      	str	r3, [r7, #40]	; 0x28
      ep->xfer_len = 0U;
 80035e2:	683b      	ldr	r3, [r7, #0]
 80035e4:	2200      	movs	r2, #0
 80035e6:	619a      	str	r2, [r3, #24]
    }

    /* configure and validate Rx endpoint */
    if (ep->doublebuffer == 0U)
 80035e8:	683b      	ldr	r3, [r7, #0]
 80035ea:	7b1b      	ldrb	r3, [r3, #12]
 80035ec:	2b00      	cmp	r3, #0
 80035ee:	d148      	bne.n	8003682 <USB_EPStartXfer+0x39a>
    {
      /*Set RX buffer count*/
      PCD_SET_EP_RX_CNT(USBx, ep->num, len);
 80035f0:	687c      	ldr	r4, [r7, #4]
 80035f2:	687b      	ldr	r3, [r7, #4]
 80035f4:	f8b3 3050 	ldrh.w	r3, [r3, #80]	; 0x50
 80035f8:	b29b      	uxth	r3, r3
 80035fa:	441c      	add	r4, r3
 80035fc:	683b      	ldr	r3, [r7, #0]
 80035fe:	781b      	ldrb	r3, [r3, #0]
 8003600:	00db      	lsls	r3, r3, #3
 8003602:	4423      	add	r3, r4
 8003604:	f203 4306 	addw	r3, r3, #1030	; 0x406
 8003608:	461c      	mov	r4, r3
 800360a:	6abb      	ldr	r3, [r7, #40]	; 0x28
 800360c:	2b00      	cmp	r3, #0
 800360e:	d10e      	bne.n	800362e <USB_EPStartXfer+0x346>
 8003610:	8823      	ldrh	r3, [r4, #0]
 8003612:	b29b      	uxth	r3, r3
 8003614:	f423 43f8 	bic.w	r3, r3, #31744	; 0x7c00
 8003618:	b29b      	uxth	r3, r3
 800361a:	8023      	strh	r3, [r4, #0]
 800361c:	8823      	ldrh	r3, [r4, #0]
 800361e:	b29b      	uxth	r3, r3
 8003620:	ea6f 4343 	mvn.w	r3, r3, lsl #17
 8003624:	ea6f 4353 	mvn.w	r3, r3, lsr #17
 8003628:	b29b      	uxth	r3, r3
 800362a:	8023      	strh	r3, [r4, #0]
 800362c:	e0f2      	b.n	8003814 <USB_EPStartXfer+0x52c>
 800362e:	6abb      	ldr	r3, [r7, #40]	; 0x28
 8003630:	2b3e      	cmp	r3, #62	; 0x3e
 8003632:	d810      	bhi.n	8003656 <USB_EPStartXfer+0x36e>
 8003634:	6abb      	ldr	r3, [r7, #40]	; 0x28
 8003636:	085b      	lsrs	r3, r3, #1
 8003638:	61fb      	str	r3, [r7, #28]
 800363a:	6abb      	ldr	r3, [r7, #40]	; 0x28
 800363c:	f003 0301 	and.w	r3, r3, #1
 8003640:	2b00      	cmp	r3, #0
 8003642:	d002      	beq.n	800364a <USB_EPStartXfer+0x362>
 8003644:	69fb      	ldr	r3, [r7, #28]
 8003646:	3301      	adds	r3, #1
 8003648:	61fb      	str	r3, [r7, #28]
 800364a:	69fb      	ldr	r3, [r7, #28]
 800364c:	b29b      	uxth	r3, r3
 800364e:	029b      	lsls	r3, r3, #10
 8003650:	b29b      	uxth	r3, r3
 8003652:	8023      	strh	r3, [r4, #0]
 8003654:	e0de      	b.n	8003814 <USB_EPStartXfer+0x52c>
 8003656:	6abb      	ldr	r3, [r7, #40]	; 0x28
 8003658:	095b      	lsrs	r3, r3, #5
 800365a:	61fb      	str	r3, [r7, #28]
 800365c:	6abb      	ldr	r3, [r7, #40]	; 0x28
 800365e:	f003 031f 	and.w	r3, r3, #31
 8003662:	2b00      	cmp	r3, #0
 8003664:	d102      	bne.n	800366c <USB_EPStartXfer+0x384>
 8003666:	69fb      	ldr	r3, [r7, #28]
 8003668:	3b01      	subs	r3, #1
 800366a:	61fb      	str	r3, [r7, #28]
 800366c:	69fb      	ldr	r3, [r7, #28]
 800366e:	b29b      	uxth	r3, r3
 8003670:	029b      	lsls	r3, r3, #10
 8003672:	b29b      	uxth	r3, r3
 8003674:	ea6f 4343 	mvn.w	r3, r3, lsl #17
 8003678:	ea6f 4353 	mvn.w	r3, r3, lsr #17
 800367c:	b29b      	uxth	r3, r3
 800367e:	8023      	strh	r3, [r4, #0]
 8003680:	e0c8      	b.n	8003814 <USB_EPStartXfer+0x52c>
    }
    else
    {
      /*Set the Double buffer counter*/
      PCD_SET_EP_DBUF_CNT(USBx, ep->num, ep->is_in, len);
 8003682:	683b      	ldr	r3, [r7, #0]
 8003684:	785b      	ldrb	r3, [r3, #1]
 8003686:	2b00      	cmp	r3, #0
 8003688:	d148      	bne.n	800371c <USB_EPStartXfer+0x434>
 800368a:	687c      	ldr	r4, [r7, #4]
 800368c:	687b      	ldr	r3, [r7, #4]
 800368e:	f8b3 3050 	ldrh.w	r3, [r3, #80]	; 0x50
 8003692:	b29b      	uxth	r3, r3
 8003694:	441c      	add	r4, r3
 8003696:	683b      	ldr	r3, [r7, #0]
 8003698:	781b      	ldrb	r3, [r3, #0]
 800369a:	00db      	lsls	r3, r3, #3
 800369c:	4423      	add	r3, r4
 800369e:	f203 4302 	addw	r3, r3, #1026	; 0x402
 80036a2:	461c      	mov	r4, r3
 80036a4:	6abb      	ldr	r3, [r7, #40]	; 0x28
 80036a6:	2b00      	cmp	r3, #0
 80036a8:	d10e      	bne.n	80036c8 <USB_EPStartXfer+0x3e0>
 80036aa:	8823      	ldrh	r3, [r4, #0]
 80036ac:	b29b      	uxth	r3, r3
 80036ae:	f423 43f8 	bic.w	r3, r3, #31744	; 0x7c00
 80036b2:	b29b      	uxth	r3, r3
 80036b4:	8023      	strh	r3, [r4, #0]
 80036b6:	8823      	ldrh	r3, [r4, #0]
 80036b8:	b29b      	uxth	r3, r3
 80036ba:	ea6f 4343 	mvn.w	r3, r3, lsl #17
 80036be:	ea6f 4353 	mvn.w	r3, r3, lsr #17
 80036c2:	b29b      	uxth	r3, r3
 80036c4:	8023      	strh	r3, [r4, #0]
 80036c6:	e03d      	b.n	8003744 <USB_EPStartXfer+0x45c>
 80036c8:	6abb      	ldr	r3, [r7, #40]	; 0x28
 80036ca:	2b3e      	cmp	r3, #62	; 0x3e
 80036cc:	d810      	bhi.n	80036f0 <USB_EPStartXfer+0x408>
 80036ce:	6abb      	ldr	r3, [r7, #40]	; 0x28
 80036d0:	085b      	lsrs	r3, r3, #1
 80036d2:	61bb      	str	r3, [r7, #24]
 80036d4:	6abb      	ldr	r3, [r7, #40]	; 0x28
 80036d6:	f003 0301 	and.w	r3, r3, #1
 80036da:	2b00      	cmp	r3, #0
 80036dc:	d002      	beq.n	80036e4 <USB_EPStartXfer+0x3fc>
 80036de:	69bb      	ldr	r3, [r7, #24]
 80036e0:	3301      	adds	r3, #1
 80036e2:	61bb      	str	r3, [r7, #24]
 80036e4:	69bb      	ldr	r3, [r7, #24]
 80036e6:	b29b      	uxth	r3, r3
 80036e8:	029b      	lsls	r3, r3, #10
 80036ea:	b29b      	uxth	r3, r3
 80036ec:	8023      	strh	r3, [r4, #0]
 80036ee:	e029      	b.n	8003744 <USB_EPStartXfer+0x45c>
 80036f0:	6abb      	ldr	r3, [r7, #40]	; 0x28
 80036f2:	095b      	lsrs	r3, r3, #5
 80036f4:	61bb      	str	r3, [r7, #24]
 80036f6:	6abb      	ldr	r3, [r7, #40]	; 0x28
 80036f8:	f003 031f 	and.w	r3, r3, #31
 80036fc:	2b00      	cmp	r3, #0
 80036fe:	d102      	bne.n	8003706 <USB_EPStartXfer+0x41e>
 8003700:	69bb      	ldr	r3, [r7, #24]
 8003702:	3b01      	subs	r3, #1
 8003704:	61bb      	str	r3, [r7, #24]
 8003706:	69bb      	ldr	r3, [r7, #24]
 8003708:	b29b      	uxth	r3, r3
 800370a:	029b      	lsls	r3, r3, #10
 800370c:	b29b      	uxth	r3, r3
 800370e:	ea6f 4343 	mvn.w	r3, r3, lsl #17
 8003712:	ea6f 4353 	mvn.w	r3, r3, lsr #17
 8003716:	b29b      	uxth	r3, r3
 8003718:	8023      	strh	r3, [r4, #0]
 800371a:	e013      	b.n	8003744 <USB_EPStartXfer+0x45c>
 800371c:	683b      	ldr	r3, [r7, #0]
 800371e:	785b      	ldrb	r3, [r3, #1]
 8003720:	2b01      	cmp	r3, #1
 8003722:	d10f      	bne.n	8003744 <USB_EPStartXfer+0x45c>
 8003724:	687c      	ldr	r4, [r7, #4]
 8003726:	687b      	ldr	r3, [r7, #4]
 8003728:	f8b3 3050 	ldrh.w	r3, [r3, #80]	; 0x50
 800372c:	b29b      	uxth	r3, r3
 800372e:	441c      	add	r4, r3
 8003730:	683b      	ldr	r3, [r7, #0]
 8003732:	781b      	ldrb	r3, [r3, #0]
 8003734:	00db      	lsls	r3, r3, #3
 8003736:	4423      	add	r3, r4
 8003738:	f203 4302 	addw	r3, r3, #1026	; 0x402
 800373c:	461c      	mov	r4, r3
 800373e:	6abb      	ldr	r3, [r7, #40]	; 0x28
 8003740:	b29b      	uxth	r3, r3
 8003742:	8023      	strh	r3, [r4, #0]
 8003744:	687c      	ldr	r4, [r7, #4]
 8003746:	683b      	ldr	r3, [r7, #0]
 8003748:	785b      	ldrb	r3, [r3, #1]
 800374a:	2b00      	cmp	r3, #0
 800374c:	d14e      	bne.n	80037ec <USB_EPStartXfer+0x504>
 800374e:	687c      	ldr	r4, [r7, #4]
 8003750:	687b      	ldr	r3, [r7, #4]
 8003752:	f8b3 3050 	ldrh.w	r3, [r3, #80]	; 0x50
 8003756:	b29b      	uxth	r3, r3
 8003758:	441c      	add	r4, r3
 800375a:	683b      	ldr	r3, [r7, #0]
 800375c:	781b      	ldrb	r3, [r3, #0]
 800375e:	00db      	lsls	r3, r3, #3
 8003760:	4423      	add	r3, r4
 8003762:	f203 4306 	addw	r3, r3, #1030	; 0x406
 8003766:	461c      	mov	r4, r3
 8003768:	6abb      	ldr	r3, [r7, #40]	; 0x28
 800376a:	2b00      	cmp	r3, #0
 800376c:	d10e      	bne.n	800378c <USB_EPStartXfer+0x4a4>
 800376e:	8823      	ldrh	r3, [r4, #0]
 8003770:	b29b      	uxth	r3, r3
 8003772:	f423 43f8 	bic.w	r3, r3, #31744	; 0x7c00
 8003776:	b29b      	uxth	r3, r3
 8003778:	8023      	strh	r3, [r4, #0]
 800377a:	8823      	ldrh	r3, [r4, #0]
 800377c:	b29b      	uxth	r3, r3
 800377e:	ea6f 4343 	mvn.w	r3, r3, lsl #17
 8003782:	ea6f 4353 	mvn.w	r3, r3, lsr #17
 8003786:	b29b      	uxth	r3, r3
 8003788:	8023      	strh	r3, [r4, #0]
 800378a:	e043      	b.n	8003814 <USB_EPStartXfer+0x52c>
 800378c:	6abb      	ldr	r3, [r7, #40]	; 0x28
 800378e:	2b3e      	cmp	r3, #62	; 0x3e
 8003790:	d816      	bhi.n	80037c0 <USB_EPStartXfer+0x4d8>
 8003792:	6abb      	ldr	r3, [r7, #40]	; 0x28
 8003794:	085b      	lsrs	r3, r3, #1
 8003796:	617b      	str	r3, [r7, #20]
 8003798:	6abb      	ldr	r3, [r7, #40]	; 0x28
 800379a:	f003 0301 	and.w	r3, r3, #1
 800379e:	2b00      	cmp	r3, #0
 80037a0:	d002      	beq.n	80037a8 <USB_EPStartXfer+0x4c0>
 80037a2:	697b      	ldr	r3, [r7, #20]
 80037a4:	3301      	adds	r3, #1
 80037a6:	617b      	str	r3, [r7, #20]
 80037a8:	697b      	ldr	r3, [r7, #20]
 80037aa:	b29b      	uxth	r3, r3
 80037ac:	029b      	lsls	r3, r3, #10
 80037ae:	b29b      	uxth	r3, r3
 80037b0:	8023      	strh	r3, [r4, #0]
 80037b2:	e02f      	b.n	8003814 <USB_EPStartXfer+0x52c>
 80037b4:	ffff80c0 	.word	0xffff80c0
 80037b8:	ffffc080 	.word	0xffffc080
 80037bc:	ffff8080 	.word	0xffff8080
 80037c0:	6abb      	ldr	r3, [r7, #40]	; 0x28
 80037c2:	095b      	lsrs	r3, r3, #5
 80037c4:	617b      	str	r3, [r7, #20]
 80037c6:	6abb      	ldr	r3, [r7, #40]	; 0x28
 80037c8:	f003 031f 	and.w	r3, r3, #31
 80037cc:	2b00      	cmp	r3, #0
 80037ce:	d102      	bne.n	80037d6 <USB_EPStartXfer+0x4ee>
 80037d0:	697b      	ldr	r3, [r7, #20]
 80037d2:	3b01      	subs	r3, #1
 80037d4:	617b      	str	r3, [r7, #20]
 80037d6:	697b      	ldr	r3, [r7, #20]
 80037d8:	b29b      	uxth	r3, r3
 80037da:	029b      	lsls	r3, r3, #10
 80037dc:	b29b      	uxth	r3, r3
 80037de:	ea6f 4343 	mvn.w	r3, r3, lsl #17
 80037e2:	ea6f 4353 	mvn.w	r3, r3, lsr #17
 80037e6:	b29b      	uxth	r3, r3
 80037e8:	8023      	strh	r3, [r4, #0]
 80037ea:	e013      	b.n	8003814 <USB_EPStartXfer+0x52c>
 80037ec:	683b      	ldr	r3, [r7, #0]
 80037ee:	785b      	ldrb	r3, [r3, #1]
 80037f0:	2b01      	cmp	r3, #1
 80037f2:	d10f      	bne.n	8003814 <USB_EPStartXfer+0x52c>
 80037f4:	687b      	ldr	r3, [r7, #4]
 80037f6:	f8b3 3050 	ldrh.w	r3, [r3, #80]	; 0x50
 80037fa:	b29b      	uxth	r3, r3
 80037fc:	441c      	add	r4, r3
 80037fe:	683b      	ldr	r3, [r7, #0]
 8003800:	781b      	ldrb	r3, [r3, #0]
 8003802:	00db      	lsls	r3, r3, #3
 8003804:	4423      	add	r3, r4
 8003806:	f203 4306 	addw	r3, r3, #1030	; 0x406
 800380a:	613b      	str	r3, [r7, #16]
 800380c:	6abb      	ldr	r3, [r7, #40]	; 0x28
 800380e:	b29a      	uxth	r2, r3
 8003810:	693b      	ldr	r3, [r7, #16]
 8003812:	801a      	strh	r2, [r3, #0]
    }

    PCD_SET_EP_RX_STATUS(USBx, ep->num, USB_EP_RX_VALID);
 8003814:	687a      	ldr	r2, [r7, #4]
 8003816:	683b      	ldr	r3, [r7, #0]
 8003818:	781b      	ldrb	r3, [r3, #0]
 800381a:	009b      	lsls	r3, r3, #2
 800381c:	4413      	add	r3, r2
 800381e:	881b      	ldrh	r3, [r3, #0]
 8003820:	b29b      	uxth	r3, r3
 8003822:	f423 4380 	bic.w	r3, r3, #16384	; 0x4000
 8003826:	f023 0370 	bic.w	r3, r3, #112	; 0x70
 800382a:	b29c      	uxth	r4, r3
 800382c:	f484 5380 	eor.w	r3, r4, #4096	; 0x1000
 8003830:	b29c      	uxth	r4, r3
 8003832:	f484 5300 	eor.w	r3, r4, #8192	; 0x2000
 8003836:	b29c      	uxth	r4, r3
 8003838:	687a      	ldr	r2, [r7, #4]
 800383a:	683b      	ldr	r3, [r7, #0]
 800383c:	781b      	ldrb	r3, [r3, #0]
 800383e:	009b      	lsls	r3, r3, #2
 8003840:	441a      	add	r2, r3
 8003842:	4b04      	ldr	r3, [pc, #16]	; (8003854 <USB_EPStartXfer+0x56c>)
 8003844:	4323      	orrs	r3, r4
 8003846:	b29b      	uxth	r3, r3
 8003848:	8013      	strh	r3, [r2, #0]
  }

  return HAL_OK;
 800384a:	2300      	movs	r3, #0
}
 800384c:	4618      	mov	r0, r3
 800384e:	3734      	adds	r7, #52	; 0x34
 8003850:	46bd      	mov	sp, r7
 8003852:	bd90      	pop	{r4, r7, pc}
 8003854:	ffff8080 	.word	0xffff8080

08003858 <USB_EPSetStall>:
  * @param  USBx : Selected device
  * @param  ep: pointer to endpoint structure
  * @retval HAL status
  */
HAL_StatusTypeDef USB_EPSetStall(USB_TypeDef *USBx, USB_EPTypeDef *ep)
{
 8003858:	b490      	push	{r4, r7}
 800385a:	b082      	sub	sp, #8
 800385c:	af00      	add	r7, sp, #0
 800385e:	6078      	str	r0, [r7, #4]
 8003860:	6039      	str	r1, [r7, #0]
  if (ep->is_in != 0U)
 8003862:	683b      	ldr	r3, [r7, #0]
 8003864:	785b      	ldrb	r3, [r3, #1]
 8003866:	2b00      	cmp	r3, #0
 8003868:	d018      	beq.n	800389c <USB_EPSetStall+0x44>
  {
    PCD_SET_EP_TX_STATUS(USBx, ep->num, USB_EP_TX_STALL);
 800386a:	687a      	ldr	r2, [r7, #4]
 800386c:	683b      	ldr	r3, [r7, #0]
 800386e:	781b      	ldrb	r3, [r3, #0]
 8003870:	009b      	lsls	r3, r3, #2
 8003872:	4413      	add	r3, r2
 8003874:	881b      	ldrh	r3, [r3, #0]
 8003876:	b29b      	uxth	r3, r3
 8003878:	f423 43e0 	bic.w	r3, r3, #28672	; 0x7000
 800387c:	f023 0340 	bic.w	r3, r3, #64	; 0x40
 8003880:	b29c      	uxth	r4, r3
 8003882:	f084 0310 	eor.w	r3, r4, #16
 8003886:	b29c      	uxth	r4, r3
 8003888:	687a      	ldr	r2, [r7, #4]
 800388a:	683b      	ldr	r3, [r7, #0]
 800388c:	781b      	ldrb	r3, [r3, #0]
 800388e:	009b      	lsls	r3, r3, #2
 8003890:	441a      	add	r2, r3
 8003892:	4b11      	ldr	r3, [pc, #68]	; (80038d8 <USB_EPSetStall+0x80>)
 8003894:	4323      	orrs	r3, r4
 8003896:	b29b      	uxth	r3, r3
 8003898:	8013      	strh	r3, [r2, #0]
 800389a:	e017      	b.n	80038cc <USB_EPSetStall+0x74>
  }
  else
  {
    PCD_SET_EP_RX_STATUS(USBx, ep->num, USB_EP_RX_STALL);
 800389c:	687a      	ldr	r2, [r7, #4]
 800389e:	683b      	ldr	r3, [r7, #0]
 80038a0:	781b      	ldrb	r3, [r3, #0]
 80038a2:	009b      	lsls	r3, r3, #2
 80038a4:	4413      	add	r3, r2
 80038a6:	881b      	ldrh	r3, [r3, #0]
 80038a8:	b29b      	uxth	r3, r3
 80038aa:	f423 4380 	bic.w	r3, r3, #16384	; 0x4000
 80038ae:	f023 0370 	bic.w	r3, r3, #112	; 0x70
 80038b2:	b29c      	uxth	r4, r3
 80038b4:	f484 5380 	eor.w	r3, r4, #4096	; 0x1000
 80038b8:	b29c      	uxth	r4, r3
 80038ba:	687a      	ldr	r2, [r7, #4]
 80038bc:	683b      	ldr	r3, [r7, #0]
 80038be:	781b      	ldrb	r3, [r3, #0]
 80038c0:	009b      	lsls	r3, r3, #2
 80038c2:	441a      	add	r2, r3
 80038c4:	4b04      	ldr	r3, [pc, #16]	; (80038d8 <USB_EPSetStall+0x80>)
 80038c6:	4323      	orrs	r3, r4
 80038c8:	b29b      	uxth	r3, r3
 80038ca:	8013      	strh	r3, [r2, #0]
  }

  return HAL_OK;
 80038cc:	2300      	movs	r3, #0
}
 80038ce:	4618      	mov	r0, r3
 80038d0:	3708      	adds	r7, #8
 80038d2:	46bd      	mov	sp, r7
 80038d4:	bc90      	pop	{r4, r7}
 80038d6:	4770      	bx	lr
 80038d8:	ffff8080 	.word	0xffff8080

080038dc <USB_EPClearStall>:
  * @param  USBx : Selected device
  * @param  ep: pointer to endpoint structure
  * @retval HAL status
  */
HAL_StatusTypeDef USB_EPClearStall(USB_TypeDef *USBx, USB_EPTypeDef *ep)
{
 80038dc:	b490      	push	{r4, r7}
 80038de:	b082      	sub	sp, #8
 80038e0:	af00      	add	r7, sp, #0
 80038e2:	6078      	str	r0, [r7, #4]
 80038e4:	6039      	str	r1, [r7, #0]
  if (ep->doublebuffer == 0U)
 80038e6:	683b      	ldr	r3, [r7, #0]
 80038e8:	7b1b      	ldrb	r3, [r3, #12]
 80038ea:	2b00      	cmp	r3, #0
 80038ec:	d17d      	bne.n	80039ea <USB_EPClearStall+0x10e>
  {
    if (ep->is_in != 0U)
 80038ee:	683b      	ldr	r3, [r7, #0]
 80038f0:	785b      	ldrb	r3, [r3, #1]
 80038f2:	2b00      	cmp	r3, #0
 80038f4:	d03d      	beq.n	8003972 <USB_EPClearStall+0x96>
    {
      PCD_CLEAR_TX_DTOG(USBx, ep->num);
 80038f6:	687a      	ldr	r2, [r7, #4]
 80038f8:	683b      	ldr	r3, [r7, #0]
 80038fa:	781b      	ldrb	r3, [r3, #0]
 80038fc:	009b      	lsls	r3, r3, #2
 80038fe:	4413      	add	r3, r2
 8003900:	881b      	ldrh	r3, [r3, #0]
 8003902:	b29c      	uxth	r4, r3
 8003904:	4623      	mov	r3, r4
 8003906:	f003 0340 	and.w	r3, r3, #64	; 0x40
 800390a:	2b00      	cmp	r3, #0
 800390c:	d014      	beq.n	8003938 <USB_EPClearStall+0x5c>
 800390e:	687a      	ldr	r2, [r7, #4]
 8003910:	683b      	ldr	r3, [r7, #0]
 8003912:	781b      	ldrb	r3, [r3, #0]
 8003914:	009b      	lsls	r3, r3, #2
 8003916:	4413      	add	r3, r2
 8003918:	881b      	ldrh	r3, [r3, #0]
 800391a:	b29b      	uxth	r3, r3
 800391c:	f423 43e0 	bic.w	r3, r3, #28672	; 0x7000
 8003920:	f023 0370 	bic.w	r3, r3, #112	; 0x70
 8003924:	b29c      	uxth	r4, r3
 8003926:	687a      	ldr	r2, [r7, #4]
 8003928:	683b      	ldr	r3, [r7, #0]
 800392a:	781b      	ldrb	r3, [r3, #0]
 800392c:	009b      	lsls	r3, r3, #2
 800392e:	441a      	add	r2, r3
 8003930:	4b31      	ldr	r3, [pc, #196]	; (80039f8 <USB_EPClearStall+0x11c>)
 8003932:	4323      	orrs	r3, r4
 8003934:	b29b      	uxth	r3, r3
 8003936:	8013      	strh	r3, [r2, #0]

      if (ep->type != EP_TYPE_ISOC)
 8003938:	683b      	ldr	r3, [r7, #0]
 800393a:	78db      	ldrb	r3, [r3, #3]
 800393c:	2b01      	cmp	r3, #1
 800393e:	d054      	beq.n	80039ea <USB_EPClearStall+0x10e>
      {
        /* Configure NAK status for the Endpoint */
        PCD_SET_EP_TX_STATUS(USBx, ep->num, USB_EP_TX_NAK);
 8003940:	687a      	ldr	r2, [r7, #4]
 8003942:	683b      	ldr	r3, [r7, #0]
 8003944:	781b      	ldrb	r3, [r3, #0]
 8003946:	009b      	lsls	r3, r3, #2
 8003948:	4413      	add	r3, r2
 800394a:	881b      	ldrh	r3, [r3, #0]
 800394c:	b29b      	uxth	r3, r3
 800394e:	f423 43e0 	bic.w	r3, r3, #28672	; 0x7000
 8003952:	f023 0340 	bic.w	r3, r3, #64	; 0x40
 8003956:	b29c      	uxth	r4, r3
 8003958:	f084 0320 	eor.w	r3, r4, #32
 800395c:	b29c      	uxth	r4, r3
 800395e:	687a      	ldr	r2, [r7, #4]
 8003960:	683b      	ldr	r3, [r7, #0]
 8003962:	781b      	ldrb	r3, [r3, #0]
 8003964:	009b      	lsls	r3, r3, #2
 8003966:	441a      	add	r2, r3
 8003968:	4b24      	ldr	r3, [pc, #144]	; (80039fc <USB_EPClearStall+0x120>)
 800396a:	4323      	orrs	r3, r4
 800396c:	b29b      	uxth	r3, r3
 800396e:	8013      	strh	r3, [r2, #0]
 8003970:	e03b      	b.n	80039ea <USB_EPClearStall+0x10e>
      }
    }
    else
    {
      PCD_CLEAR_RX_DTOG(USBx, ep->num);
 8003972:	687a      	ldr	r2, [r7, #4]
 8003974:	683b      	ldr	r3, [r7, #0]
 8003976:	781b      	ldrb	r3, [r3, #0]
 8003978:	009b      	lsls	r3, r3, #2
 800397a:	4413      	add	r3, r2
 800397c:	881b      	ldrh	r3, [r3, #0]
 800397e:	b29c      	uxth	r4, r3
 8003980:	4623      	mov	r3, r4
 8003982:	f403 4380 	and.w	r3, r3, #16384	; 0x4000
 8003986:	2b00      	cmp	r3, #0
 8003988:	d014      	beq.n	80039b4 <USB_EPClearStall+0xd8>
 800398a:	687a      	ldr	r2, [r7, #4]
 800398c:	683b      	ldr	r3, [r7, #0]
 800398e:	781b      	ldrb	r3, [r3, #0]
 8003990:	009b      	lsls	r3, r3, #2
 8003992:	4413      	add	r3, r2
 8003994:	881b      	ldrh	r3, [r3, #0]
 8003996:	b29b      	uxth	r3, r3
 8003998:	f423 43e0 	bic.w	r3, r3, #28672	; 0x7000
 800399c:	f023 0370 	bic.w	r3, r3, #112	; 0x70
 80039a0:	b29c      	uxth	r4, r3
 80039a2:	687a      	ldr	r2, [r7, #4]
 80039a4:	683b      	ldr	r3, [r7, #0]
 80039a6:	781b      	ldrb	r3, [r3, #0]
 80039a8:	009b      	lsls	r3, r3, #2
 80039aa:	441a      	add	r2, r3
 80039ac:	4b14      	ldr	r3, [pc, #80]	; (8003a00 <USB_EPClearStall+0x124>)
 80039ae:	4323      	orrs	r3, r4
 80039b0:	b29b      	uxth	r3, r3
 80039b2:	8013      	strh	r3, [r2, #0]

      /* Configure VALID status for the Endpoint*/
      PCD_SET_EP_RX_STATUS(USBx, ep->num, USB_EP_RX_VALID);
 80039b4:	687a      	ldr	r2, [r7, #4]
 80039b6:	683b      	ldr	r3, [r7, #0]
 80039b8:	781b      	ldrb	r3, [r3, #0]
 80039ba:	009b      	lsls	r3, r3, #2
 80039bc:	4413      	add	r3, r2
 80039be:	881b      	ldrh	r3, [r3, #0]
 80039c0:	b29b      	uxth	r3, r3
 80039c2:	f423 4380 	bic.w	r3, r3, #16384	; 0x4000
 80039c6:	f023 0370 	bic.w	r3, r3, #112	; 0x70
 80039ca:	b29c      	uxth	r4, r3
 80039cc:	f484 5380 	eor.w	r3, r4, #4096	; 0x1000
 80039d0:	b29c      	uxth	r4, r3
 80039d2:	f484 5300 	eor.w	r3, r4, #8192	; 0x2000
 80039d6:	b29c      	uxth	r4, r3
 80039d8:	687a      	ldr	r2, [r7, #4]
 80039da:	683b      	ldr	r3, [r7, #0]
 80039dc:	781b      	ldrb	r3, [r3, #0]
 80039de:	009b      	lsls	r3, r3, #2
 80039e0:	441a      	add	r2, r3
 80039e2:	4b06      	ldr	r3, [pc, #24]	; (80039fc <USB_EPClearStall+0x120>)
 80039e4:	4323      	orrs	r3, r4
 80039e6:	b29b      	uxth	r3, r3
 80039e8:	8013      	strh	r3, [r2, #0]
    }
  }

  return HAL_OK;
 80039ea:	2300      	movs	r3, #0
}
 80039ec:	4618      	mov	r0, r3
 80039ee:	3708      	adds	r7, #8
 80039f0:	46bd      	mov	sp, r7
 80039f2:	bc90      	pop	{r4, r7}
 80039f4:	4770      	bx	lr
 80039f6:	bf00      	nop
 80039f8:	ffff80c0 	.word	0xffff80c0
 80039fc:	ffff8080 	.word	0xffff8080
 8003a00:	ffffc080 	.word	0xffffc080

08003a04 <USB_SetDevAddress>:
  * @param  address : new device address to be assigned
  *          This parameter can be a value from 0 to 255
  * @retval HAL status
  */
HAL_StatusTypeDef  USB_SetDevAddress(USB_TypeDef *USBx, uint8_t address)
{
 8003a04:	b480      	push	{r7}
 8003a06:	b083      	sub	sp, #12
 8003a08:	af00      	add	r7, sp, #0
 8003a0a:	6078      	str	r0, [r7, #4]
 8003a0c:	460b      	mov	r3, r1
 8003a0e:	70fb      	strb	r3, [r7, #3]
  if (address == 0U)
 8003a10:	78fb      	ldrb	r3, [r7, #3]
 8003a12:	2b00      	cmp	r3, #0
 8003a14:	d103      	bne.n	8003a1e <USB_SetDevAddress+0x1a>
  {
    /* set device address and enable function */
    USBx->DADDR = (uint16_t)USB_DADDR_EF;
 8003a16:	687b      	ldr	r3, [r7, #4]
 8003a18:	2280      	movs	r2, #128	; 0x80
 8003a1a:	f8a3 204c 	strh.w	r2, [r3, #76]	; 0x4c
  }

  return HAL_OK;
 8003a1e:	2300      	movs	r3, #0
}
 8003a20:	4618      	mov	r0, r3
 8003a22:	370c      	adds	r7, #12
 8003a24:	46bd      	mov	sp, r7
 8003a26:	f85d 7b04 	ldr.w	r7, [sp], #4
 8003a2a:	4770      	bx	lr

08003a2c <USB_DevConnect>:
  * @brief  USB_DevConnect : Connect the USB device by enabling the pull-up/pull-down
  * @param  USBx : Selected device
  * @retval HAL status
  */
HAL_StatusTypeDef  USB_DevConnect(USB_TypeDef *USBx)
{
 8003a2c:	b480      	push	{r7}
 8003a2e:	b083      	sub	sp, #12
 8003a30:	af00      	add	r7, sp, #0
 8003a32:	6078      	str	r0, [r7, #4]
  /* Enabling DP Pull-UP bit to Connect internal PU resistor on USB DP line */
  USBx->BCDR |= (uint16_t)USB_BCDR_DPPU;
 8003a34:	687b      	ldr	r3, [r7, #4]
 8003a36:	f8b3 3058 	ldrh.w	r3, [r3, #88]	; 0x58
 8003a3a:	b29b      	uxth	r3, r3
 8003a3c:	ea6f 4343 	mvn.w	r3, r3, lsl #17
 8003a40:	ea6f 4353 	mvn.w	r3, r3, lsr #17
 8003a44:	b29a      	uxth	r2, r3
 8003a46:	687b      	ldr	r3, [r7, #4]
 8003a48:	f8a3 2058 	strh.w	r2, [r3, #88]	; 0x58

  return HAL_OK;
 8003a4c:	2300      	movs	r3, #0
}
 8003a4e:	4618      	mov	r0, r3
 8003a50:	370c      	adds	r7, #12
 8003a52:	46bd      	mov	sp, r7
 8003a54:	f85d 7b04 	ldr.w	r7, [sp], #4
 8003a58:	4770      	bx	lr

08003a5a <USB_ReadInterrupts>:
  * @brief  USB_ReadInterrupts: return the global USB interrupt status
  * @param  USBx : Selected device
  * @retval HAL status
  */
uint32_t  USB_ReadInterrupts(USB_TypeDef *USBx)
{
 8003a5a:	b480      	push	{r7}
 8003a5c:	b085      	sub	sp, #20
 8003a5e:	af00      	add	r7, sp, #0
 8003a60:	6078      	str	r0, [r7, #4]
  uint32_t tmpreg;

  tmpreg = USBx->ISTR;
 8003a62:	687b      	ldr	r3, [r7, #4]
 8003a64:	f8b3 3044 	ldrh.w	r3, [r3, #68]	; 0x44
 8003a68:	b29b      	uxth	r3, r3
 8003a6a:	60fb      	str	r3, [r7, #12]
  return tmpreg;
 8003a6c:	68fb      	ldr	r3, [r7, #12]
}
 8003a6e:	4618      	mov	r0, r3
 8003a70:	3714      	adds	r7, #20
 8003a72:	46bd      	mov	sp, r7
 8003a74:	f85d 7b04 	ldr.w	r7, [sp], #4
 8003a78:	4770      	bx	lr

08003a7a <USB_EP0_OutStart>:
  * @param  USBx  Selected device
  * @param  psetup  pointer to setup packet
  * @retval HAL status
  */
HAL_StatusTypeDef USB_EP0_OutStart(USB_TypeDef *USBx, uint8_t *psetup)
{
 8003a7a:	b480      	push	{r7}
 8003a7c:	b083      	sub	sp, #12
 8003a7e:	af00      	add	r7, sp, #0
 8003a80:	6078      	str	r0, [r7, #4]
 8003a82:	6039      	str	r1, [r7, #0]
  UNUSED(psetup);
  /* NOTE : - This function is not required by USB Device FS peripheral, it is used
              only by USB OTG FS peripheral.
            - This function is added to ensure compatibility across platforms.
   */
  return HAL_OK;
 8003a84:	2300      	movs	r3, #0
}
 8003a86:	4618      	mov	r0, r3
 8003a88:	370c      	adds	r7, #12
 8003a8a:	46bd      	mov	sp, r7
 8003a8c:	f85d 7b04 	ldr.w	r7, [sp], #4
 8003a90:	4770      	bx	lr

08003a92 <USB_WritePMA>:
  * @param   wPMABufAddr address into PMA.
  * @param   wNBytes: no. of bytes to be copied.
  * @retval None
  */
void USB_WritePMA(USB_TypeDef *USBx, uint8_t *pbUsrBuf, uint16_t wPMABufAddr, uint16_t wNBytes)
{
 8003a92:	b480      	push	{r7}
 8003a94:	b08d      	sub	sp, #52	; 0x34
 8003a96:	af00      	add	r7, sp, #0
 8003a98:	60f8      	str	r0, [r7, #12]
 8003a9a:	60b9      	str	r1, [r7, #8]
 8003a9c:	4611      	mov	r1, r2
 8003a9e:	461a      	mov	r2, r3
 8003aa0:	460b      	mov	r3, r1
 8003aa2:	80fb      	strh	r3, [r7, #6]
 8003aa4:	4613      	mov	r3, r2
 8003aa6:	80bb      	strh	r3, [r7, #4]
  uint32_t n = ((uint32_t)wNBytes + 1U) >> 1;
 8003aa8:	88bb      	ldrh	r3, [r7, #4]
 8003aaa:	3301      	adds	r3, #1
 8003aac:	085b      	lsrs	r3, r3, #1
 8003aae:	623b      	str	r3, [r7, #32]
  uint32_t BaseAddr = (uint32_t)USBx;
 8003ab0:	68fb      	ldr	r3, [r7, #12]
 8003ab2:	61fb      	str	r3, [r7, #28]
  uint32_t i, temp1, temp2;
  __IO uint16_t *pdwVal;
  uint8_t *pBuf = pbUsrBuf;
 8003ab4:	68bb      	ldr	r3, [r7, #8]
 8003ab6:	627b      	str	r3, [r7, #36]	; 0x24

  pdwVal = (__IO uint16_t *)(BaseAddr + 0x400U + ((uint32_t)wPMABufAddr * PMA_ACCESS));
 8003ab8:	88fa      	ldrh	r2, [r7, #6]
 8003aba:	69fb      	ldr	r3, [r7, #28]
 8003abc:	4413      	add	r3, r2
 8003abe:	f503 6380 	add.w	r3, r3, #1024	; 0x400
 8003ac2:	62bb      	str	r3, [r7, #40]	; 0x28

  for (i = n; i != 0U; i--)
 8003ac4:	6a3b      	ldr	r3, [r7, #32]
 8003ac6:	62fb      	str	r3, [r7, #44]	; 0x2c
 8003ac8:	e01b      	b.n	8003b02 <USB_WritePMA+0x70>
  {
    temp1 = *pBuf;
 8003aca:	6a7b      	ldr	r3, [r7, #36]	; 0x24
 8003acc:	781b      	ldrb	r3, [r3, #0]
 8003ace:	61bb      	str	r3, [r7, #24]
    pBuf++;
 8003ad0:	6a7b      	ldr	r3, [r7, #36]	; 0x24
 8003ad2:	3301      	adds	r3, #1
 8003ad4:	627b      	str	r3, [r7, #36]	; 0x24
    temp2 = temp1 | ((uint16_t)((uint16_t) *pBuf << 8));
 8003ad6:	6a7b      	ldr	r3, [r7, #36]	; 0x24
 8003ad8:	781b      	ldrb	r3, [r3, #0]
 8003ada:	b29b      	uxth	r3, r3
 8003adc:	021b      	lsls	r3, r3, #8
 8003ade:	b29b      	uxth	r3, r3
 8003ae0:	461a      	mov	r2, r3
 8003ae2:	69bb      	ldr	r3, [r7, #24]
 8003ae4:	4313      	orrs	r3, r2
 8003ae6:	617b      	str	r3, [r7, #20]
    *pdwVal = (uint16_t)temp2;
 8003ae8:	697b      	ldr	r3, [r7, #20]
 8003aea:	b29a      	uxth	r2, r3
 8003aec:	6abb      	ldr	r3, [r7, #40]	; 0x28
 8003aee:	801a      	strh	r2, [r3, #0]
    pdwVal++;
 8003af0:	6abb      	ldr	r3, [r7, #40]	; 0x28
 8003af2:	3302      	adds	r3, #2
 8003af4:	62bb      	str	r3, [r7, #40]	; 0x28

#if PMA_ACCESS > 1U
    pdwVal++;
#endif

    pBuf++;
 8003af6:	6a7b      	ldr	r3, [r7, #36]	; 0x24
 8003af8:	3301      	adds	r3, #1
 8003afa:	627b      	str	r3, [r7, #36]	; 0x24
  for (i = n; i != 0U; i--)
 8003afc:	6afb      	ldr	r3, [r7, #44]	; 0x2c
 8003afe:	3b01      	subs	r3, #1
 8003b00:	62fb      	str	r3, [r7, #44]	; 0x2c
 8003b02:	6afb      	ldr	r3, [r7, #44]	; 0x2c
 8003b04:	2b00      	cmp	r3, #0
 8003b06:	d1e0      	bne.n	8003aca <USB_WritePMA+0x38>
  }
}
 8003b08:	bf00      	nop
 8003b0a:	3734      	adds	r7, #52	; 0x34
 8003b0c:	46bd      	mov	sp, r7
 8003b0e:	f85d 7b04 	ldr.w	r7, [sp], #4
 8003b12:	4770      	bx	lr

08003b14 <USB_ReadPMA>:
  * @param   wPMABufAddr address into PMA.
  * @param   wNBytes: no. of bytes to be copied.
  * @retval None
  */
void USB_ReadPMA(USB_TypeDef *USBx, uint8_t *pbUsrBuf, uint16_t wPMABufAddr, uint16_t wNBytes)
{
 8003b14:	b480      	push	{r7}
 8003b16:	b08b      	sub	sp, #44	; 0x2c
 8003b18:	af00      	add	r7, sp, #0
 8003b1a:	60f8      	str	r0, [r7, #12]
 8003b1c:	60b9      	str	r1, [r7, #8]
 8003b1e:	4611      	mov	r1, r2
 8003b20:	461a      	mov	r2, r3
 8003b22:	460b      	mov	r3, r1
 8003b24:	80fb      	strh	r3, [r7, #6]
 8003b26:	4613      	mov	r3, r2
 8003b28:	80bb      	strh	r3, [r7, #4]
  uint32_t n = (uint32_t)wNBytes >> 1;
 8003b2a:	88bb      	ldrh	r3, [r7, #4]
 8003b2c:	085b      	lsrs	r3, r3, #1
 8003b2e:	b29b      	uxth	r3, r3
 8003b30:	61bb      	str	r3, [r7, #24]
  uint32_t BaseAddr = (uint32_t)USBx;
 8003b32:	68fb      	ldr	r3, [r7, #12]
 8003b34:	617b      	str	r3, [r7, #20]
  uint32_t i, temp;
  __IO uint16_t *pdwVal;
  uint8_t *pBuf = pbUsrBuf;
 8003b36:	68bb      	ldr	r3, [r7, #8]
 8003b38:	61fb      	str	r3, [r7, #28]

  pdwVal = (__IO uint16_t *)(BaseAddr + 0x400U + ((uint32_t)wPMABufAddr * PMA_ACCESS));
 8003b3a:	88fa      	ldrh	r2, [r7, #6]
 8003b3c:	697b      	ldr	r3, [r7, #20]
 8003b3e:	4413      	add	r3, r2
 8003b40:	f503 6380 	add.w	r3, r3, #1024	; 0x400
 8003b44:	623b      	str	r3, [r7, #32]

  for (i = n; i != 0U; i--)
 8003b46:	69bb      	ldr	r3, [r7, #24]
 8003b48:	627b      	str	r3, [r7, #36]	; 0x24
 8003b4a:	e018      	b.n	8003b7e <USB_ReadPMA+0x6a>
  {
    temp = *(__IO uint16_t *)pdwVal;
 8003b4c:	6a3b      	ldr	r3, [r7, #32]
 8003b4e:	881b      	ldrh	r3, [r3, #0]
 8003b50:	b29b      	uxth	r3, r3
 8003b52:	613b      	str	r3, [r7, #16]
    pdwVal++;
 8003b54:	6a3b      	ldr	r3, [r7, #32]
 8003b56:	3302      	adds	r3, #2
 8003b58:	623b      	str	r3, [r7, #32]
    *pBuf = (uint8_t)((temp >> 0) & 0xFFU);
 8003b5a:	693b      	ldr	r3, [r7, #16]
 8003b5c:	b2da      	uxtb	r2, r3
 8003b5e:	69fb      	ldr	r3, [r7, #28]
 8003b60:	701a      	strb	r2, [r3, #0]
    pBuf++;
 8003b62:	69fb      	ldr	r3, [r7, #28]
 8003b64:	3301      	adds	r3, #1
 8003b66:	61fb      	str	r3, [r7, #28]
    *pBuf = (uint8_t)((temp >> 8) & 0xFFU);
 8003b68:	693b      	ldr	r3, [r7, #16]
 8003b6a:	0a1b      	lsrs	r3, r3, #8
 8003b6c:	b2da      	uxtb	r2, r3
 8003b6e:	69fb      	ldr	r3, [r7, #28]
 8003b70:	701a      	strb	r2, [r3, #0]
    pBuf++;
 8003b72:	69fb      	ldr	r3, [r7, #28]
 8003b74:	3301      	adds	r3, #1
 8003b76:	61fb      	str	r3, [r7, #28]
  for (i = n; i != 0U; i--)
 8003b78:	6a7b      	ldr	r3, [r7, #36]	; 0x24
 8003b7a:	3b01      	subs	r3, #1
 8003b7c:	627b      	str	r3, [r7, #36]	; 0x24
 8003b7e:	6a7b      	ldr	r3, [r7, #36]	; 0x24
 8003b80:	2b00      	cmp	r3, #0
 8003b82:	d1e3      	bne.n	8003b4c <USB_ReadPMA+0x38>
#if PMA_ACCESS > 1U
    pdwVal++;
#endif
  }

  if ((wNBytes % 2U) != 0U)
 8003b84:	88bb      	ldrh	r3, [r7, #4]
 8003b86:	f003 0301 	and.w	r3, r3, #1
 8003b8a:	b29b      	uxth	r3, r3
 8003b8c:	2b00      	cmp	r3, #0
 8003b8e:	d007      	beq.n	8003ba0 <USB_ReadPMA+0x8c>
  {
    temp = *pdwVal;
 8003b90:	6a3b      	ldr	r3, [r7, #32]
 8003b92:	881b      	ldrh	r3, [r3, #0]
 8003b94:	b29b      	uxth	r3, r3
 8003b96:	613b      	str	r3, [r7, #16]
    *pBuf = (uint8_t)((temp >> 0) & 0xFFU);
 8003b98:	693b      	ldr	r3, [r7, #16]
 8003b9a:	b2da      	uxtb	r2, r3
 8003b9c:	69fb      	ldr	r3, [r7, #28]
 8003b9e:	701a      	strb	r2, [r3, #0]
  }
}
 8003ba0:	bf00      	nop
 8003ba2:	372c      	adds	r7, #44	; 0x2c
 8003ba4:	46bd      	mov	sp, r7
 8003ba6:	f85d 7b04 	ldr.w	r7, [sp], #4
 8003baa:	4770      	bx	lr

08003bac <USBD_CDC_Init>:
  * @param  pdev: device instance
  * @param  cfgidx: Configuration index
  * @retval status
  */
static uint8_t  USBD_CDC_Init(USBD_HandleTypeDef *pdev, uint8_t cfgidx)
{
 8003bac:	b580      	push	{r7, lr}
 8003bae:	b084      	sub	sp, #16
 8003bb0:	af00      	add	r7, sp, #0
 8003bb2:	6078      	str	r0, [r7, #4]
 8003bb4:	460b      	mov	r3, r1
 8003bb6:	70fb      	strb	r3, [r7, #3]
  uint8_t ret = 0U;
 8003bb8:	2300      	movs	r3, #0
 8003bba:	73fb      	strb	r3, [r7, #15]
  USBD_CDC_HandleTypeDef   *hcdc;

  if (pdev->dev_speed == USBD_SPEED_HIGH)
 8003bbc:	687b      	ldr	r3, [r7, #4]
 8003bbe:	7c1b      	ldrb	r3, [r3, #16]
 8003bc0:	2b00      	cmp	r3, #0
 8003bc2:	d115      	bne.n	8003bf0 <USBD_CDC_Init+0x44>
  {
    /* Open EP IN */
    USBD_LL_OpenEP(pdev, CDC_IN_EP, USBD_EP_TYPE_BULK,
 8003bc4:	f44f 7300 	mov.w	r3, #512	; 0x200
 8003bc8:	2202      	movs	r2, #2
 8003bca:	2181      	movs	r1, #129	; 0x81
 8003bcc:	6878      	ldr	r0, [r7, #4]
 8003bce:	f002 f842 	bl	8005c56 <USBD_LL_OpenEP>
                   CDC_DATA_HS_IN_PACKET_SIZE);

    pdev->ep_in[CDC_IN_EP & 0xFU].is_used = 1U;
 8003bd2:	687b      	ldr	r3, [r7, #4]
 8003bd4:	2201      	movs	r2, #1
 8003bd6:	62da      	str	r2, [r3, #44]	; 0x2c

    /* Open EP OUT */
    USBD_LL_OpenEP(pdev, CDC_OUT_EP, USBD_EP_TYPE_BULK,
 8003bd8:	f44f 7300 	mov.w	r3, #512	; 0x200
 8003bdc:	2202      	movs	r2, #2
 8003bde:	2101      	movs	r1, #1
 8003be0:	6878      	ldr	r0, [r7, #4]
 8003be2:	f002 f838 	bl	8005c56 <USBD_LL_OpenEP>
                   CDC_DATA_HS_OUT_PACKET_SIZE);

    pdev->ep_out[CDC_OUT_EP & 0xFU].is_used = 1U;
 8003be6:	687b      	ldr	r3, [r7, #4]
 8003be8:	2201      	movs	r2, #1
 8003bea:	f8c3 216c 	str.w	r2, [r3, #364]	; 0x16c
 8003bee:	e012      	b.n	8003c16 <USBD_CDC_Init+0x6a>

  }
  else
  {
    /* Open EP IN */
    USBD_LL_OpenEP(pdev, CDC_IN_EP, USBD_EP_TYPE_BULK,
 8003bf0:	2340      	movs	r3, #64	; 0x40
 8003bf2:	2202      	movs	r2, #2
 8003bf4:	2181      	movs	r1, #129	; 0x81
 8003bf6:	6878      	ldr	r0, [r7, #4]
 8003bf8:	f002 f82d 	bl	8005c56 <USBD_LL_OpenEP>
                   CDC_DATA_FS_IN_PACKET_SIZE);

    pdev->ep_in[CDC_IN_EP & 0xFU].is_used = 1U;
 8003bfc:	687b      	ldr	r3, [r7, #4]
 8003bfe:	2201      	movs	r2, #1
 8003c00:	62da      	str	r2, [r3, #44]	; 0x2c

    /* Open EP OUT */
    USBD_LL_OpenEP(pdev, CDC_OUT_EP, USBD_EP_TYPE_BULK,
 8003c02:	2340      	movs	r3, #64	; 0x40
 8003c04:	2202      	movs	r2, #2
 8003c06:	2101      	movs	r1, #1
 8003c08:	6878      	ldr	r0, [r7, #4]
 8003c0a:	f002 f824 	bl	8005c56 <USBD_LL_OpenEP>
                   CDC_DATA_FS_OUT_PACKET_SIZE);

    pdev->ep_out[CDC_OUT_EP & 0xFU].is_used = 1U;
 8003c0e:	687b      	ldr	r3, [r7, #4]
 8003c10:	2201      	movs	r2, #1
 8003c12:	f8c3 216c 	str.w	r2, [r3, #364]	; 0x16c
  }
  /* Open Command IN EP */
  USBD_LL_OpenEP(pdev, CDC_CMD_EP, USBD_EP_TYPE_INTR, CDC_CMD_PACKET_SIZE);
 8003c16:	2308      	movs	r3, #8
 8003c18:	2203      	movs	r2, #3
 8003c1a:	2182      	movs	r1, #130	; 0x82
 8003c1c:	6878      	ldr	r0, [r7, #4]
 8003c1e:	f002 f81a 	bl	8005c56 <USBD_LL_OpenEP>
  pdev->ep_in[CDC_CMD_EP & 0xFU].is_used = 1U;
 8003c22:	687b      	ldr	r3, [r7, #4]
 8003c24:	2201      	movs	r2, #1
 8003c26:	641a      	str	r2, [r3, #64]	; 0x40

  pdev->pClassData = USBD_malloc(sizeof(USBD_CDC_HandleTypeDef));
 8003c28:	f44f 7007 	mov.w	r0, #540	; 0x21c
 8003c2c:	f002 f96a 	bl	8005f04 <USBD_static_malloc>
 8003c30:	4602      	mov	r2, r0
 8003c32:	687b      	ldr	r3, [r7, #4]
 8003c34:	f8c3 22b8 	str.w	r2, [r3, #696]	; 0x2b8

  if (pdev->pClassData == NULL)
 8003c38:	687b      	ldr	r3, [r7, #4]
 8003c3a:	f8d3 32b8 	ldr.w	r3, [r3, #696]	; 0x2b8
 8003c3e:	2b00      	cmp	r3, #0
 8003c40:	d102      	bne.n	8003c48 <USBD_CDC_Init+0x9c>
  {
    ret = 1U;
 8003c42:	2301      	movs	r3, #1
 8003c44:	73fb      	strb	r3, [r7, #15]
 8003c46:	e026      	b.n	8003c96 <USBD_CDC_Init+0xea>
  }
  else
  {
    hcdc = (USBD_CDC_HandleTypeDef *) pdev->pClassData;
 8003c48:	687b      	ldr	r3, [r7, #4]
 8003c4a:	f8d3 32b8 	ldr.w	r3, [r3, #696]	; 0x2b8
 8003c4e:	60bb      	str	r3, [r7, #8]

    /* Init  physical Interface components */
    ((USBD_CDC_ItfTypeDef *)pdev->pUserData)->Init();
 8003c50:	687b      	ldr	r3, [r7, #4]
 8003c52:	f8d3 32bc 	ldr.w	r3, [r3, #700]	; 0x2bc
 8003c56:	681b      	ldr	r3, [r3, #0]
 8003c58:	4798      	blx	r3

    /* Init Xfer states */
    hcdc->TxState = 0U;
 8003c5a:	68bb      	ldr	r3, [r7, #8]
 8003c5c:	2200      	movs	r2, #0
 8003c5e:	f8c3 2214 	str.w	r2, [r3, #532]	; 0x214
    hcdc->RxState = 0U;
 8003c62:	68bb      	ldr	r3, [r7, #8]
 8003c64:	2200      	movs	r2, #0
 8003c66:	f8c3 2218 	str.w	r2, [r3, #536]	; 0x218

    if (pdev->dev_speed == USBD_SPEED_HIGH)
 8003c6a:	687b      	ldr	r3, [r7, #4]
 8003c6c:	7c1b      	ldrb	r3, [r3, #16]
 8003c6e:	2b00      	cmp	r3, #0
 8003c70:	d109      	bne.n	8003c86 <USBD_CDC_Init+0xda>
    {
      /* Prepare Out endpoint to receive next packet */
      USBD_LL_PrepareReceive(pdev, CDC_OUT_EP, hcdc->RxBuffer,
 8003c72:	68bb      	ldr	r3, [r7, #8]
 8003c74:	f8d3 2204 	ldr.w	r2, [r3, #516]	; 0x204
 8003c78:	f44f 7300 	mov.w	r3, #512	; 0x200
 8003c7c:	2101      	movs	r1, #1
 8003c7e:	6878      	ldr	r0, [r7, #4]
 8003c80:	f002 f8d4 	bl	8005e2c <USBD_LL_PrepareReceive>
 8003c84:	e007      	b.n	8003c96 <USBD_CDC_Init+0xea>
                             CDC_DATA_HS_OUT_PACKET_SIZE);
    }
    else
    {
      /* Prepare Out endpoint to receive next packet */
      USBD_LL_PrepareReceive(pdev, CDC_OUT_EP, hcdc->RxBuffer,
 8003c86:	68bb      	ldr	r3, [r7, #8]
 8003c88:	f8d3 2204 	ldr.w	r2, [r3, #516]	; 0x204
 8003c8c:	2340      	movs	r3, #64	; 0x40
 8003c8e:	2101      	movs	r1, #1
 8003c90:	6878      	ldr	r0, [r7, #4]
 8003c92:	f002 f8cb 	bl	8005e2c <USBD_LL_PrepareReceive>
                             CDC_DATA_FS_OUT_PACKET_SIZE);
    }
  }
  return ret;
 8003c96:	7bfb      	ldrb	r3, [r7, #15]
}
 8003c98:	4618      	mov	r0, r3
 8003c9a:	3710      	adds	r7, #16
 8003c9c:	46bd      	mov	sp, r7
 8003c9e:	bd80      	pop	{r7, pc}

08003ca0 <USBD_CDC_DeInit>:
  * @param  pdev: device instance
  * @param  cfgidx: Configuration index
  * @retval status
  */
static uint8_t  USBD_CDC_DeInit(USBD_HandleTypeDef *pdev, uint8_t cfgidx)
{
 8003ca0:	b580      	push	{r7, lr}
 8003ca2:	b084      	sub	sp, #16
 8003ca4:	af00      	add	r7, sp, #0
 8003ca6:	6078      	str	r0, [r7, #4]
 8003ca8:	460b      	mov	r3, r1
 8003caa:	70fb      	strb	r3, [r7, #3]
  uint8_t ret = 0U;
 8003cac:	2300      	movs	r3, #0
 8003cae:	73fb      	strb	r3, [r7, #15]

  /* Close EP IN */
  USBD_LL_CloseEP(pdev, CDC_IN_EP);
 8003cb0:	2181      	movs	r1, #129	; 0x81
 8003cb2:	6878      	ldr	r0, [r7, #4]
 8003cb4:	f001 fff5 	bl	8005ca2 <USBD_LL_CloseEP>
  pdev->ep_in[CDC_IN_EP & 0xFU].is_used = 0U;
 8003cb8:	687b      	ldr	r3, [r7, #4]
 8003cba:	2200      	movs	r2, #0
 8003cbc:	62da      	str	r2, [r3, #44]	; 0x2c

  /* Close EP OUT */
  USBD_LL_CloseEP(pdev, CDC_OUT_EP);
 8003cbe:	2101      	movs	r1, #1
 8003cc0:	6878      	ldr	r0, [r7, #4]
 8003cc2:	f001 ffee 	bl	8005ca2 <USBD_LL_CloseEP>
  pdev->ep_out[CDC_OUT_EP & 0xFU].is_used = 0U;
 8003cc6:	687b      	ldr	r3, [r7, #4]
 8003cc8:	2200      	movs	r2, #0
 8003cca:	f8c3 216c 	str.w	r2, [r3, #364]	; 0x16c

  /* Close Command IN EP */
  USBD_LL_CloseEP(pdev, CDC_CMD_EP);
 8003cce:	2182      	movs	r1, #130	; 0x82
 8003cd0:	6878      	ldr	r0, [r7, #4]
 8003cd2:	f001 ffe6 	bl	8005ca2 <USBD_LL_CloseEP>
  pdev->ep_in[CDC_CMD_EP & 0xFU].is_used = 0U;
 8003cd6:	687b      	ldr	r3, [r7, #4]
 8003cd8:	2200      	movs	r2, #0
 8003cda:	641a      	str	r2, [r3, #64]	; 0x40

  /* DeInit  physical Interface components */
  if (pdev->pClassData != NULL)
 8003cdc:	687b      	ldr	r3, [r7, #4]
 8003cde:	f8d3 32b8 	ldr.w	r3, [r3, #696]	; 0x2b8
 8003ce2:	2b00      	cmp	r3, #0
 8003ce4:	d00e      	beq.n	8003d04 <USBD_CDC_DeInit+0x64>
  {
    ((USBD_CDC_ItfTypeDef *)pdev->pUserData)->DeInit();
 8003ce6:	687b      	ldr	r3, [r7, #4]
 8003ce8:	f8d3 32bc 	ldr.w	r3, [r3, #700]	; 0x2bc
 8003cec:	685b      	ldr	r3, [r3, #4]
 8003cee:	4798      	blx	r3
    USBD_free(pdev->pClassData);
 8003cf0:	687b      	ldr	r3, [r7, #4]
 8003cf2:	f8d3 32b8 	ldr.w	r3, [r3, #696]	; 0x2b8
 8003cf6:	4618      	mov	r0, r3
 8003cf8:	f002 f912 	bl	8005f20 <USBD_static_free>
    pdev->pClassData = NULL;
 8003cfc:	687b      	ldr	r3, [r7, #4]
 8003cfe:	2200      	movs	r2, #0
 8003d00:	f8c3 22b8 	str.w	r2, [r3, #696]	; 0x2b8
  }

  return ret;
 8003d04:	7bfb      	ldrb	r3, [r7, #15]
}
 8003d06:	4618      	mov	r0, r3
 8003d08:	3710      	adds	r7, #16
 8003d0a:	46bd      	mov	sp, r7
 8003d0c:	bd80      	pop	{r7, pc}

08003d0e <USBD_CDC_Setup>:
  * @param  req: usb requests
  * @retval status
  */
static uint8_t  USBD_CDC_Setup(USBD_HandleTypeDef *pdev,
                               USBD_SetupReqTypedef *req)
{
 8003d0e:	b580      	push	{r7, lr}
 8003d10:	b086      	sub	sp, #24
 8003d12:	af00      	add	r7, sp, #0
 8003d14:	6078      	str	r0, [r7, #4]
 8003d16:	6039      	str	r1, [r7, #0]
  USBD_CDC_HandleTypeDef   *hcdc = (USBD_CDC_HandleTypeDef *) pdev->pClassData;
 8003d18:	687b      	ldr	r3, [r7, #4]
 8003d1a:	f8d3 32b8 	ldr.w	r3, [r3, #696]	; 0x2b8
 8003d1e:	613b      	str	r3, [r7, #16]
  uint8_t ifalt = 0U;
 8003d20:	2300      	movs	r3, #0
 8003d22:	73fb      	strb	r3, [r7, #15]
  uint16_t status_info = 0U;
 8003d24:	2300      	movs	r3, #0
 8003d26:	81bb      	strh	r3, [r7, #12]
  uint8_t ret = USBD_OK;
 8003d28:	2300      	movs	r3, #0
 8003d2a:	75fb      	strb	r3, [r7, #23]

  switch (req->bmRequest & USB_REQ_TYPE_MASK)
 8003d2c:	683b      	ldr	r3, [r7, #0]
 8003d2e:	781b      	ldrb	r3, [r3, #0]
 8003d30:	f003 0360 	and.w	r3, r3, #96	; 0x60
 8003d34:	2b00      	cmp	r3, #0
 8003d36:	d039      	beq.n	8003dac <USBD_CDC_Setup+0x9e>
 8003d38:	2b20      	cmp	r3, #32
 8003d3a:	d17c      	bne.n	8003e36 <USBD_CDC_Setup+0x128>
  {
    case USB_REQ_TYPE_CLASS :
      if (req->wLength)
 8003d3c:	683b      	ldr	r3, [r7, #0]
 8003d3e:	88db      	ldrh	r3, [r3, #6]
 8003d40:	2b00      	cmp	r3, #0
 8003d42:	d029      	beq.n	8003d98 <USBD_CDC_Setup+0x8a>
      {
        if (req->bmRequest & 0x80U)
 8003d44:	683b      	ldr	r3, [r7, #0]
 8003d46:	781b      	ldrb	r3, [r3, #0]
 8003d48:	b25b      	sxtb	r3, r3
 8003d4a:	2b00      	cmp	r3, #0
 8003d4c:	da11      	bge.n	8003d72 <USBD_CDC_Setup+0x64>
        {
          ((USBD_CDC_ItfTypeDef *)pdev->pUserData)->Control(req->bRequest,
 8003d4e:	687b      	ldr	r3, [r7, #4]
 8003d50:	f8d3 32bc 	ldr.w	r3, [r3, #700]	; 0x2bc
 8003d54:	689b      	ldr	r3, [r3, #8]
 8003d56:	683a      	ldr	r2, [r7, #0]
 8003d58:	7850      	ldrb	r0, [r2, #1]
                                                            (uint8_t *)(void *)hcdc->data,
 8003d5a:	6939      	ldr	r1, [r7, #16]
          ((USBD_CDC_ItfTypeDef *)pdev->pUserData)->Control(req->bRequest,
 8003d5c:	683a      	ldr	r2, [r7, #0]
 8003d5e:	88d2      	ldrh	r2, [r2, #6]
 8003d60:	4798      	blx	r3
                                                            req->wLength);

          USBD_CtlSendData(pdev, (uint8_t *)(void *)hcdc->data, req->wLength);
 8003d62:	6939      	ldr	r1, [r7, #16]
 8003d64:	683b      	ldr	r3, [r7, #0]
 8003d66:	88db      	ldrh	r3, [r3, #6]
 8003d68:	461a      	mov	r2, r3
 8003d6a:	6878      	ldr	r0, [r7, #4]
 8003d6c:	f001 fa2a 	bl	80051c4 <USBD_CtlSendData>
      else
      {
        ((USBD_CDC_ItfTypeDef *)pdev->pUserData)->Control(req->bRequest,
                                                          (uint8_t *)(void *)req, 0U);
      }
      break;
 8003d70:	e068      	b.n	8003e44 <USBD_CDC_Setup+0x136>
          hcdc->CmdOpCode = req->bRequest;
 8003d72:	683b      	ldr	r3, [r7, #0]
 8003d74:	785a      	ldrb	r2, [r3, #1]
 8003d76:	693b      	ldr	r3, [r7, #16]
 8003d78:	f883 2200 	strb.w	r2, [r3, #512]	; 0x200
          hcdc->CmdLength = (uint8_t)req->wLength;
 8003d7c:	683b      	ldr	r3, [r7, #0]
 8003d7e:	88db      	ldrh	r3, [r3, #6]
 8003d80:	b2da      	uxtb	r2, r3
 8003d82:	693b      	ldr	r3, [r7, #16]
 8003d84:	f883 2201 	strb.w	r2, [r3, #513]	; 0x201
          USBD_CtlPrepareRx(pdev, (uint8_t *)(void *)hcdc->data, req->wLength);
 8003d88:	6939      	ldr	r1, [r7, #16]
 8003d8a:	683b      	ldr	r3, [r7, #0]
 8003d8c:	88db      	ldrh	r3, [r3, #6]
 8003d8e:	461a      	mov	r2, r3
 8003d90:	6878      	ldr	r0, [r7, #4]
 8003d92:	f001 fa45 	bl	8005220 <USBD_CtlPrepareRx>
      break;
 8003d96:	e055      	b.n	8003e44 <USBD_CDC_Setup+0x136>
        ((USBD_CDC_ItfTypeDef *)pdev->pUserData)->Control(req->bRequest,
 8003d98:	687b      	ldr	r3, [r7, #4]
 8003d9a:	f8d3 32bc 	ldr.w	r3, [r3, #700]	; 0x2bc
 8003d9e:	689b      	ldr	r3, [r3, #8]
 8003da0:	683a      	ldr	r2, [r7, #0]
 8003da2:	7850      	ldrb	r0, [r2, #1]
 8003da4:	2200      	movs	r2, #0
 8003da6:	6839      	ldr	r1, [r7, #0]
 8003da8:	4798      	blx	r3
      break;
 8003daa:	e04b      	b.n	8003e44 <USBD_CDC_Setup+0x136>

    case USB_REQ_TYPE_STANDARD:
      switch (req->bRequest)
 8003dac:	683b      	ldr	r3, [r7, #0]
 8003dae:	785b      	ldrb	r3, [r3, #1]
 8003db0:	2b0a      	cmp	r3, #10
 8003db2:	d017      	beq.n	8003de4 <USBD_CDC_Setup+0xd6>
 8003db4:	2b0b      	cmp	r3, #11
 8003db6:	d029      	beq.n	8003e0c <USBD_CDC_Setup+0xfe>
 8003db8:	2b00      	cmp	r3, #0
 8003dba:	d133      	bne.n	8003e24 <USBD_CDC_Setup+0x116>
      {
        case USB_REQ_GET_STATUS:
          if (pdev->dev_state == USBD_STATE_CONFIGURED)
 8003dbc:	687b      	ldr	r3, [r7, #4]
 8003dbe:	f893 329c 	ldrb.w	r3, [r3, #668]	; 0x29c
 8003dc2:	2b03      	cmp	r3, #3
 8003dc4:	d107      	bne.n	8003dd6 <USBD_CDC_Setup+0xc8>
          {
            USBD_CtlSendData(pdev, (uint8_t *)(void *)&status_info, 2U);
 8003dc6:	f107 030c 	add.w	r3, r7, #12
 8003dca:	2202      	movs	r2, #2
 8003dcc:	4619      	mov	r1, r3
 8003dce:	6878      	ldr	r0, [r7, #4]
 8003dd0:	f001 f9f8 	bl	80051c4 <USBD_CtlSendData>
          else
          {
            USBD_CtlError(pdev, req);
            ret = USBD_FAIL;
          }
          break;
 8003dd4:	e02e      	b.n	8003e34 <USBD_CDC_Setup+0x126>
            USBD_CtlError(pdev, req);
 8003dd6:	6839      	ldr	r1, [r7, #0]
 8003dd8:	6878      	ldr	r0, [r7, #4]
 8003dda:	f001 f988 	bl	80050ee <USBD_CtlError>
            ret = USBD_FAIL;
 8003dde:	2302      	movs	r3, #2
 8003de0:	75fb      	strb	r3, [r7, #23]
          break;
 8003de2:	e027      	b.n	8003e34 <USBD_CDC_Setup+0x126>

        case USB_REQ_GET_INTERFACE:
          if (pdev->dev_state == USBD_STATE_CONFIGURED)
 8003de4:	687b      	ldr	r3, [r7, #4]
 8003de6:	f893 329c 	ldrb.w	r3, [r3, #668]	; 0x29c
 8003dea:	2b03      	cmp	r3, #3
 8003dec:	d107      	bne.n	8003dfe <USBD_CDC_Setup+0xf0>
          {
            USBD_CtlSendData(pdev, &ifalt, 1U);
 8003dee:	f107 030f 	add.w	r3, r7, #15
 8003df2:	2201      	movs	r2, #1
 8003df4:	4619      	mov	r1, r3
 8003df6:	6878      	ldr	r0, [r7, #4]
 8003df8:	f001 f9e4 	bl	80051c4 <USBD_CtlSendData>
          else
          {
            USBD_CtlError(pdev, req);
            ret = USBD_FAIL;
          }
          break;
 8003dfc:	e01a      	b.n	8003e34 <USBD_CDC_Setup+0x126>
            USBD_CtlError(pdev, req);
 8003dfe:	6839      	ldr	r1, [r7, #0]
 8003e00:	6878      	ldr	r0, [r7, #4]
 8003e02:	f001 f974 	bl	80050ee <USBD_CtlError>
            ret = USBD_FAIL;
 8003e06:	2302      	movs	r3, #2
 8003e08:	75fb      	strb	r3, [r7, #23]
          break;
 8003e0a:	e013      	b.n	8003e34 <USBD_CDC_Setup+0x126>

        case USB_REQ_SET_INTERFACE:
          if (pdev->dev_state != USBD_STATE_CONFIGURED)
 8003e0c:	687b      	ldr	r3, [r7, #4]
 8003e0e:	f893 329c 	ldrb.w	r3, [r3, #668]	; 0x29c
 8003e12:	2b03      	cmp	r3, #3
 8003e14:	d00d      	beq.n	8003e32 <USBD_CDC_Setup+0x124>
          {
            USBD_CtlError(pdev, req);
 8003e16:	6839      	ldr	r1, [r7, #0]
 8003e18:	6878      	ldr	r0, [r7, #4]
 8003e1a:	f001 f968 	bl	80050ee <USBD_CtlError>
            ret = USBD_FAIL;
 8003e1e:	2302      	movs	r3, #2
 8003e20:	75fb      	strb	r3, [r7, #23]
          }
          break;
 8003e22:	e006      	b.n	8003e32 <USBD_CDC_Setup+0x124>

        default:
          USBD_CtlError(pdev, req);
 8003e24:	6839      	ldr	r1, [r7, #0]
 8003e26:	6878      	ldr	r0, [r7, #4]
 8003e28:	f001 f961 	bl	80050ee <USBD_CtlError>
          ret = USBD_FAIL;
 8003e2c:	2302      	movs	r3, #2
 8003e2e:	75fb      	strb	r3, [r7, #23]
          break;
 8003e30:	e000      	b.n	8003e34 <USBD_CDC_Setup+0x126>
          break;
 8003e32:	bf00      	nop
      }
      break;
 8003e34:	e006      	b.n	8003e44 <USBD_CDC_Setup+0x136>

    default:
      USBD_CtlError(pdev, req);
 8003e36:	6839      	ldr	r1, [r7, #0]
 8003e38:	6878      	ldr	r0, [r7, #4]
 8003e3a:	f001 f958 	bl	80050ee <USBD_CtlError>
      ret = USBD_FAIL;
 8003e3e:	2302      	movs	r3, #2
 8003e40:	75fb      	strb	r3, [r7, #23]
      break;
 8003e42:	bf00      	nop
  }

  return ret;
 8003e44:	7dfb      	ldrb	r3, [r7, #23]
}
 8003e46:	4618      	mov	r0, r3
 8003e48:	3718      	adds	r7, #24
 8003e4a:	46bd      	mov	sp, r7
 8003e4c:	bd80      	pop	{r7, pc}

08003e4e <USBD_CDC_DataIn>:
  * @param  pdev: device instance
  * @param  epnum: endpoint number
  * @retval status
  */
static uint8_t  USBD_CDC_DataIn(USBD_HandleTypeDef *pdev, uint8_t epnum)
{
 8003e4e:	b580      	push	{r7, lr}
 8003e50:	b084      	sub	sp, #16
 8003e52:	af00      	add	r7, sp, #0
 8003e54:	6078      	str	r0, [r7, #4]
 8003e56:	460b      	mov	r3, r1
 8003e58:	70fb      	strb	r3, [r7, #3]
  USBD_CDC_HandleTypeDef *hcdc = (USBD_CDC_HandleTypeDef *)pdev->pClassData;
 8003e5a:	687b      	ldr	r3, [r7, #4]
 8003e5c:	f8d3 32b8 	ldr.w	r3, [r3, #696]	; 0x2b8
 8003e60:	60fb      	str	r3, [r7, #12]
  PCD_HandleTypeDef *hpcd = pdev->pData;
 8003e62:	687b      	ldr	r3, [r7, #4]
 8003e64:	f8d3 32c0 	ldr.w	r3, [r3, #704]	; 0x2c0
 8003e68:	60bb      	str	r3, [r7, #8]

  if (pdev->pClassData != NULL)
 8003e6a:	687b      	ldr	r3, [r7, #4]
 8003e6c:	f8d3 32b8 	ldr.w	r3, [r3, #696]	; 0x2b8
 8003e70:	2b00      	cmp	r3, #0
 8003e72:	d037      	beq.n	8003ee4 <USBD_CDC_DataIn+0x96>
  {
    if ((pdev->ep_in[epnum].total_length > 0U) && ((pdev->ep_in[epnum].total_length % hpcd->IN_ep[epnum].maxpacket) == 0U))
 8003e74:	78fa      	ldrb	r2, [r7, #3]
 8003e76:	6879      	ldr	r1, [r7, #4]
 8003e78:	4613      	mov	r3, r2
 8003e7a:	009b      	lsls	r3, r3, #2
 8003e7c:	4413      	add	r3, r2
 8003e7e:	009b      	lsls	r3, r3, #2
 8003e80:	440b      	add	r3, r1
 8003e82:	331c      	adds	r3, #28
 8003e84:	681b      	ldr	r3, [r3, #0]
 8003e86:	2b00      	cmp	r3, #0
 8003e88:	d026      	beq.n	8003ed8 <USBD_CDC_DataIn+0x8a>
 8003e8a:	78fa      	ldrb	r2, [r7, #3]
 8003e8c:	6879      	ldr	r1, [r7, #4]
 8003e8e:	4613      	mov	r3, r2
 8003e90:	009b      	lsls	r3, r3, #2
 8003e92:	4413      	add	r3, r2
 8003e94:	009b      	lsls	r3, r3, #2
 8003e96:	440b      	add	r3, r1
 8003e98:	331c      	adds	r3, #28
 8003e9a:	681b      	ldr	r3, [r3, #0]
 8003e9c:	78fa      	ldrb	r2, [r7, #3]
 8003e9e:	68b9      	ldr	r1, [r7, #8]
 8003ea0:	0152      	lsls	r2, r2, #5
 8003ea2:	440a      	add	r2, r1
 8003ea4:	3238      	adds	r2, #56	; 0x38
 8003ea6:	6812      	ldr	r2, [r2, #0]
 8003ea8:	fbb3 f1f2 	udiv	r1, r3, r2
 8003eac:	fb02 f201 	mul.w	r2, r2, r1
 8003eb0:	1a9b      	subs	r3, r3, r2
 8003eb2:	2b00      	cmp	r3, #0
 8003eb4:	d110      	bne.n	8003ed8 <USBD_CDC_DataIn+0x8a>
    {
      /* Update the packet total length */
      pdev->ep_in[epnum].total_length = 0U;
 8003eb6:	78fa      	ldrb	r2, [r7, #3]
 8003eb8:	6879      	ldr	r1, [r7, #4]
 8003eba:	4613      	mov	r3, r2
 8003ebc:	009b      	lsls	r3, r3, #2
 8003ebe:	4413      	add	r3, r2
 8003ec0:	009b      	lsls	r3, r3, #2
 8003ec2:	440b      	add	r3, r1
 8003ec4:	331c      	adds	r3, #28
 8003ec6:	2200      	movs	r2, #0
 8003ec8:	601a      	str	r2, [r3, #0]

      /* Send ZLP */
      USBD_LL_Transmit(pdev, epnum, NULL, 0U);
 8003eca:	78f9      	ldrb	r1, [r7, #3]
 8003ecc:	2300      	movs	r3, #0
 8003ece:	2200      	movs	r2, #0
 8003ed0:	6878      	ldr	r0, [r7, #4]
 8003ed2:	f001 ff88 	bl	8005de6 <USBD_LL_Transmit>
 8003ed6:	e003      	b.n	8003ee0 <USBD_CDC_DataIn+0x92>
    }
    else
    {
      hcdc->TxState = 0U;
 8003ed8:	68fb      	ldr	r3, [r7, #12]
 8003eda:	2200      	movs	r2, #0
 8003edc:	f8c3 2214 	str.w	r2, [r3, #532]	; 0x214
    }
    return USBD_OK;
 8003ee0:	2300      	movs	r3, #0
 8003ee2:	e000      	b.n	8003ee6 <USBD_CDC_DataIn+0x98>
  }
  else
  {
    return USBD_FAIL;
 8003ee4:	2302      	movs	r3, #2
  }
}
 8003ee6:	4618      	mov	r0, r3
 8003ee8:	3710      	adds	r7, #16
 8003eea:	46bd      	mov	sp, r7
 8003eec:	bd80      	pop	{r7, pc}

08003eee <USBD_CDC_DataOut>:
  * @param  pdev: device instance
  * @param  epnum: endpoint number
  * @retval status
  */
static uint8_t  USBD_CDC_DataOut(USBD_HandleTypeDef *pdev, uint8_t epnum)
{
 8003eee:	b580      	push	{r7, lr}
 8003ef0:	b084      	sub	sp, #16
 8003ef2:	af00      	add	r7, sp, #0
 8003ef4:	6078      	str	r0, [r7, #4]
 8003ef6:	460b      	mov	r3, r1
 8003ef8:	70fb      	strb	r3, [r7, #3]
  USBD_CDC_HandleTypeDef   *hcdc = (USBD_CDC_HandleTypeDef *) pdev->pClassData;
 8003efa:	687b      	ldr	r3, [r7, #4]
 8003efc:	f8d3 32b8 	ldr.w	r3, [r3, #696]	; 0x2b8
 8003f00:	60fb      	str	r3, [r7, #12]

  /* Get the received data length */
  hcdc->RxLength = USBD_LL_GetRxDataSize(pdev, epnum);
 8003f02:	78fb      	ldrb	r3, [r7, #3]
 8003f04:	4619      	mov	r1, r3
 8003f06:	6878      	ldr	r0, [r7, #4]
 8003f08:	f001 ffb3 	bl	8005e72 <USBD_LL_GetRxDataSize>
 8003f0c:	4602      	mov	r2, r0
 8003f0e:	68fb      	ldr	r3, [r7, #12]
 8003f10:	f8c3 220c 	str.w	r2, [r3, #524]	; 0x20c

  /* USB data will be immediately processed, this allow next USB traffic being
  NAKed till the end of the application Xfer */
  if (pdev->pClassData != NULL)
 8003f14:	687b      	ldr	r3, [r7, #4]
 8003f16:	f8d3 32b8 	ldr.w	r3, [r3, #696]	; 0x2b8
 8003f1a:	2b00      	cmp	r3, #0
 8003f1c:	d00d      	beq.n	8003f3a <USBD_CDC_DataOut+0x4c>
  {
    ((USBD_CDC_ItfTypeDef *)pdev->pUserData)->Receive(hcdc->RxBuffer, &hcdc->RxLength);
 8003f1e:	687b      	ldr	r3, [r7, #4]
 8003f20:	f8d3 32bc 	ldr.w	r3, [r3, #700]	; 0x2bc
 8003f24:	68db      	ldr	r3, [r3, #12]
 8003f26:	68fa      	ldr	r2, [r7, #12]
 8003f28:	f8d2 0204 	ldr.w	r0, [r2, #516]	; 0x204
 8003f2c:	68fa      	ldr	r2, [r7, #12]
 8003f2e:	f502 7203 	add.w	r2, r2, #524	; 0x20c
 8003f32:	4611      	mov	r1, r2
 8003f34:	4798      	blx	r3

    return USBD_OK;
 8003f36:	2300      	movs	r3, #0
 8003f38:	e000      	b.n	8003f3c <USBD_CDC_DataOut+0x4e>
  }
  else
  {
    return USBD_FAIL;
 8003f3a:	2302      	movs	r3, #2
  }
}
 8003f3c:	4618      	mov	r0, r3
 8003f3e:	3710      	adds	r7, #16
 8003f40:	46bd      	mov	sp, r7
 8003f42:	bd80      	pop	{r7, pc}

08003f44 <USBD_CDC_EP0_RxReady>:
  *         Handle EP0 Rx Ready event
  * @param  pdev: device instance
  * @retval status
  */
static uint8_t  USBD_CDC_EP0_RxReady(USBD_HandleTypeDef *pdev)
{
 8003f44:	b580      	push	{r7, lr}
 8003f46:	b084      	sub	sp, #16
 8003f48:	af00      	add	r7, sp, #0
 8003f4a:	6078      	str	r0, [r7, #4]
  USBD_CDC_HandleTypeDef   *hcdc = (USBD_CDC_HandleTypeDef *) pdev->pClassData;
 8003f4c:	687b      	ldr	r3, [r7, #4]
 8003f4e:	f8d3 32b8 	ldr.w	r3, [r3, #696]	; 0x2b8
 8003f52:	60fb      	str	r3, [r7, #12]

  if ((pdev->pUserData != NULL) && (hcdc->CmdOpCode != 0xFFU))
 8003f54:	687b      	ldr	r3, [r7, #4]
 8003f56:	f8d3 32bc 	ldr.w	r3, [r3, #700]	; 0x2bc
 8003f5a:	2b00      	cmp	r3, #0
 8003f5c:	d015      	beq.n	8003f8a <USBD_CDC_EP0_RxReady+0x46>
 8003f5e:	68fb      	ldr	r3, [r7, #12]
 8003f60:	f893 3200 	ldrb.w	r3, [r3, #512]	; 0x200
 8003f64:	2bff      	cmp	r3, #255	; 0xff
 8003f66:	d010      	beq.n	8003f8a <USBD_CDC_EP0_RxReady+0x46>
  {
    ((USBD_CDC_ItfTypeDef *)pdev->pUserData)->Control(hcdc->CmdOpCode,
 8003f68:	687b      	ldr	r3, [r7, #4]
 8003f6a:	f8d3 32bc 	ldr.w	r3, [r3, #700]	; 0x2bc
 8003f6e:	689b      	ldr	r3, [r3, #8]
 8003f70:	68fa      	ldr	r2, [r7, #12]
 8003f72:	f892 0200 	ldrb.w	r0, [r2, #512]	; 0x200
                                                      (uint8_t *)(void *)hcdc->data,
 8003f76:	68f9      	ldr	r1, [r7, #12]
                                                      (uint16_t)hcdc->CmdLength);
 8003f78:	68fa      	ldr	r2, [r7, #12]
 8003f7a:	f892 2201 	ldrb.w	r2, [r2, #513]	; 0x201
    ((USBD_CDC_ItfTypeDef *)pdev->pUserData)->Control(hcdc->CmdOpCode,
 8003f7e:	b292      	uxth	r2, r2
 8003f80:	4798      	blx	r3
    hcdc->CmdOpCode = 0xFFU;
 8003f82:	68fb      	ldr	r3, [r7, #12]
 8003f84:	22ff      	movs	r2, #255	; 0xff
 8003f86:	f883 2200 	strb.w	r2, [r3, #512]	; 0x200

  }
  return USBD_OK;
 8003f8a:	2300      	movs	r3, #0
}
 8003f8c:	4618      	mov	r0, r3
 8003f8e:	3710      	adds	r7, #16
 8003f90:	46bd      	mov	sp, r7
 8003f92:	bd80      	pop	{r7, pc}

08003f94 <USBD_CDC_GetFSCfgDesc>:
  * @param  speed : current device speed
  * @param  length : pointer data length
  * @retval pointer to descriptor buffer
  */
static uint8_t  *USBD_CDC_GetFSCfgDesc(uint16_t *length)
{
 8003f94:	b480      	push	{r7}
 8003f96:	b083      	sub	sp, #12
 8003f98:	af00      	add	r7, sp, #0
 8003f9a:	6078      	str	r0, [r7, #4]
  *length = sizeof(USBD_CDC_CfgFSDesc);
 8003f9c:	687b      	ldr	r3, [r7, #4]
 8003f9e:	2243      	movs	r2, #67	; 0x43
 8003fa0:	801a      	strh	r2, [r3, #0]
  return USBD_CDC_CfgFSDesc;
 8003fa2:	4b03      	ldr	r3, [pc, #12]	; (8003fb0 <USBD_CDC_GetFSCfgDesc+0x1c>)
}
 8003fa4:	4618      	mov	r0, r3
 8003fa6:	370c      	adds	r7, #12
 8003fa8:	46bd      	mov	sp, r7
 8003faa:	f85d 7b04 	ldr.w	r7, [sp], #4
 8003fae:	4770      	bx	lr
 8003fb0:	20000090 	.word	0x20000090

08003fb4 <USBD_CDC_GetHSCfgDesc>:
  * @param  speed : current device speed
  * @param  length : pointer data length
  * @retval pointer to descriptor buffer
  */
static uint8_t  *USBD_CDC_GetHSCfgDesc(uint16_t *length)
{
 8003fb4:	b480      	push	{r7}
 8003fb6:	b083      	sub	sp, #12
 8003fb8:	af00      	add	r7, sp, #0
 8003fba:	6078      	str	r0, [r7, #4]
  *length = sizeof(USBD_CDC_CfgHSDesc);
 8003fbc:	687b      	ldr	r3, [r7, #4]
 8003fbe:	2243      	movs	r2, #67	; 0x43
 8003fc0:	801a      	strh	r2, [r3, #0]
  return USBD_CDC_CfgHSDesc;
 8003fc2:	4b03      	ldr	r3, [pc, #12]	; (8003fd0 <USBD_CDC_GetHSCfgDesc+0x1c>)
}
 8003fc4:	4618      	mov	r0, r3
 8003fc6:	370c      	adds	r7, #12
 8003fc8:	46bd      	mov	sp, r7
 8003fca:	f85d 7b04 	ldr.w	r7, [sp], #4
 8003fce:	4770      	bx	lr
 8003fd0:	2000004c 	.word	0x2000004c

08003fd4 <USBD_CDC_GetOtherSpeedCfgDesc>:
  * @param  speed : current device speed
  * @param  length : pointer data length
  * @retval pointer to descriptor buffer
  */
static uint8_t  *USBD_CDC_GetOtherSpeedCfgDesc(uint16_t *length)
{
 8003fd4:	b480      	push	{r7}
 8003fd6:	b083      	sub	sp, #12
 8003fd8:	af00      	add	r7, sp, #0
 8003fda:	6078      	str	r0, [r7, #4]
  *length = sizeof(USBD_CDC_OtherSpeedCfgDesc);
 8003fdc:	687b      	ldr	r3, [r7, #4]
 8003fde:	2243      	movs	r2, #67	; 0x43
 8003fe0:	801a      	strh	r2, [r3, #0]
  return USBD_CDC_OtherSpeedCfgDesc;
 8003fe2:	4b03      	ldr	r3, [pc, #12]	; (8003ff0 <USBD_CDC_GetOtherSpeedCfgDesc+0x1c>)
}
 8003fe4:	4618      	mov	r0, r3
 8003fe6:	370c      	adds	r7, #12
 8003fe8:	46bd      	mov	sp, r7
 8003fea:	f85d 7b04 	ldr.w	r7, [sp], #4
 8003fee:	4770      	bx	lr
 8003ff0:	200000d4 	.word	0x200000d4

08003ff4 <USBD_CDC_GetDeviceQualifierDescriptor>:
*         return Device Qualifier descriptor
* @param  length : pointer data length
* @retval pointer to descriptor buffer
*/
uint8_t  *USBD_CDC_GetDeviceQualifierDescriptor(uint16_t *length)
{
 8003ff4:	b480      	push	{r7}
 8003ff6:	b083      	sub	sp, #12
 8003ff8:	af00      	add	r7, sp, #0
 8003ffa:	6078      	str	r0, [r7, #4]
  *length = sizeof(USBD_CDC_DeviceQualifierDesc);
 8003ffc:	687b      	ldr	r3, [r7, #4]
 8003ffe:	220a      	movs	r2, #10
 8004000:	801a      	strh	r2, [r3, #0]
  return USBD_CDC_DeviceQualifierDesc;
 8004002:	4b03      	ldr	r3, [pc, #12]	; (8004010 <USBD_CDC_GetDeviceQualifierDescriptor+0x1c>)
}
 8004004:	4618      	mov	r0, r3
 8004006:	370c      	adds	r7, #12
 8004008:	46bd      	mov	sp, r7
 800400a:	f85d 7b04 	ldr.w	r7, [sp], #4
 800400e:	4770      	bx	lr
 8004010:	20000008 	.word	0x20000008

08004014 <USBD_CDC_RegisterInterface>:
  * @param  fops: CD  Interface callback
  * @retval status
  */
uint8_t  USBD_CDC_RegisterInterface(USBD_HandleTypeDef   *pdev,
                                    USBD_CDC_ItfTypeDef *fops)
{
 8004014:	b480      	push	{r7}
 8004016:	b085      	sub	sp, #20
 8004018:	af00      	add	r7, sp, #0
 800401a:	6078      	str	r0, [r7, #4]
 800401c:	6039      	str	r1, [r7, #0]
  uint8_t  ret = USBD_FAIL;
 800401e:	2302      	movs	r3, #2
 8004020:	73fb      	strb	r3, [r7, #15]

  if (fops != NULL)
 8004022:	683b      	ldr	r3, [r7, #0]
 8004024:	2b00      	cmp	r3, #0
 8004026:	d005      	beq.n	8004034 <USBD_CDC_RegisterInterface+0x20>
  {
    pdev->pUserData = fops;
 8004028:	687b      	ldr	r3, [r7, #4]
 800402a:	683a      	ldr	r2, [r7, #0]
 800402c:	f8c3 22bc 	str.w	r2, [r3, #700]	; 0x2bc
    ret = USBD_OK;
 8004030:	2300      	movs	r3, #0
 8004032:	73fb      	strb	r3, [r7, #15]
  }

  return ret;
 8004034:	7bfb      	ldrb	r3, [r7, #15]
}
 8004036:	4618      	mov	r0, r3
 8004038:	3714      	adds	r7, #20
 800403a:	46bd      	mov	sp, r7
 800403c:	f85d 7b04 	ldr.w	r7, [sp], #4
 8004040:	4770      	bx	lr

08004042 <USBD_CDC_SetTxBuffer>:
  * @retval status
  */
uint8_t  USBD_CDC_SetTxBuffer(USBD_HandleTypeDef   *pdev,
                              uint8_t  *pbuff,
                              uint16_t length)
{
 8004042:	b480      	push	{r7}
 8004044:	b087      	sub	sp, #28
 8004046:	af00      	add	r7, sp, #0
 8004048:	60f8      	str	r0, [r7, #12]
 800404a:	60b9      	str	r1, [r7, #8]
 800404c:	4613      	mov	r3, r2
 800404e:	80fb      	strh	r3, [r7, #6]
  USBD_CDC_HandleTypeDef   *hcdc = (USBD_CDC_HandleTypeDef *) pdev->pClassData;
 8004050:	68fb      	ldr	r3, [r7, #12]
 8004052:	f8d3 32b8 	ldr.w	r3, [r3, #696]	; 0x2b8
 8004056:	617b      	str	r3, [r7, #20]

  hcdc->TxBuffer = pbuff;
 8004058:	697b      	ldr	r3, [r7, #20]
 800405a:	68ba      	ldr	r2, [r7, #8]
 800405c:	f8c3 2208 	str.w	r2, [r3, #520]	; 0x208
  hcdc->TxLength = length;
 8004060:	88fa      	ldrh	r2, [r7, #6]
 8004062:	697b      	ldr	r3, [r7, #20]
 8004064:	f8c3 2210 	str.w	r2, [r3, #528]	; 0x210

  return USBD_OK;
 8004068:	2300      	movs	r3, #0
}
 800406a:	4618      	mov	r0, r3
 800406c:	371c      	adds	r7, #28
 800406e:	46bd      	mov	sp, r7
 8004070:	f85d 7b04 	ldr.w	r7, [sp], #4
 8004074:	4770      	bx	lr

08004076 <USBD_CDC_SetRxBuffer>:
  * @param  pbuff: Rx Buffer
  * @retval status
  */
uint8_t  USBD_CDC_SetRxBuffer(USBD_HandleTypeDef   *pdev,
                              uint8_t  *pbuff)
{
 8004076:	b480      	push	{r7}
 8004078:	b085      	sub	sp, #20
 800407a:	af00      	add	r7, sp, #0
 800407c:	6078      	str	r0, [r7, #4]
 800407e:	6039      	str	r1, [r7, #0]
  USBD_CDC_HandleTypeDef   *hcdc = (USBD_CDC_HandleTypeDef *) pdev->pClassData;
 8004080:	687b      	ldr	r3, [r7, #4]
 8004082:	f8d3 32b8 	ldr.w	r3, [r3, #696]	; 0x2b8
 8004086:	60fb      	str	r3, [r7, #12]

  hcdc->RxBuffer = pbuff;
 8004088:	68fb      	ldr	r3, [r7, #12]
 800408a:	683a      	ldr	r2, [r7, #0]
 800408c:	f8c3 2204 	str.w	r2, [r3, #516]	; 0x204

  return USBD_OK;
 8004090:	2300      	movs	r3, #0
}
 8004092:	4618      	mov	r0, r3
 8004094:	3714      	adds	r7, #20
 8004096:	46bd      	mov	sp, r7
 8004098:	f85d 7b04 	ldr.w	r7, [sp], #4
 800409c:	4770      	bx	lr

0800409e <USBD_CDC_TransmitPacket>:
  *         Transmit packet on IN endpoint
  * @param  pdev: device instance
  * @retval status
  */
uint8_t  USBD_CDC_TransmitPacket(USBD_HandleTypeDef *pdev)
{
 800409e:	b580      	push	{r7, lr}
 80040a0:	b084      	sub	sp, #16
 80040a2:	af00      	add	r7, sp, #0
 80040a4:	6078      	str	r0, [r7, #4]
  USBD_CDC_HandleTypeDef   *hcdc = (USBD_CDC_HandleTypeDef *) pdev->pClassData;
 80040a6:	687b      	ldr	r3, [r7, #4]
 80040a8:	f8d3 32b8 	ldr.w	r3, [r3, #696]	; 0x2b8
 80040ac:	60fb      	str	r3, [r7, #12]

  if (pdev->pClassData != NULL)
 80040ae:	687b      	ldr	r3, [r7, #4]
 80040b0:	f8d3 32b8 	ldr.w	r3, [r3, #696]	; 0x2b8
 80040b4:	2b00      	cmp	r3, #0
 80040b6:	d01c      	beq.n	80040f2 <USBD_CDC_TransmitPacket+0x54>
  {
    if (hcdc->TxState == 0U)
 80040b8:	68fb      	ldr	r3, [r7, #12]
 80040ba:	f8d3 3214 	ldr.w	r3, [r3, #532]	; 0x214
 80040be:	2b00      	cmp	r3, #0
 80040c0:	d115      	bne.n	80040ee <USBD_CDC_TransmitPacket+0x50>
    {
      /* Tx Transfer in progress */
      hcdc->TxState = 1U;
 80040c2:	68fb      	ldr	r3, [r7, #12]
 80040c4:	2201      	movs	r2, #1
 80040c6:	f8c3 2214 	str.w	r2, [r3, #532]	; 0x214

      /* Update the packet total length */
      pdev->ep_in[CDC_IN_EP & 0xFU].total_length = hcdc->TxLength;
 80040ca:	68fb      	ldr	r3, [r7, #12]
 80040cc:	f8d3 2210 	ldr.w	r2, [r3, #528]	; 0x210
 80040d0:	687b      	ldr	r3, [r7, #4]
 80040d2:	631a      	str	r2, [r3, #48]	; 0x30

      /* Transmit next packet */
      USBD_LL_Transmit(pdev, CDC_IN_EP, hcdc->TxBuffer,
 80040d4:	68fb      	ldr	r3, [r7, #12]
 80040d6:	f8d3 2208 	ldr.w	r2, [r3, #520]	; 0x208
                       (uint16_t)hcdc->TxLength);
 80040da:	68fb      	ldr	r3, [r7, #12]
 80040dc:	f8d3 3210 	ldr.w	r3, [r3, #528]	; 0x210
      USBD_LL_Transmit(pdev, CDC_IN_EP, hcdc->TxBuffer,
 80040e0:	b29b      	uxth	r3, r3
 80040e2:	2181      	movs	r1, #129	; 0x81
 80040e4:	6878      	ldr	r0, [r7, #4]
 80040e6:	f001 fe7e 	bl	8005de6 <USBD_LL_Transmit>

      return USBD_OK;
 80040ea:	2300      	movs	r3, #0
 80040ec:	e002      	b.n	80040f4 <USBD_CDC_TransmitPacket+0x56>
    }
    else
    {
      return USBD_BUSY;
 80040ee:	2301      	movs	r3, #1
 80040f0:	e000      	b.n	80040f4 <USBD_CDC_TransmitPacket+0x56>
    }
  }
  else
  {
    return USBD_FAIL;
 80040f2:	2302      	movs	r3, #2
  }
}
 80040f4:	4618      	mov	r0, r3
 80040f6:	3710      	adds	r7, #16
 80040f8:	46bd      	mov	sp, r7
 80040fa:	bd80      	pop	{r7, pc}

080040fc <USBD_CDC_ReceivePacket>:
  *         prepare OUT Endpoint for reception
  * @param  pdev: device instance
  * @retval status
  */
uint8_t  USBD_CDC_ReceivePacket(USBD_HandleTypeDef *pdev)
{
 80040fc:	b580      	push	{r7, lr}
 80040fe:	b084      	sub	sp, #16
 8004100:	af00      	add	r7, sp, #0
 8004102:	6078      	str	r0, [r7, #4]
  USBD_CDC_HandleTypeDef   *hcdc = (USBD_CDC_HandleTypeDef *) pdev->pClassData;
 8004104:	687b      	ldr	r3, [r7, #4]
 8004106:	f8d3 32b8 	ldr.w	r3, [r3, #696]	; 0x2b8
 800410a:	60fb      	str	r3, [r7, #12]

  /* Suspend or Resume USB Out process */
  if (pdev->pClassData != NULL)
 800410c:	687b      	ldr	r3, [r7, #4]
 800410e:	f8d3 32b8 	ldr.w	r3, [r3, #696]	; 0x2b8
 8004112:	2b00      	cmp	r3, #0
 8004114:	d017      	beq.n	8004146 <USBD_CDC_ReceivePacket+0x4a>
  {
    if (pdev->dev_speed == USBD_SPEED_HIGH)
 8004116:	687b      	ldr	r3, [r7, #4]
 8004118:	7c1b      	ldrb	r3, [r3, #16]
 800411a:	2b00      	cmp	r3, #0
 800411c:	d109      	bne.n	8004132 <USBD_CDC_ReceivePacket+0x36>
    {
      /* Prepare Out endpoint to receive next packet */
      USBD_LL_PrepareReceive(pdev,
 800411e:	68fb      	ldr	r3, [r7, #12]
 8004120:	f8d3 2204 	ldr.w	r2, [r3, #516]	; 0x204
 8004124:	f44f 7300 	mov.w	r3, #512	; 0x200
 8004128:	2101      	movs	r1, #1
 800412a:	6878      	ldr	r0, [r7, #4]
 800412c:	f001 fe7e 	bl	8005e2c <USBD_LL_PrepareReceive>
 8004130:	e007      	b.n	8004142 <USBD_CDC_ReceivePacket+0x46>
                             CDC_DATA_HS_OUT_PACKET_SIZE);
    }
    else
    {
      /* Prepare Out endpoint to receive next packet */
      USBD_LL_PrepareReceive(pdev,
 8004132:	68fb      	ldr	r3, [r7, #12]
 8004134:	f8d3 2204 	ldr.w	r2, [r3, #516]	; 0x204
 8004138:	2340      	movs	r3, #64	; 0x40
 800413a:	2101      	movs	r1, #1
 800413c:	6878      	ldr	r0, [r7, #4]
 800413e:	f001 fe75 	bl	8005e2c <USBD_LL_PrepareReceive>
                             CDC_OUT_EP,
                             hcdc->RxBuffer,
                             CDC_DATA_FS_OUT_PACKET_SIZE);
    }
    return USBD_OK;
 8004142:	2300      	movs	r3, #0
 8004144:	e000      	b.n	8004148 <USBD_CDC_ReceivePacket+0x4c>
  }
  else
  {
    return USBD_FAIL;
 8004146:	2302      	movs	r3, #2
  }
}
 8004148:	4618      	mov	r0, r3
 800414a:	3710      	adds	r7, #16
 800414c:	46bd      	mov	sp, r7
 800414e:	bd80      	pop	{r7, pc}

08004150 <USBD_Init>:
* @param  id: Low level core index
* @retval None
*/
USBD_StatusTypeDef USBD_Init(USBD_HandleTypeDef *pdev,
                             USBD_DescriptorsTypeDef *pdesc, uint8_t id)
{
 8004150:	b580      	push	{r7, lr}
 8004152:	b084      	sub	sp, #16
 8004154:	af00      	add	r7, sp, #0
 8004156:	60f8      	str	r0, [r7, #12]
 8004158:	60b9      	str	r1, [r7, #8]
 800415a:	4613      	mov	r3, r2
 800415c:	71fb      	strb	r3, [r7, #7]
  /* Check whether the USB Host handle is valid */
  if (pdev == NULL)
 800415e:	68fb      	ldr	r3, [r7, #12]
 8004160:	2b00      	cmp	r3, #0
 8004162:	d101      	bne.n	8004168 <USBD_Init+0x18>
  {
#if (USBD_DEBUG_LEVEL > 1U)
    USBD_ErrLog("Invalid Device handle");
#endif
    return USBD_FAIL;
 8004164:	2302      	movs	r3, #2
 8004166:	e01a      	b.n	800419e <USBD_Init+0x4e>
  }

  /* Unlink previous class*/
  if (pdev->pClass != NULL)
 8004168:	68fb      	ldr	r3, [r7, #12]
 800416a:	f8d3 32b4 	ldr.w	r3, [r3, #692]	; 0x2b4
 800416e:	2b00      	cmp	r3, #0
 8004170:	d003      	beq.n	800417a <USBD_Init+0x2a>
  {
    pdev->pClass = NULL;
 8004172:	68fb      	ldr	r3, [r7, #12]
 8004174:	2200      	movs	r2, #0
 8004176:	f8c3 22b4 	str.w	r2, [r3, #692]	; 0x2b4
  }

  /* Assign USBD Descriptors */
  if (pdesc != NULL)
 800417a:	68bb      	ldr	r3, [r7, #8]
 800417c:	2b00      	cmp	r3, #0
 800417e:	d003      	beq.n	8004188 <USBD_Init+0x38>
  {
    pdev->pDesc = pdesc;
 8004180:	68fb      	ldr	r3, [r7, #12]
 8004182:	68ba      	ldr	r2, [r7, #8]
 8004184:	f8c3 22b0 	str.w	r2, [r3, #688]	; 0x2b0
  }

  /* Set Device initial State */
  pdev->dev_state = USBD_STATE_DEFAULT;
 8004188:	68fb      	ldr	r3, [r7, #12]
 800418a:	2201      	movs	r2, #1
 800418c:	f883 229c 	strb.w	r2, [r3, #668]	; 0x29c
  pdev->id = id;
 8004190:	68fb      	ldr	r3, [r7, #12]
 8004192:	79fa      	ldrb	r2, [r7, #7]
 8004194:	701a      	strb	r2, [r3, #0]
  /* Initialize low level driver */
  USBD_LL_Init(pdev);
 8004196:	68f8      	ldr	r0, [r7, #12]
 8004198:	f001 fce2 	bl	8005b60 <USBD_LL_Init>

  return USBD_OK;
 800419c:	2300      	movs	r3, #0
}
 800419e:	4618      	mov	r0, r3
 80041a0:	3710      	adds	r7, #16
 80041a2:	46bd      	mov	sp, r7
 80041a4:	bd80      	pop	{r7, pc}

080041a6 <USBD_RegisterClass>:
  * @param  pDevice : Device Handle
  * @param  pclass: Class handle
  * @retval USBD Status
  */
USBD_StatusTypeDef  USBD_RegisterClass(USBD_HandleTypeDef *pdev, USBD_ClassTypeDef *pclass)
{
 80041a6:	b480      	push	{r7}
 80041a8:	b085      	sub	sp, #20
 80041aa:	af00      	add	r7, sp, #0
 80041ac:	6078      	str	r0, [r7, #4]
 80041ae:	6039      	str	r1, [r7, #0]
  USBD_StatusTypeDef status = USBD_OK;
 80041b0:	2300      	movs	r3, #0
 80041b2:	73fb      	strb	r3, [r7, #15]
  if (pclass != NULL)
 80041b4:	683b      	ldr	r3, [r7, #0]
 80041b6:	2b00      	cmp	r3, #0
 80041b8:	d006      	beq.n	80041c8 <USBD_RegisterClass+0x22>
  {
    /* link the class to the USB Device handle */
    pdev->pClass = pclass;
 80041ba:	687b      	ldr	r3, [r7, #4]
 80041bc:	683a      	ldr	r2, [r7, #0]
 80041be:	f8c3 22b4 	str.w	r2, [r3, #692]	; 0x2b4
    status = USBD_OK;
 80041c2:	2300      	movs	r3, #0
 80041c4:	73fb      	strb	r3, [r7, #15]
 80041c6:	e001      	b.n	80041cc <USBD_RegisterClass+0x26>
  else
  {
#if (USBD_DEBUG_LEVEL > 1U)
    USBD_ErrLog("Invalid Class handle");
#endif
    status = USBD_FAIL;
 80041c8:	2302      	movs	r3, #2
 80041ca:	73fb      	strb	r3, [r7, #15]
  }

  return status;
 80041cc:	7bfb      	ldrb	r3, [r7, #15]
}
 80041ce:	4618      	mov	r0, r3
 80041d0:	3714      	adds	r7, #20
 80041d2:	46bd      	mov	sp, r7
 80041d4:	f85d 7b04 	ldr.w	r7, [sp], #4
 80041d8:	4770      	bx	lr

080041da <USBD_Start>:
  *         Start the USB Device Core.
  * @param  pdev: Device Handle
  * @retval USBD Status
  */
USBD_StatusTypeDef  USBD_Start(USBD_HandleTypeDef *pdev)
{
 80041da:	b580      	push	{r7, lr}
 80041dc:	b082      	sub	sp, #8
 80041de:	af00      	add	r7, sp, #0
 80041e0:	6078      	str	r0, [r7, #4]
  /* Start the low level driver  */
  USBD_LL_Start(pdev);
 80041e2:	6878      	ldr	r0, [r7, #4]
 80041e4:	f001 fd1c 	bl	8005c20 <USBD_LL_Start>

  return USBD_OK;
 80041e8:	2300      	movs	r3, #0
}
 80041ea:	4618      	mov	r0, r3
 80041ec:	3708      	adds	r7, #8
 80041ee:	46bd      	mov	sp, r7
 80041f0:	bd80      	pop	{r7, pc}

080041f2 <USBD_RunTestMode>:
*         Launch test mode process
* @param  pdev: device instance
* @retval status
*/
USBD_StatusTypeDef  USBD_RunTestMode(USBD_HandleTypeDef  *pdev)
{
 80041f2:	b480      	push	{r7}
 80041f4:	b083      	sub	sp, #12
 80041f6:	af00      	add	r7, sp, #0
 80041f8:	6078      	str	r0, [r7, #4]
  /* Prevent unused argument compilation warning */
  UNUSED(pdev);

  return USBD_OK;
 80041fa:	2300      	movs	r3, #0
}
 80041fc:	4618      	mov	r0, r3
 80041fe:	370c      	adds	r7, #12
 8004200:	46bd      	mov	sp, r7
 8004202:	f85d 7b04 	ldr.w	r7, [sp], #4
 8004206:	4770      	bx	lr

08004208 <USBD_SetClassConfig>:
* @param  cfgidx: configuration index
* @retval status
*/

USBD_StatusTypeDef USBD_SetClassConfig(USBD_HandleTypeDef  *pdev, uint8_t cfgidx)
{
 8004208:	b580      	push	{r7, lr}
 800420a:	b084      	sub	sp, #16
 800420c:	af00      	add	r7, sp, #0
 800420e:	6078      	str	r0, [r7, #4]
 8004210:	460b      	mov	r3, r1
 8004212:	70fb      	strb	r3, [r7, #3]
  USBD_StatusTypeDef ret = USBD_FAIL;
 8004214:	2302      	movs	r3, #2
 8004216:	73fb      	strb	r3, [r7, #15]

  if (pdev->pClass != NULL)
 8004218:	687b      	ldr	r3, [r7, #4]
 800421a:	f8d3 32b4 	ldr.w	r3, [r3, #692]	; 0x2b4
 800421e:	2b00      	cmp	r3, #0
 8004220:	d00c      	beq.n	800423c <USBD_SetClassConfig+0x34>
  {
    /* Set configuration  and Start the Class*/
    if (pdev->pClass->Init(pdev, cfgidx) == 0U)
 8004222:	687b      	ldr	r3, [r7, #4]
 8004224:	f8d3 32b4 	ldr.w	r3, [r3, #692]	; 0x2b4
 8004228:	681b      	ldr	r3, [r3, #0]
 800422a:	78fa      	ldrb	r2, [r7, #3]
 800422c:	4611      	mov	r1, r2
 800422e:	6878      	ldr	r0, [r7, #4]
 8004230:	4798      	blx	r3
 8004232:	4603      	mov	r3, r0
 8004234:	2b00      	cmp	r3, #0
 8004236:	d101      	bne.n	800423c <USBD_SetClassConfig+0x34>
    {
      ret = USBD_OK;
 8004238:	2300      	movs	r3, #0
 800423a:	73fb      	strb	r3, [r7, #15]
    }
  }

  return ret;
 800423c:	7bfb      	ldrb	r3, [r7, #15]
}
 800423e:	4618      	mov	r0, r3
 8004240:	3710      	adds	r7, #16
 8004242:	46bd      	mov	sp, r7
 8004244:	bd80      	pop	{r7, pc}

08004246 <USBD_ClrClassConfig>:
* @param  pdev: device instance
* @param  cfgidx: configuration index
* @retval status: USBD_StatusTypeDef
*/
USBD_StatusTypeDef USBD_ClrClassConfig(USBD_HandleTypeDef  *pdev, uint8_t cfgidx)
{
 8004246:	b580      	push	{r7, lr}
 8004248:	b082      	sub	sp, #8
 800424a:	af00      	add	r7, sp, #0
 800424c:	6078      	str	r0, [r7, #4]
 800424e:	460b      	mov	r3, r1
 8004250:	70fb      	strb	r3, [r7, #3]
  /* Clear configuration  and De-initialize the Class process*/
  pdev->pClass->DeInit(pdev, cfgidx);
 8004252:	687b      	ldr	r3, [r7, #4]
 8004254:	f8d3 32b4 	ldr.w	r3, [r3, #692]	; 0x2b4
 8004258:	685b      	ldr	r3, [r3, #4]
 800425a:	78fa      	ldrb	r2, [r7, #3]
 800425c:	4611      	mov	r1, r2
 800425e:	6878      	ldr	r0, [r7, #4]
 8004260:	4798      	blx	r3

  return USBD_OK;
 8004262:	2300      	movs	r3, #0
}
 8004264:	4618      	mov	r0, r3
 8004266:	3708      	adds	r7, #8
 8004268:	46bd      	mov	sp, r7
 800426a:	bd80      	pop	{r7, pc}

0800426c <USBD_LL_SetupStage>:
*         Handle the setup stage
* @param  pdev: device instance
* @retval status
*/
USBD_StatusTypeDef USBD_LL_SetupStage(USBD_HandleTypeDef *pdev, uint8_t *psetup)
{
 800426c:	b580      	push	{r7, lr}
 800426e:	b082      	sub	sp, #8
 8004270:	af00      	add	r7, sp, #0
 8004272:	6078      	str	r0, [r7, #4]
 8004274:	6039      	str	r1, [r7, #0]
  USBD_ParseSetupRequest(&pdev->request, psetup);
 8004276:	687b      	ldr	r3, [r7, #4]
 8004278:	f503 732a 	add.w	r3, r3, #680	; 0x2a8
 800427c:	6839      	ldr	r1, [r7, #0]
 800427e:	4618      	mov	r0, r3
 8004280:	f000 fef8 	bl	8005074 <USBD_ParseSetupRequest>

  pdev->ep0_state = USBD_EP0_SETUP;
 8004284:	687b      	ldr	r3, [r7, #4]
 8004286:	2201      	movs	r2, #1
 8004288:	f8c3 2294 	str.w	r2, [r3, #660]	; 0x294

  pdev->ep0_data_len = pdev->request.wLength;
 800428c:	687b      	ldr	r3, [r7, #4]
 800428e:	f8b3 32ae 	ldrh.w	r3, [r3, #686]	; 0x2ae
 8004292:	461a      	mov	r2, r3
 8004294:	687b      	ldr	r3, [r7, #4]
 8004296:	f8c3 2298 	str.w	r2, [r3, #664]	; 0x298

  switch (pdev->request.bmRequest & 0x1FU)
 800429a:	687b      	ldr	r3, [r7, #4]
 800429c:	f893 32a8 	ldrb.w	r3, [r3, #680]	; 0x2a8
 80042a0:	f003 031f 	and.w	r3, r3, #31
 80042a4:	2b01      	cmp	r3, #1
 80042a6:	d00c      	beq.n	80042c2 <USBD_LL_SetupStage+0x56>
 80042a8:	2b01      	cmp	r3, #1
 80042aa:	d302      	bcc.n	80042b2 <USBD_LL_SetupStage+0x46>
 80042ac:	2b02      	cmp	r3, #2
 80042ae:	d010      	beq.n	80042d2 <USBD_LL_SetupStage+0x66>
 80042b0:	e017      	b.n	80042e2 <USBD_LL_SetupStage+0x76>
  {
    case USB_REQ_RECIPIENT_DEVICE:
      USBD_StdDevReq(pdev, &pdev->request);
 80042b2:	687b      	ldr	r3, [r7, #4]
 80042b4:	f503 732a 	add.w	r3, r3, #680	; 0x2a8
 80042b8:	4619      	mov	r1, r3
 80042ba:	6878      	ldr	r0, [r7, #4]
 80042bc:	f000 f9ce 	bl	800465c <USBD_StdDevReq>
      break;
 80042c0:	e01a      	b.n	80042f8 <USBD_LL_SetupStage+0x8c>

    case USB_REQ_RECIPIENT_INTERFACE:
      USBD_StdItfReq(pdev, &pdev->request);
 80042c2:	687b      	ldr	r3, [r7, #4]
 80042c4:	f503 732a 	add.w	r3, r3, #680	; 0x2a8
 80042c8:	4619      	mov	r1, r3
 80042ca:	6878      	ldr	r0, [r7, #4]
 80042cc:	f000 fa30 	bl	8004730 <USBD_StdItfReq>
      break;
 80042d0:	e012      	b.n	80042f8 <USBD_LL_SetupStage+0x8c>

    case USB_REQ_RECIPIENT_ENDPOINT:
      USBD_StdEPReq(pdev, &pdev->request);
 80042d2:	687b      	ldr	r3, [r7, #4]
 80042d4:	f503 732a 	add.w	r3, r3, #680	; 0x2a8
 80042d8:	4619      	mov	r1, r3
 80042da:	6878      	ldr	r0, [r7, #4]
 80042dc:	f000 fa6e 	bl	80047bc <USBD_StdEPReq>
      break;
 80042e0:	e00a      	b.n	80042f8 <USBD_LL_SetupStage+0x8c>

    default:
      USBD_LL_StallEP(pdev, (pdev->request.bmRequest & 0x80U));
 80042e2:	687b      	ldr	r3, [r7, #4]
 80042e4:	f893 32a8 	ldrb.w	r3, [r3, #680]	; 0x2a8
 80042e8:	f023 037f 	bic.w	r3, r3, #127	; 0x7f
 80042ec:	b2db      	uxtb	r3, r3
 80042ee:	4619      	mov	r1, r3
 80042f0:	6878      	ldr	r0, [r7, #4]
 80042f2:	f001 fcf5 	bl	8005ce0 <USBD_LL_StallEP>
      break;
 80042f6:	bf00      	nop
  }

  return USBD_OK;
 80042f8:	2300      	movs	r3, #0
}
 80042fa:	4618      	mov	r0, r3
 80042fc:	3708      	adds	r7, #8
 80042fe:	46bd      	mov	sp, r7
 8004300:	bd80      	pop	{r7, pc}

08004302 <USBD_LL_DataOutStage>:
* @param  epnum: endpoint index
* @retval status
*/
USBD_StatusTypeDef USBD_LL_DataOutStage(USBD_HandleTypeDef *pdev,
                                        uint8_t epnum, uint8_t *pdata)
{
 8004302:	b580      	push	{r7, lr}
 8004304:	b086      	sub	sp, #24
 8004306:	af00      	add	r7, sp, #0
 8004308:	60f8      	str	r0, [r7, #12]
 800430a:	460b      	mov	r3, r1
 800430c:	607a      	str	r2, [r7, #4]
 800430e:	72fb      	strb	r3, [r7, #11]
  USBD_EndpointTypeDef *pep;

  if (epnum == 0U)
 8004310:	7afb      	ldrb	r3, [r7, #11]
 8004312:	2b00      	cmp	r3, #0
 8004314:	d14b      	bne.n	80043ae <USBD_LL_DataOutStage+0xac>
  {
    pep = &pdev->ep_out[0];
 8004316:	68fb      	ldr	r3, [r7, #12]
 8004318:	f503 73aa 	add.w	r3, r3, #340	; 0x154
 800431c:	617b      	str	r3, [r7, #20]

    if (pdev->ep0_state == USBD_EP0_DATA_OUT)
 800431e:	68fb      	ldr	r3, [r7, #12]
 8004320:	f8d3 3294 	ldr.w	r3, [r3, #660]	; 0x294
 8004324:	2b03      	cmp	r3, #3
 8004326:	d134      	bne.n	8004392 <USBD_LL_DataOutStage+0x90>
    {
      if (pep->rem_length > pep->maxpacket)
 8004328:	697b      	ldr	r3, [r7, #20]
 800432a:	68da      	ldr	r2, [r3, #12]
 800432c:	697b      	ldr	r3, [r7, #20]
 800432e:	691b      	ldr	r3, [r3, #16]
 8004330:	429a      	cmp	r2, r3
 8004332:	d919      	bls.n	8004368 <USBD_LL_DataOutStage+0x66>
      {
        pep->rem_length -= pep->maxpacket;
 8004334:	697b      	ldr	r3, [r7, #20]
 8004336:	68da      	ldr	r2, [r3, #12]
 8004338:	697b      	ldr	r3, [r7, #20]
 800433a:	691b      	ldr	r3, [r3, #16]
 800433c:	1ad2      	subs	r2, r2, r3
 800433e:	697b      	ldr	r3, [r7, #20]
 8004340:	60da      	str	r2, [r3, #12]

        USBD_CtlContinueRx(pdev, pdata,
                           (uint16_t)MIN(pep->rem_length, pep->maxpacket));
 8004342:	697b      	ldr	r3, [r7, #20]
 8004344:	68da      	ldr	r2, [r3, #12]
 8004346:	697b      	ldr	r3, [r7, #20]
 8004348:	691b      	ldr	r3, [r3, #16]
        USBD_CtlContinueRx(pdev, pdata,
 800434a:	429a      	cmp	r2, r3
 800434c:	d203      	bcs.n	8004356 <USBD_LL_DataOutStage+0x54>
                           (uint16_t)MIN(pep->rem_length, pep->maxpacket));
 800434e:	697b      	ldr	r3, [r7, #20]
 8004350:	68db      	ldr	r3, [r3, #12]
        USBD_CtlContinueRx(pdev, pdata,
 8004352:	b29b      	uxth	r3, r3
 8004354:	e002      	b.n	800435c <USBD_LL_DataOutStage+0x5a>
                           (uint16_t)MIN(pep->rem_length, pep->maxpacket));
 8004356:	697b      	ldr	r3, [r7, #20]
 8004358:	691b      	ldr	r3, [r3, #16]
        USBD_CtlContinueRx(pdev, pdata,
 800435a:	b29b      	uxth	r3, r3
 800435c:	461a      	mov	r2, r3
 800435e:	6879      	ldr	r1, [r7, #4]
 8004360:	68f8      	ldr	r0, [r7, #12]
 8004362:	f000 ff7b 	bl	800525c <USBD_CtlContinueRx>
 8004366:	e038      	b.n	80043da <USBD_LL_DataOutStage+0xd8>
      }
      else
      {
        if ((pdev->pClass->EP0_RxReady != NULL) &&
 8004368:	68fb      	ldr	r3, [r7, #12]
 800436a:	f8d3 32b4 	ldr.w	r3, [r3, #692]	; 0x2b4
 800436e:	691b      	ldr	r3, [r3, #16]
 8004370:	2b00      	cmp	r3, #0
 8004372:	d00a      	beq.n	800438a <USBD_LL_DataOutStage+0x88>
            (pdev->dev_state == USBD_STATE_CONFIGURED))
 8004374:	68fb      	ldr	r3, [r7, #12]
 8004376:	f893 329c 	ldrb.w	r3, [r3, #668]	; 0x29c
        if ((pdev->pClass->EP0_RxReady != NULL) &&
 800437a:	2b03      	cmp	r3, #3
 800437c:	d105      	bne.n	800438a <USBD_LL_DataOutStage+0x88>
        {
          pdev->pClass->EP0_RxReady(pdev);
 800437e:	68fb      	ldr	r3, [r7, #12]
 8004380:	f8d3 32b4 	ldr.w	r3, [r3, #692]	; 0x2b4
 8004384:	691b      	ldr	r3, [r3, #16]
 8004386:	68f8      	ldr	r0, [r7, #12]
 8004388:	4798      	blx	r3
        }
        USBD_CtlSendStatus(pdev);
 800438a:	68f8      	ldr	r0, [r7, #12]
 800438c:	f000 ff78 	bl	8005280 <USBD_CtlSendStatus>
 8004390:	e023      	b.n	80043da <USBD_LL_DataOutStage+0xd8>
      }
    }
    else
    {
      if (pdev->ep0_state == USBD_EP0_STATUS_OUT)
 8004392:	68fb      	ldr	r3, [r7, #12]
 8004394:	f8d3 3294 	ldr.w	r3, [r3, #660]	; 0x294
 8004398:	2b05      	cmp	r3, #5
 800439a:	d11e      	bne.n	80043da <USBD_LL_DataOutStage+0xd8>
      {
        /*
         * STATUS PHASE completed, update ep0_state to idle
         */
        pdev->ep0_state = USBD_EP0_IDLE;
 800439c:	68fb      	ldr	r3, [r7, #12]
 800439e:	2200      	movs	r2, #0
 80043a0:	f8c3 2294 	str.w	r2, [r3, #660]	; 0x294
        USBD_LL_StallEP(pdev, 0U);
 80043a4:	2100      	movs	r1, #0
 80043a6:	68f8      	ldr	r0, [r7, #12]
 80043a8:	f001 fc9a 	bl	8005ce0 <USBD_LL_StallEP>
 80043ac:	e015      	b.n	80043da <USBD_LL_DataOutStage+0xd8>
      }
    }
  }
  else if ((pdev->pClass->DataOut != NULL) &&
 80043ae:	68fb      	ldr	r3, [r7, #12]
 80043b0:	f8d3 32b4 	ldr.w	r3, [r3, #692]	; 0x2b4
 80043b4:	699b      	ldr	r3, [r3, #24]
 80043b6:	2b00      	cmp	r3, #0
 80043b8:	d00d      	beq.n	80043d6 <USBD_LL_DataOutStage+0xd4>
           (pdev->dev_state == USBD_STATE_CONFIGURED))
 80043ba:	68fb      	ldr	r3, [r7, #12]
 80043bc:	f893 329c 	ldrb.w	r3, [r3, #668]	; 0x29c
  else if ((pdev->pClass->DataOut != NULL) &&
 80043c0:	2b03      	cmp	r3, #3
 80043c2:	d108      	bne.n	80043d6 <USBD_LL_DataOutStage+0xd4>
  {
    pdev->pClass->DataOut(pdev, epnum);
 80043c4:	68fb      	ldr	r3, [r7, #12]
 80043c6:	f8d3 32b4 	ldr.w	r3, [r3, #692]	; 0x2b4
 80043ca:	699b      	ldr	r3, [r3, #24]
 80043cc:	7afa      	ldrb	r2, [r7, #11]
 80043ce:	4611      	mov	r1, r2
 80043d0:	68f8      	ldr	r0, [r7, #12]
 80043d2:	4798      	blx	r3
 80043d4:	e001      	b.n	80043da <USBD_LL_DataOutStage+0xd8>
  }
  else
  {
    /* should never be in this condition */
    return USBD_FAIL;
 80043d6:	2302      	movs	r3, #2
 80043d8:	e000      	b.n	80043dc <USBD_LL_DataOutStage+0xda>
  }

  return USBD_OK;
 80043da:	2300      	movs	r3, #0
}
 80043dc:	4618      	mov	r0, r3
 80043de:	3718      	adds	r7, #24
 80043e0:	46bd      	mov	sp, r7
 80043e2:	bd80      	pop	{r7, pc}

080043e4 <USBD_LL_DataInStage>:
* @param  epnum: endpoint index
* @retval status
*/
USBD_StatusTypeDef USBD_LL_DataInStage(USBD_HandleTypeDef *pdev,
                                       uint8_t epnum, uint8_t *pdata)
{
 80043e4:	b580      	push	{r7, lr}
 80043e6:	b086      	sub	sp, #24
 80043e8:	af00      	add	r7, sp, #0
 80043ea:	60f8      	str	r0, [r7, #12]
 80043ec:	460b      	mov	r3, r1
 80043ee:	607a      	str	r2, [r7, #4]
 80043f0:	72fb      	strb	r3, [r7, #11]
  USBD_EndpointTypeDef *pep;

  if (epnum == 0U)
 80043f2:	7afb      	ldrb	r3, [r7, #11]
 80043f4:	2b00      	cmp	r3, #0
 80043f6:	d17f      	bne.n	80044f8 <USBD_LL_DataInStage+0x114>
  {
    pep = &pdev->ep_in[0];
 80043f8:	68fb      	ldr	r3, [r7, #12]
 80043fa:	3314      	adds	r3, #20
 80043fc:	617b      	str	r3, [r7, #20]

    if (pdev->ep0_state == USBD_EP0_DATA_IN)
 80043fe:	68fb      	ldr	r3, [r7, #12]
 8004400:	f8d3 3294 	ldr.w	r3, [r3, #660]	; 0x294
 8004404:	2b02      	cmp	r3, #2
 8004406:	d15c      	bne.n	80044c2 <USBD_LL_DataInStage+0xde>
    {
      if (pep->rem_length > pep->maxpacket)
 8004408:	697b      	ldr	r3, [r7, #20]
 800440a:	68da      	ldr	r2, [r3, #12]
 800440c:	697b      	ldr	r3, [r7, #20]
 800440e:	691b      	ldr	r3, [r3, #16]
 8004410:	429a      	cmp	r2, r3
 8004412:	d915      	bls.n	8004440 <USBD_LL_DataInStage+0x5c>
      {
        pep->rem_length -= pep->maxpacket;
 8004414:	697b      	ldr	r3, [r7, #20]
 8004416:	68da      	ldr	r2, [r3, #12]
 8004418:	697b      	ldr	r3, [r7, #20]
 800441a:	691b      	ldr	r3, [r3, #16]
 800441c:	1ad2      	subs	r2, r2, r3
 800441e:	697b      	ldr	r3, [r7, #20]
 8004420:	60da      	str	r2, [r3, #12]

        USBD_CtlContinueSendData(pdev, pdata, (uint16_t)pep->rem_length);
 8004422:	697b      	ldr	r3, [r7, #20]
 8004424:	68db      	ldr	r3, [r3, #12]
 8004426:	b29b      	uxth	r3, r3
 8004428:	461a      	mov	r2, r3
 800442a:	6879      	ldr	r1, [r7, #4]
 800442c:	68f8      	ldr	r0, [r7, #12]
 800442e:	f000 fee5 	bl	80051fc <USBD_CtlContinueSendData>

        /* Prepare endpoint for premature end of transfer */
        USBD_LL_PrepareReceive(pdev, 0U, NULL, 0U);
 8004432:	2300      	movs	r3, #0
 8004434:	2200      	movs	r2, #0
 8004436:	2100      	movs	r1, #0
 8004438:	68f8      	ldr	r0, [r7, #12]
 800443a:	f001 fcf7 	bl	8005e2c <USBD_LL_PrepareReceive>
 800443e:	e04e      	b.n	80044de <USBD_LL_DataInStage+0xfa>
      }
      else
      {
        /* last packet is MPS multiple, so send ZLP packet */
        if ((pep->total_length % pep->maxpacket == 0U) &&
 8004440:	697b      	ldr	r3, [r7, #20]
 8004442:	689b      	ldr	r3, [r3, #8]
 8004444:	697a      	ldr	r2, [r7, #20]
 8004446:	6912      	ldr	r2, [r2, #16]
 8004448:	fbb3 f1f2 	udiv	r1, r3, r2
 800444c:	fb02 f201 	mul.w	r2, r2, r1
 8004450:	1a9b      	subs	r3, r3, r2
 8004452:	2b00      	cmp	r3, #0
 8004454:	d11c      	bne.n	8004490 <USBD_LL_DataInStage+0xac>
            (pep->total_length >= pep->maxpacket) &&
 8004456:	697b      	ldr	r3, [r7, #20]
 8004458:	689a      	ldr	r2, [r3, #8]
 800445a:	697b      	ldr	r3, [r7, #20]
 800445c:	691b      	ldr	r3, [r3, #16]
        if ((pep->total_length % pep->maxpacket == 0U) &&
 800445e:	429a      	cmp	r2, r3
 8004460:	d316      	bcc.n	8004490 <USBD_LL_DataInStage+0xac>
            (pep->total_length < pdev->ep0_data_len))
 8004462:	697b      	ldr	r3, [r7, #20]
 8004464:	689a      	ldr	r2, [r3, #8]
 8004466:	68fb      	ldr	r3, [r7, #12]
 8004468:	f8d3 3298 	ldr.w	r3, [r3, #664]	; 0x298
            (pep->total_length >= pep->maxpacket) &&
 800446c:	429a      	cmp	r2, r3
 800446e:	d20f      	bcs.n	8004490 <USBD_LL_DataInStage+0xac>
        {
          USBD_CtlContinueSendData(pdev, NULL, 0U);
 8004470:	2200      	movs	r2, #0
 8004472:	2100      	movs	r1, #0
 8004474:	68f8      	ldr	r0, [r7, #12]
 8004476:	f000 fec1 	bl	80051fc <USBD_CtlContinueSendData>
          pdev->ep0_data_len = 0U;
 800447a:	68fb      	ldr	r3, [r7, #12]
 800447c:	2200      	movs	r2, #0
 800447e:	f8c3 2298 	str.w	r2, [r3, #664]	; 0x298

          /* Prepare endpoint for premature end of transfer */
          USBD_LL_PrepareReceive(pdev, 0U, NULL, 0U);
 8004482:	2300      	movs	r3, #0
 8004484:	2200      	movs	r2, #0
 8004486:	2100      	movs	r1, #0
 8004488:	68f8      	ldr	r0, [r7, #12]
 800448a:	f001 fccf 	bl	8005e2c <USBD_LL_PrepareReceive>
 800448e:	e026      	b.n	80044de <USBD_LL_DataInStage+0xfa>
        }
        else
        {
          if ((pdev->pClass->EP0_TxSent != NULL) &&
 8004490:	68fb      	ldr	r3, [r7, #12]
 8004492:	f8d3 32b4 	ldr.w	r3, [r3, #692]	; 0x2b4
 8004496:	68db      	ldr	r3, [r3, #12]
 8004498:	2b00      	cmp	r3, #0
 800449a:	d00a      	beq.n	80044b2 <USBD_LL_DataInStage+0xce>
              (pdev->dev_state == USBD_STATE_CONFIGURED))
 800449c:	68fb      	ldr	r3, [r7, #12]
 800449e:	f893 329c 	ldrb.w	r3, [r3, #668]	; 0x29c
          if ((pdev->pClass->EP0_TxSent != NULL) &&
 80044a2:	2b03      	cmp	r3, #3
 80044a4:	d105      	bne.n	80044b2 <USBD_LL_DataInStage+0xce>
          {
            pdev->pClass->EP0_TxSent(pdev);
 80044a6:	68fb      	ldr	r3, [r7, #12]
 80044a8:	f8d3 32b4 	ldr.w	r3, [r3, #692]	; 0x2b4
 80044ac:	68db      	ldr	r3, [r3, #12]
 80044ae:	68f8      	ldr	r0, [r7, #12]
 80044b0:	4798      	blx	r3
          }
          USBD_LL_StallEP(pdev, 0x80U);
 80044b2:	2180      	movs	r1, #128	; 0x80
 80044b4:	68f8      	ldr	r0, [r7, #12]
 80044b6:	f001 fc13 	bl	8005ce0 <USBD_LL_StallEP>
          USBD_CtlReceiveStatus(pdev);
 80044ba:	68f8      	ldr	r0, [r7, #12]
 80044bc:	f000 fef3 	bl	80052a6 <USBD_CtlReceiveStatus>
 80044c0:	e00d      	b.n	80044de <USBD_LL_DataInStage+0xfa>
        }
      }
    }
    else
    {
      if ((pdev->ep0_state == USBD_EP0_STATUS_IN) ||
 80044c2:	68fb      	ldr	r3, [r7, #12]
 80044c4:	f8d3 3294 	ldr.w	r3, [r3, #660]	; 0x294
 80044c8:	2b04      	cmp	r3, #4
 80044ca:	d004      	beq.n	80044d6 <USBD_LL_DataInStage+0xf2>
          (pdev->ep0_state == USBD_EP0_IDLE))
 80044cc:	68fb      	ldr	r3, [r7, #12]
 80044ce:	f8d3 3294 	ldr.w	r3, [r3, #660]	; 0x294
      if ((pdev->ep0_state == USBD_EP0_STATUS_IN) ||
 80044d2:	2b00      	cmp	r3, #0
 80044d4:	d103      	bne.n	80044de <USBD_LL_DataInStage+0xfa>
      {
        USBD_LL_StallEP(pdev, 0x80U);
 80044d6:	2180      	movs	r1, #128	; 0x80
 80044d8:	68f8      	ldr	r0, [r7, #12]
 80044da:	f001 fc01 	bl	8005ce0 <USBD_LL_StallEP>
      }
    }

    if (pdev->dev_test_mode == 1U)
 80044de:	68fb      	ldr	r3, [r7, #12]
 80044e0:	f893 32a0 	ldrb.w	r3, [r3, #672]	; 0x2a0
 80044e4:	2b01      	cmp	r3, #1
 80044e6:	d11d      	bne.n	8004524 <USBD_LL_DataInStage+0x140>
    {
      USBD_RunTestMode(pdev);
 80044e8:	68f8      	ldr	r0, [r7, #12]
 80044ea:	f7ff fe82 	bl	80041f2 <USBD_RunTestMode>
      pdev->dev_test_mode = 0U;
 80044ee:	68fb      	ldr	r3, [r7, #12]
 80044f0:	2200      	movs	r2, #0
 80044f2:	f883 22a0 	strb.w	r2, [r3, #672]	; 0x2a0
 80044f6:	e015      	b.n	8004524 <USBD_LL_DataInStage+0x140>
    }
  }
  else if ((pdev->pClass->DataIn != NULL) &&
 80044f8:	68fb      	ldr	r3, [r7, #12]
 80044fa:	f8d3 32b4 	ldr.w	r3, [r3, #692]	; 0x2b4
 80044fe:	695b      	ldr	r3, [r3, #20]
 8004500:	2b00      	cmp	r3, #0
 8004502:	d00d      	beq.n	8004520 <USBD_LL_DataInStage+0x13c>
           (pdev->dev_state == USBD_STATE_CONFIGURED))
 8004504:	68fb      	ldr	r3, [r7, #12]
 8004506:	f893 329c 	ldrb.w	r3, [r3, #668]	; 0x29c
  else if ((pdev->pClass->DataIn != NULL) &&
 800450a:	2b03      	cmp	r3, #3
 800450c:	d108      	bne.n	8004520 <USBD_LL_DataInStage+0x13c>
  {
    pdev->pClass->DataIn(pdev, epnum);
 800450e:	68fb      	ldr	r3, [r7, #12]
 8004510:	f8d3 32b4 	ldr.w	r3, [r3, #692]	; 0x2b4
 8004514:	695b      	ldr	r3, [r3, #20]
 8004516:	7afa      	ldrb	r2, [r7, #11]
 8004518:	4611      	mov	r1, r2
 800451a:	68f8      	ldr	r0, [r7, #12]
 800451c:	4798      	blx	r3
 800451e:	e001      	b.n	8004524 <USBD_LL_DataInStage+0x140>
  }
  else
  {
    /* should never be in this condition */
    return USBD_FAIL;
 8004520:	2302      	movs	r3, #2
 8004522:	e000      	b.n	8004526 <USBD_LL_DataInStage+0x142>
  }

  return USBD_OK;
 8004524:	2300      	movs	r3, #0
}
 8004526:	4618      	mov	r0, r3
 8004528:	3718      	adds	r7, #24
 800452a:	46bd      	mov	sp, r7
 800452c:	bd80      	pop	{r7, pc}

0800452e <USBD_LL_Reset>:
* @param  pdev: device instance
* @retval status
*/

USBD_StatusTypeDef USBD_LL_Reset(USBD_HandleTypeDef *pdev)
{
 800452e:	b580      	push	{r7, lr}
 8004530:	b082      	sub	sp, #8
 8004532:	af00      	add	r7, sp, #0
 8004534:	6078      	str	r0, [r7, #4]
  /* Open EP0 OUT */
  USBD_LL_OpenEP(pdev, 0x00U, USBD_EP_TYPE_CTRL, USB_MAX_EP0_SIZE);
 8004536:	2340      	movs	r3, #64	; 0x40
 8004538:	2200      	movs	r2, #0
 800453a:	2100      	movs	r1, #0
 800453c:	6878      	ldr	r0, [r7, #4]
 800453e:	f001 fb8a 	bl	8005c56 <USBD_LL_OpenEP>
  pdev->ep_out[0x00U & 0xFU].is_used = 1U;
 8004542:	687b      	ldr	r3, [r7, #4]
 8004544:	2201      	movs	r2, #1
 8004546:	f8c3 2158 	str.w	r2, [r3, #344]	; 0x158

  pdev->ep_out[0].maxpacket = USB_MAX_EP0_SIZE;
 800454a:	687b      	ldr	r3, [r7, #4]
 800454c:	2240      	movs	r2, #64	; 0x40
 800454e:	f8c3 2164 	str.w	r2, [r3, #356]	; 0x164

  /* Open EP0 IN */
  USBD_LL_OpenEP(pdev, 0x80U, USBD_EP_TYPE_CTRL, USB_MAX_EP0_SIZE);
 8004552:	2340      	movs	r3, #64	; 0x40
 8004554:	2200      	movs	r2, #0
 8004556:	2180      	movs	r1, #128	; 0x80
 8004558:	6878      	ldr	r0, [r7, #4]
 800455a:	f001 fb7c 	bl	8005c56 <USBD_LL_OpenEP>
  pdev->ep_in[0x80U & 0xFU].is_used = 1U;
 800455e:	687b      	ldr	r3, [r7, #4]
 8004560:	2201      	movs	r2, #1
 8004562:	619a      	str	r2, [r3, #24]

  pdev->ep_in[0].maxpacket = USB_MAX_EP0_SIZE;
 8004564:	687b      	ldr	r3, [r7, #4]
 8004566:	2240      	movs	r2, #64	; 0x40
 8004568:	625a      	str	r2, [r3, #36]	; 0x24

  /* Upon Reset call user call back */
  pdev->dev_state = USBD_STATE_DEFAULT;
 800456a:	687b      	ldr	r3, [r7, #4]
 800456c:	2201      	movs	r2, #1
 800456e:	f883 229c 	strb.w	r2, [r3, #668]	; 0x29c
  pdev->ep0_state = USBD_EP0_IDLE;
 8004572:	687b      	ldr	r3, [r7, #4]
 8004574:	2200      	movs	r2, #0
 8004576:	f8c3 2294 	str.w	r2, [r3, #660]	; 0x294
  pdev->dev_config = 0U;
 800457a:	687b      	ldr	r3, [r7, #4]
 800457c:	2200      	movs	r2, #0
 800457e:	605a      	str	r2, [r3, #4]
  pdev->dev_remote_wakeup = 0U;
 8004580:	687b      	ldr	r3, [r7, #4]
 8004582:	2200      	movs	r2, #0
 8004584:	f8c3 22a4 	str.w	r2, [r3, #676]	; 0x2a4

  if (pdev->pClassData)
 8004588:	687b      	ldr	r3, [r7, #4]
 800458a:	f8d3 32b8 	ldr.w	r3, [r3, #696]	; 0x2b8
 800458e:	2b00      	cmp	r3, #0
 8004590:	d009      	beq.n	80045a6 <USBD_LL_Reset+0x78>
  {
    pdev->pClass->DeInit(pdev, (uint8_t)pdev->dev_config);
 8004592:	687b      	ldr	r3, [r7, #4]
 8004594:	f8d3 32b4 	ldr.w	r3, [r3, #692]	; 0x2b4
 8004598:	685b      	ldr	r3, [r3, #4]
 800459a:	687a      	ldr	r2, [r7, #4]
 800459c:	6852      	ldr	r2, [r2, #4]
 800459e:	b2d2      	uxtb	r2, r2
 80045a0:	4611      	mov	r1, r2
 80045a2:	6878      	ldr	r0, [r7, #4]
 80045a4:	4798      	blx	r3
  }

  return USBD_OK;
 80045a6:	2300      	movs	r3, #0
}
 80045a8:	4618      	mov	r0, r3
 80045aa:	3708      	adds	r7, #8
 80045ac:	46bd      	mov	sp, r7
 80045ae:	bd80      	pop	{r7, pc}

080045b0 <USBD_LL_SetSpeed>:
* @param  pdev: device instance
* @retval status
*/
USBD_StatusTypeDef USBD_LL_SetSpeed(USBD_HandleTypeDef *pdev,
                                    USBD_SpeedTypeDef speed)
{
 80045b0:	b480      	push	{r7}
 80045b2:	b083      	sub	sp, #12
 80045b4:	af00      	add	r7, sp, #0
 80045b6:	6078      	str	r0, [r7, #4]
 80045b8:	460b      	mov	r3, r1
 80045ba:	70fb      	strb	r3, [r7, #3]
  pdev->dev_speed = speed;
 80045bc:	687b      	ldr	r3, [r7, #4]
 80045be:	78fa      	ldrb	r2, [r7, #3]
 80045c0:	741a      	strb	r2, [r3, #16]

  return USBD_OK;
 80045c2:	2300      	movs	r3, #0
}
 80045c4:	4618      	mov	r0, r3
 80045c6:	370c      	adds	r7, #12
 80045c8:	46bd      	mov	sp, r7
 80045ca:	f85d 7b04 	ldr.w	r7, [sp], #4
 80045ce:	4770      	bx	lr

080045d0 <USBD_LL_Suspend>:
* @param  pdev: device instance
* @retval status
*/

USBD_StatusTypeDef USBD_LL_Suspend(USBD_HandleTypeDef *pdev)
{
 80045d0:	b480      	push	{r7}
 80045d2:	b083      	sub	sp, #12
 80045d4:	af00      	add	r7, sp, #0
 80045d6:	6078      	str	r0, [r7, #4]
  pdev->dev_old_state =  pdev->dev_state;
 80045d8:	687b      	ldr	r3, [r7, #4]
 80045da:	f893 229c 	ldrb.w	r2, [r3, #668]	; 0x29c
 80045de:	687b      	ldr	r3, [r7, #4]
 80045e0:	f883 229d 	strb.w	r2, [r3, #669]	; 0x29d
  pdev->dev_state  = USBD_STATE_SUSPENDED;
 80045e4:	687b      	ldr	r3, [r7, #4]
 80045e6:	2204      	movs	r2, #4
 80045e8:	f883 229c 	strb.w	r2, [r3, #668]	; 0x29c

  return USBD_OK;
 80045ec:	2300      	movs	r3, #0
}
 80045ee:	4618      	mov	r0, r3
 80045f0:	370c      	adds	r7, #12
 80045f2:	46bd      	mov	sp, r7
 80045f4:	f85d 7b04 	ldr.w	r7, [sp], #4
 80045f8:	4770      	bx	lr

080045fa <USBD_LL_Resume>:
* @param  pdev: device instance
* @retval status
*/

USBD_StatusTypeDef USBD_LL_Resume(USBD_HandleTypeDef *pdev)
{
 80045fa:	b480      	push	{r7}
 80045fc:	b083      	sub	sp, #12
 80045fe:	af00      	add	r7, sp, #0
 8004600:	6078      	str	r0, [r7, #4]
  if (pdev->dev_state == USBD_STATE_SUSPENDED)
 8004602:	687b      	ldr	r3, [r7, #4]
 8004604:	f893 329c 	ldrb.w	r3, [r3, #668]	; 0x29c
 8004608:	2b04      	cmp	r3, #4
 800460a:	d105      	bne.n	8004618 <USBD_LL_Resume+0x1e>
  {
    pdev->dev_state = pdev->dev_old_state;
 800460c:	687b      	ldr	r3, [r7, #4]
 800460e:	f893 229d 	ldrb.w	r2, [r3, #669]	; 0x29d
 8004612:	687b      	ldr	r3, [r7, #4]
 8004614:	f883 229c 	strb.w	r2, [r3, #668]	; 0x29c
  }

  return USBD_OK;
 8004618:	2300      	movs	r3, #0
}
 800461a:	4618      	mov	r0, r3
 800461c:	370c      	adds	r7, #12
 800461e:	46bd      	mov	sp, r7
 8004620:	f85d 7b04 	ldr.w	r7, [sp], #4
 8004624:	4770      	bx	lr

08004626 <USBD_LL_SOF>:
* @param  pdev: device instance
* @retval status
*/

USBD_StatusTypeDef USBD_LL_SOF(USBD_HandleTypeDef *pdev)
{
 8004626:	b580      	push	{r7, lr}
 8004628:	b082      	sub	sp, #8
 800462a:	af00      	add	r7, sp, #0
 800462c:	6078      	str	r0, [r7, #4]
  if (pdev->dev_state == USBD_STATE_CONFIGURED)
 800462e:	687b      	ldr	r3, [r7, #4]
 8004630:	f893 329c 	ldrb.w	r3, [r3, #668]	; 0x29c
 8004634:	2b03      	cmp	r3, #3
 8004636:	d10b      	bne.n	8004650 <USBD_LL_SOF+0x2a>
  {
    if (pdev->pClass->SOF != NULL)
 8004638:	687b      	ldr	r3, [r7, #4]
 800463a:	f8d3 32b4 	ldr.w	r3, [r3, #692]	; 0x2b4
 800463e:	69db      	ldr	r3, [r3, #28]
 8004640:	2b00      	cmp	r3, #0
 8004642:	d005      	beq.n	8004650 <USBD_LL_SOF+0x2a>
    {
      pdev->pClass->SOF(pdev);
 8004644:	687b      	ldr	r3, [r7, #4]
 8004646:	f8d3 32b4 	ldr.w	r3, [r3, #692]	; 0x2b4
 800464a:	69db      	ldr	r3, [r3, #28]
 800464c:	6878      	ldr	r0, [r7, #4]
 800464e:	4798      	blx	r3
    }
  }

  return USBD_OK;
 8004650:	2300      	movs	r3, #0
}
 8004652:	4618      	mov	r0, r3
 8004654:	3708      	adds	r7, #8
 8004656:	46bd      	mov	sp, r7
 8004658:	bd80      	pop	{r7, pc}
	...

0800465c <USBD_StdDevReq>:
* @param  req: usb request
* @retval status
*/
USBD_StatusTypeDef  USBD_StdDevReq(USBD_HandleTypeDef *pdev,
                                   USBD_SetupReqTypedef *req)
{
 800465c:	b580      	push	{r7, lr}
 800465e:	b084      	sub	sp, #16
 8004660:	af00      	add	r7, sp, #0
 8004662:	6078      	str	r0, [r7, #4]
 8004664:	6039      	str	r1, [r7, #0]
  USBD_StatusTypeDef ret = USBD_OK;
 8004666:	2300      	movs	r3, #0
 8004668:	73fb      	strb	r3, [r7, #15]

  switch (req->bmRequest & USB_REQ_TYPE_MASK)
 800466a:	683b      	ldr	r3, [r7, #0]
 800466c:	781b      	ldrb	r3, [r3, #0]
 800466e:	f003 0360 	and.w	r3, r3, #96	; 0x60
 8004672:	2b20      	cmp	r3, #32
 8004674:	d004      	beq.n	8004680 <USBD_StdDevReq+0x24>
 8004676:	2b40      	cmp	r3, #64	; 0x40
 8004678:	d002      	beq.n	8004680 <USBD_StdDevReq+0x24>
 800467a:	2b00      	cmp	r3, #0
 800467c:	d008      	beq.n	8004690 <USBD_StdDevReq+0x34>
 800467e:	e04c      	b.n	800471a <USBD_StdDevReq+0xbe>
  {
    case USB_REQ_TYPE_CLASS:
    case USB_REQ_TYPE_VENDOR:
      pdev->pClass->Setup(pdev, req);
 8004680:	687b      	ldr	r3, [r7, #4]
 8004682:	f8d3 32b4 	ldr.w	r3, [r3, #692]	; 0x2b4
 8004686:	689b      	ldr	r3, [r3, #8]
 8004688:	6839      	ldr	r1, [r7, #0]
 800468a:	6878      	ldr	r0, [r7, #4]
 800468c:	4798      	blx	r3
      break;
 800468e:	e049      	b.n	8004724 <USBD_StdDevReq+0xc8>

    case USB_REQ_TYPE_STANDARD:
      switch (req->bRequest)
 8004690:	683b      	ldr	r3, [r7, #0]
 8004692:	785b      	ldrb	r3, [r3, #1]
 8004694:	2b09      	cmp	r3, #9
 8004696:	d83a      	bhi.n	800470e <USBD_StdDevReq+0xb2>
 8004698:	a201      	add	r2, pc, #4	; (adr r2, 80046a0 <USBD_StdDevReq+0x44>)
 800469a:	f852 f023 	ldr.w	pc, [r2, r3, lsl #2]
 800469e:	bf00      	nop
 80046a0:	080046f1 	.word	0x080046f1
 80046a4:	08004705 	.word	0x08004705
 80046a8:	0800470f 	.word	0x0800470f
 80046ac:	080046fb 	.word	0x080046fb
 80046b0:	0800470f 	.word	0x0800470f
 80046b4:	080046d3 	.word	0x080046d3
 80046b8:	080046c9 	.word	0x080046c9
 80046bc:	0800470f 	.word	0x0800470f
 80046c0:	080046e7 	.word	0x080046e7
 80046c4:	080046dd 	.word	0x080046dd
      {
        case USB_REQ_GET_DESCRIPTOR:
          USBD_GetDescriptor(pdev, req);
 80046c8:	6839      	ldr	r1, [r7, #0]
 80046ca:	6878      	ldr	r0, [r7, #4]
 80046cc:	f000 f9d4 	bl	8004a78 <USBD_GetDescriptor>
          break;
 80046d0:	e022      	b.n	8004718 <USBD_StdDevReq+0xbc>

        case USB_REQ_SET_ADDRESS:
          USBD_SetAddress(pdev, req);
 80046d2:	6839      	ldr	r1, [r7, #0]
 80046d4:	6878      	ldr	r0, [r7, #4]
 80046d6:	f000 fb61 	bl	8004d9c <USBD_SetAddress>
          break;
 80046da:	e01d      	b.n	8004718 <USBD_StdDevReq+0xbc>

        case USB_REQ_SET_CONFIGURATION:
          USBD_SetConfig(pdev, req);
 80046dc:	6839      	ldr	r1, [r7, #0]
 80046de:	6878      	ldr	r0, [r7, #4]
 80046e0:	f000 fb9e 	bl	8004e20 <USBD_SetConfig>
          break;
 80046e4:	e018      	b.n	8004718 <USBD_StdDevReq+0xbc>

        case USB_REQ_GET_CONFIGURATION:
          USBD_GetConfig(pdev, req);
 80046e6:	6839      	ldr	r1, [r7, #0]
 80046e8:	6878      	ldr	r0, [r7, #4]
 80046ea:	f000 fc27 	bl	8004f3c <USBD_GetConfig>
          break;
 80046ee:	e013      	b.n	8004718 <USBD_StdDevReq+0xbc>

        case USB_REQ_GET_STATUS:
          USBD_GetStatus(pdev, req);
 80046f0:	6839      	ldr	r1, [r7, #0]
 80046f2:	6878      	ldr	r0, [r7, #4]
 80046f4:	f000 fc56 	bl	8004fa4 <USBD_GetStatus>
          break;
 80046f8:	e00e      	b.n	8004718 <USBD_StdDevReq+0xbc>

        case USB_REQ_SET_FEATURE:
          USBD_SetFeature(pdev, req);
 80046fa:	6839      	ldr	r1, [r7, #0]
 80046fc:	6878      	ldr	r0, [r7, #4]
 80046fe:	f000 fc84 	bl	800500a <USBD_SetFeature>
          break;
 8004702:	e009      	b.n	8004718 <USBD_StdDevReq+0xbc>

        case USB_REQ_CLEAR_FEATURE:
          USBD_ClrFeature(pdev, req);
 8004704:	6839      	ldr	r1, [r7, #0]
 8004706:	6878      	ldr	r0, [r7, #4]
 8004708:	f000 fc93 	bl	8005032 <USBD_ClrFeature>
          break;
 800470c:	e004      	b.n	8004718 <USBD_StdDevReq+0xbc>

        default:
          USBD_CtlError(pdev, req);
 800470e:	6839      	ldr	r1, [r7, #0]
 8004710:	6878      	ldr	r0, [r7, #4]
 8004712:	f000 fcec 	bl	80050ee <USBD_CtlError>
          break;
 8004716:	bf00      	nop
      }
      break;
 8004718:	e004      	b.n	8004724 <USBD_StdDevReq+0xc8>

    default:
      USBD_CtlError(pdev, req);
 800471a:	6839      	ldr	r1, [r7, #0]
 800471c:	6878      	ldr	r0, [r7, #4]
 800471e:	f000 fce6 	bl	80050ee <USBD_CtlError>
      break;
 8004722:	bf00      	nop
  }

  return ret;
 8004724:	7bfb      	ldrb	r3, [r7, #15]
}
 8004726:	4618      	mov	r0, r3
 8004728:	3710      	adds	r7, #16
 800472a:	46bd      	mov	sp, r7
 800472c:	bd80      	pop	{r7, pc}
 800472e:	bf00      	nop

08004730 <USBD_StdItfReq>:
* @param  req: usb request
* @retval status
*/
USBD_StatusTypeDef  USBD_StdItfReq(USBD_HandleTypeDef *pdev,
                                   USBD_SetupReqTypedef  *req)
{
 8004730:	b580      	push	{r7, lr}
 8004732:	b084      	sub	sp, #16
 8004734:	af00      	add	r7, sp, #0
 8004736:	6078      	str	r0, [r7, #4]
 8004738:	6039      	str	r1, [r7, #0]
  USBD_StatusTypeDef ret = USBD_OK;
 800473a:	2300      	movs	r3, #0
 800473c:	73fb      	strb	r3, [r7, #15]

  switch (req->bmRequest & USB_REQ_TYPE_MASK)
 800473e:	683b      	ldr	r3, [r7, #0]
 8004740:	781b      	ldrb	r3, [r3, #0]
 8004742:	f003 0360 	and.w	r3, r3, #96	; 0x60
 8004746:	2b20      	cmp	r3, #32
 8004748:	d003      	beq.n	8004752 <USBD_StdItfReq+0x22>
 800474a:	2b40      	cmp	r3, #64	; 0x40
 800474c:	d001      	beq.n	8004752 <USBD_StdItfReq+0x22>
 800474e:	2b00      	cmp	r3, #0
 8004750:	d12a      	bne.n	80047a8 <USBD_StdItfReq+0x78>
  {
    case USB_REQ_TYPE_CLASS:
    case USB_REQ_TYPE_VENDOR:
    case USB_REQ_TYPE_STANDARD:
      switch (pdev->dev_state)
 8004752:	687b      	ldr	r3, [r7, #4]
 8004754:	f893 329c 	ldrb.w	r3, [r3, #668]	; 0x29c
 8004758:	3b01      	subs	r3, #1
 800475a:	2b02      	cmp	r3, #2
 800475c:	d81d      	bhi.n	800479a <USBD_StdItfReq+0x6a>
      {
        case USBD_STATE_DEFAULT:
        case USBD_STATE_ADDRESSED:
        case USBD_STATE_CONFIGURED:

          if (LOBYTE(req->wIndex) <= USBD_MAX_NUM_INTERFACES)
 800475e:	683b      	ldr	r3, [r7, #0]
 8004760:	889b      	ldrh	r3, [r3, #4]
 8004762:	b2db      	uxtb	r3, r3
 8004764:	2b01      	cmp	r3, #1
 8004766:	d813      	bhi.n	8004790 <USBD_StdItfReq+0x60>
          {
            ret = (USBD_StatusTypeDef)pdev->pClass->Setup(pdev, req);
 8004768:	687b      	ldr	r3, [r7, #4]
 800476a:	f8d3 32b4 	ldr.w	r3, [r3, #692]	; 0x2b4
 800476e:	689b      	ldr	r3, [r3, #8]
 8004770:	6839      	ldr	r1, [r7, #0]
 8004772:	6878      	ldr	r0, [r7, #4]
 8004774:	4798      	blx	r3
 8004776:	4603      	mov	r3, r0
 8004778:	73fb      	strb	r3, [r7, #15]

            if ((req->wLength == 0U) && (ret == USBD_OK))
 800477a:	683b      	ldr	r3, [r7, #0]
 800477c:	88db      	ldrh	r3, [r3, #6]
 800477e:	2b00      	cmp	r3, #0
 8004780:	d110      	bne.n	80047a4 <USBD_StdItfReq+0x74>
 8004782:	7bfb      	ldrb	r3, [r7, #15]
 8004784:	2b00      	cmp	r3, #0
 8004786:	d10d      	bne.n	80047a4 <USBD_StdItfReq+0x74>
            {
              USBD_CtlSendStatus(pdev);
 8004788:	6878      	ldr	r0, [r7, #4]
 800478a:	f000 fd79 	bl	8005280 <USBD_CtlSendStatus>
          }
          else
          {
            USBD_CtlError(pdev, req);
          }
          break;
 800478e:	e009      	b.n	80047a4 <USBD_StdItfReq+0x74>
            USBD_CtlError(pdev, req);
 8004790:	6839      	ldr	r1, [r7, #0]
 8004792:	6878      	ldr	r0, [r7, #4]
 8004794:	f000 fcab 	bl	80050ee <USBD_CtlError>
          break;
 8004798:	e004      	b.n	80047a4 <USBD_StdItfReq+0x74>

        default:
          USBD_CtlError(pdev, req);
 800479a:	6839      	ldr	r1, [r7, #0]
 800479c:	6878      	ldr	r0, [r7, #4]
 800479e:	f000 fca6 	bl	80050ee <USBD_CtlError>
          break;
 80047a2:	e000      	b.n	80047a6 <USBD_StdItfReq+0x76>
          break;
 80047a4:	bf00      	nop
      }
      break;
 80047a6:	e004      	b.n	80047b2 <USBD_StdItfReq+0x82>

    default:
      USBD_CtlError(pdev, req);
 80047a8:	6839      	ldr	r1, [r7, #0]
 80047aa:	6878      	ldr	r0, [r7, #4]
 80047ac:	f000 fc9f 	bl	80050ee <USBD_CtlError>
      break;
 80047b0:	bf00      	nop
  }

  return USBD_OK;
 80047b2:	2300      	movs	r3, #0
}
 80047b4:	4618      	mov	r0, r3
 80047b6:	3710      	adds	r7, #16
 80047b8:	46bd      	mov	sp, r7
 80047ba:	bd80      	pop	{r7, pc}

080047bc <USBD_StdEPReq>:
* @param  req: usb request
* @retval status
*/
USBD_StatusTypeDef  USBD_StdEPReq(USBD_HandleTypeDef *pdev,
                                  USBD_SetupReqTypedef  *req)
{
 80047bc:	b580      	push	{r7, lr}
 80047be:	b084      	sub	sp, #16
 80047c0:	af00      	add	r7, sp, #0
 80047c2:	6078      	str	r0, [r7, #4]
 80047c4:	6039      	str	r1, [r7, #0]
  USBD_EndpointTypeDef *pep;
  uint8_t   ep_addr;
  USBD_StatusTypeDef ret = USBD_OK;
 80047c6:	2300      	movs	r3, #0
 80047c8:	73fb      	strb	r3, [r7, #15]
  ep_addr  = LOBYTE(req->wIndex);
 80047ca:	683b      	ldr	r3, [r7, #0]
 80047cc:	889b      	ldrh	r3, [r3, #4]
 80047ce:	73bb      	strb	r3, [r7, #14]

  switch (req->bmRequest & USB_REQ_TYPE_MASK)
 80047d0:	683b      	ldr	r3, [r7, #0]
 80047d2:	781b      	ldrb	r3, [r3, #0]
 80047d4:	f003 0360 	and.w	r3, r3, #96	; 0x60
 80047d8:	2b20      	cmp	r3, #32
 80047da:	d004      	beq.n	80047e6 <USBD_StdEPReq+0x2a>
 80047dc:	2b40      	cmp	r3, #64	; 0x40
 80047de:	d002      	beq.n	80047e6 <USBD_StdEPReq+0x2a>
 80047e0:	2b00      	cmp	r3, #0
 80047e2:	d008      	beq.n	80047f6 <USBD_StdEPReq+0x3a>
 80047e4:	e13d      	b.n	8004a62 <USBD_StdEPReq+0x2a6>
  {
    case USB_REQ_TYPE_CLASS:
    case USB_REQ_TYPE_VENDOR:
      pdev->pClass->Setup(pdev, req);
 80047e6:	687b      	ldr	r3, [r7, #4]
 80047e8:	f8d3 32b4 	ldr.w	r3, [r3, #692]	; 0x2b4
 80047ec:	689b      	ldr	r3, [r3, #8]
 80047ee:	6839      	ldr	r1, [r7, #0]
 80047f0:	6878      	ldr	r0, [r7, #4]
 80047f2:	4798      	blx	r3
      break;
 80047f4:	e13a      	b.n	8004a6c <USBD_StdEPReq+0x2b0>

    case USB_REQ_TYPE_STANDARD:
      /* Check if it is a class request */
      if ((req->bmRequest & 0x60U) == 0x20U)
 80047f6:	683b      	ldr	r3, [r7, #0]
 80047f8:	781b      	ldrb	r3, [r3, #0]
 80047fa:	f003 0360 	and.w	r3, r3, #96	; 0x60
 80047fe:	2b20      	cmp	r3, #32
 8004800:	d10a      	bne.n	8004818 <USBD_StdEPReq+0x5c>
      {
        ret = (USBD_StatusTypeDef)pdev->pClass->Setup(pdev, req);
 8004802:	687b      	ldr	r3, [r7, #4]
 8004804:	f8d3 32b4 	ldr.w	r3, [r3, #692]	; 0x2b4
 8004808:	689b      	ldr	r3, [r3, #8]
 800480a:	6839      	ldr	r1, [r7, #0]
 800480c:	6878      	ldr	r0, [r7, #4]
 800480e:	4798      	blx	r3
 8004810:	4603      	mov	r3, r0
 8004812:	73fb      	strb	r3, [r7, #15]

        return ret;
 8004814:	7bfb      	ldrb	r3, [r7, #15]
 8004816:	e12a      	b.n	8004a6e <USBD_StdEPReq+0x2b2>
      }

      switch (req->bRequest)
 8004818:	683b      	ldr	r3, [r7, #0]
 800481a:	785b      	ldrb	r3, [r3, #1]
 800481c:	2b01      	cmp	r3, #1
 800481e:	d03e      	beq.n	800489e <USBD_StdEPReq+0xe2>
 8004820:	2b03      	cmp	r3, #3
 8004822:	d002      	beq.n	800482a <USBD_StdEPReq+0x6e>
 8004824:	2b00      	cmp	r3, #0
 8004826:	d070      	beq.n	800490a <USBD_StdEPReq+0x14e>
 8004828:	e115      	b.n	8004a56 <USBD_StdEPReq+0x29a>
      {
        case USB_REQ_SET_FEATURE:
          switch (pdev->dev_state)
 800482a:	687b      	ldr	r3, [r7, #4]
 800482c:	f893 329c 	ldrb.w	r3, [r3, #668]	; 0x29c
 8004830:	2b02      	cmp	r3, #2
 8004832:	d002      	beq.n	800483a <USBD_StdEPReq+0x7e>
 8004834:	2b03      	cmp	r3, #3
 8004836:	d015      	beq.n	8004864 <USBD_StdEPReq+0xa8>
 8004838:	e02b      	b.n	8004892 <USBD_StdEPReq+0xd6>
          {
            case USBD_STATE_ADDRESSED:
              if ((ep_addr != 0x00U) && (ep_addr != 0x80U))
 800483a:	7bbb      	ldrb	r3, [r7, #14]
 800483c:	2b00      	cmp	r3, #0
 800483e:	d00c      	beq.n	800485a <USBD_StdEPReq+0x9e>
 8004840:	7bbb      	ldrb	r3, [r7, #14]
 8004842:	2b80      	cmp	r3, #128	; 0x80
 8004844:	d009      	beq.n	800485a <USBD_StdEPReq+0x9e>
              {
                USBD_LL_StallEP(pdev, ep_addr);
 8004846:	7bbb      	ldrb	r3, [r7, #14]
 8004848:	4619      	mov	r1, r3
 800484a:	6878      	ldr	r0, [r7, #4]
 800484c:	f001 fa48 	bl	8005ce0 <USBD_LL_StallEP>
                USBD_LL_StallEP(pdev, 0x80U);
 8004850:	2180      	movs	r1, #128	; 0x80
 8004852:	6878      	ldr	r0, [r7, #4]
 8004854:	f001 fa44 	bl	8005ce0 <USBD_LL_StallEP>
              }
              else
              {
                USBD_CtlError(pdev, req);
              }
              break;
 8004858:	e020      	b.n	800489c <USBD_StdEPReq+0xe0>
                USBD_CtlError(pdev, req);
 800485a:	6839      	ldr	r1, [r7, #0]
 800485c:	6878      	ldr	r0, [r7, #4]
 800485e:	f000 fc46 	bl	80050ee <USBD_CtlError>
              break;
 8004862:	e01b      	b.n	800489c <USBD_StdEPReq+0xe0>

            case USBD_STATE_CONFIGURED:
              if (req->wValue == USB_FEATURE_EP_HALT)
 8004864:	683b      	ldr	r3, [r7, #0]
 8004866:	885b      	ldrh	r3, [r3, #2]
 8004868:	2b00      	cmp	r3, #0
 800486a:	d10e      	bne.n	800488a <USBD_StdEPReq+0xce>
              {
                if ((ep_addr != 0x00U) &&
 800486c:	7bbb      	ldrb	r3, [r7, #14]
 800486e:	2b00      	cmp	r3, #0
 8004870:	d00b      	beq.n	800488a <USBD_StdEPReq+0xce>
 8004872:	7bbb      	ldrb	r3, [r7, #14]
 8004874:	2b80      	cmp	r3, #128	; 0x80
 8004876:	d008      	beq.n	800488a <USBD_StdEPReq+0xce>
                    (ep_addr != 0x80U) && (req->wLength == 0x00U))
 8004878:	683b      	ldr	r3, [r7, #0]
 800487a:	88db      	ldrh	r3, [r3, #6]
 800487c:	2b00      	cmp	r3, #0
 800487e:	d104      	bne.n	800488a <USBD_StdEPReq+0xce>
                {
                  USBD_LL_StallEP(pdev, ep_addr);
 8004880:	7bbb      	ldrb	r3, [r7, #14]
 8004882:	4619      	mov	r1, r3
 8004884:	6878      	ldr	r0, [r7, #4]
 8004886:	f001 fa2b 	bl	8005ce0 <USBD_LL_StallEP>
                }
              }
              USBD_CtlSendStatus(pdev);
 800488a:	6878      	ldr	r0, [r7, #4]
 800488c:	f000 fcf8 	bl	8005280 <USBD_CtlSendStatus>

              break;
 8004890:	e004      	b.n	800489c <USBD_StdEPReq+0xe0>

            default:
              USBD_CtlError(pdev, req);
 8004892:	6839      	ldr	r1, [r7, #0]
 8004894:	6878      	ldr	r0, [r7, #4]
 8004896:	f000 fc2a 	bl	80050ee <USBD_CtlError>
              break;
 800489a:	bf00      	nop
          }
          break;
 800489c:	e0e0      	b.n	8004a60 <USBD_StdEPReq+0x2a4>

        case USB_REQ_CLEAR_FEATURE:

          switch (pdev->dev_state)
 800489e:	687b      	ldr	r3, [r7, #4]
 80048a0:	f893 329c 	ldrb.w	r3, [r3, #668]	; 0x29c
 80048a4:	2b02      	cmp	r3, #2
 80048a6:	d002      	beq.n	80048ae <USBD_StdEPReq+0xf2>
 80048a8:	2b03      	cmp	r3, #3
 80048aa:	d015      	beq.n	80048d8 <USBD_StdEPReq+0x11c>
 80048ac:	e026      	b.n	80048fc <USBD_StdEPReq+0x140>
          {
            case USBD_STATE_ADDRESSED:
              if ((ep_addr != 0x00U) && (ep_addr != 0x80U))
 80048ae:	7bbb      	ldrb	r3, [r7, #14]
 80048b0:	2b00      	cmp	r3, #0
 80048b2:	d00c      	beq.n	80048ce <USBD_StdEPReq+0x112>
 80048b4:	7bbb      	ldrb	r3, [r7, #14]
 80048b6:	2b80      	cmp	r3, #128	; 0x80
 80048b8:	d009      	beq.n	80048ce <USBD_StdEPReq+0x112>
              {
                USBD_LL_StallEP(pdev, ep_addr);
 80048ba:	7bbb      	ldrb	r3, [r7, #14]
 80048bc:	4619      	mov	r1, r3
 80048be:	6878      	ldr	r0, [r7, #4]
 80048c0:	f001 fa0e 	bl	8005ce0 <USBD_LL_StallEP>
                USBD_LL_StallEP(pdev, 0x80U);
 80048c4:	2180      	movs	r1, #128	; 0x80
 80048c6:	6878      	ldr	r0, [r7, #4]
 80048c8:	f001 fa0a 	bl	8005ce0 <USBD_LL_StallEP>
              }
              else
              {
                USBD_CtlError(pdev, req);
              }
              break;
 80048cc:	e01c      	b.n	8004908 <USBD_StdEPReq+0x14c>
                USBD_CtlError(pdev, req);
 80048ce:	6839      	ldr	r1, [r7, #0]
 80048d0:	6878      	ldr	r0, [r7, #4]
 80048d2:	f000 fc0c 	bl	80050ee <USBD_CtlError>
              break;
 80048d6:	e017      	b.n	8004908 <USBD_StdEPReq+0x14c>

            case USBD_STATE_CONFIGURED:
              if (req->wValue == USB_FEATURE_EP_HALT)
 80048d8:	683b      	ldr	r3, [r7, #0]
 80048da:	885b      	ldrh	r3, [r3, #2]
 80048dc:	2b00      	cmp	r3, #0
 80048de:	d112      	bne.n	8004906 <USBD_StdEPReq+0x14a>
              {
                if ((ep_addr & 0x7FU) != 0x00U)
 80048e0:	7bbb      	ldrb	r3, [r7, #14]
 80048e2:	f003 037f 	and.w	r3, r3, #127	; 0x7f
 80048e6:	2b00      	cmp	r3, #0
 80048e8:	d004      	beq.n	80048f4 <USBD_StdEPReq+0x138>
                {
                  USBD_LL_ClearStallEP(pdev, ep_addr);
 80048ea:	7bbb      	ldrb	r3, [r7, #14]
 80048ec:	4619      	mov	r1, r3
 80048ee:	6878      	ldr	r0, [r7, #4]
 80048f0:	f001 fa15 	bl	8005d1e <USBD_LL_ClearStallEP>
                }
                USBD_CtlSendStatus(pdev);
 80048f4:	6878      	ldr	r0, [r7, #4]
 80048f6:	f000 fcc3 	bl	8005280 <USBD_CtlSendStatus>
              }
              break;
 80048fa:	e004      	b.n	8004906 <USBD_StdEPReq+0x14a>

            default:
              USBD_CtlError(pdev, req);
 80048fc:	6839      	ldr	r1, [r7, #0]
 80048fe:	6878      	ldr	r0, [r7, #4]
 8004900:	f000 fbf5 	bl	80050ee <USBD_CtlError>
              break;
 8004904:	e000      	b.n	8004908 <USBD_StdEPReq+0x14c>
              break;
 8004906:	bf00      	nop
          }
          break;
 8004908:	e0aa      	b.n	8004a60 <USBD_StdEPReq+0x2a4>

        case USB_REQ_GET_STATUS:
          switch (pdev->dev_state)
 800490a:	687b      	ldr	r3, [r7, #4]
 800490c:	f893 329c 	ldrb.w	r3, [r3, #668]	; 0x29c
 8004910:	2b02      	cmp	r3, #2
 8004912:	d002      	beq.n	800491a <USBD_StdEPReq+0x15e>
 8004914:	2b03      	cmp	r3, #3
 8004916:	d032      	beq.n	800497e <USBD_StdEPReq+0x1c2>
 8004918:	e097      	b.n	8004a4a <USBD_StdEPReq+0x28e>
          {
            case USBD_STATE_ADDRESSED:
              if ((ep_addr != 0x00U) && (ep_addr != 0x80U))
 800491a:	7bbb      	ldrb	r3, [r7, #14]
 800491c:	2b00      	cmp	r3, #0
 800491e:	d007      	beq.n	8004930 <USBD_StdEPReq+0x174>
 8004920:	7bbb      	ldrb	r3, [r7, #14]
 8004922:	2b80      	cmp	r3, #128	; 0x80
 8004924:	d004      	beq.n	8004930 <USBD_StdEPReq+0x174>
              {
                USBD_CtlError(pdev, req);
 8004926:	6839      	ldr	r1, [r7, #0]
 8004928:	6878      	ldr	r0, [r7, #4]
 800492a:	f000 fbe0 	bl	80050ee <USBD_CtlError>
                break;
 800492e:	e091      	b.n	8004a54 <USBD_StdEPReq+0x298>
              }
              pep = ((ep_addr & 0x80U) == 0x80U) ? &pdev->ep_in[ep_addr & 0x7FU] : \
 8004930:	f997 300e 	ldrsb.w	r3, [r7, #14]
 8004934:	2b00      	cmp	r3, #0
 8004936:	da0b      	bge.n	8004950 <USBD_StdEPReq+0x194>
 8004938:	7bbb      	ldrb	r3, [r7, #14]
 800493a:	f003 027f 	and.w	r2, r3, #127	; 0x7f
 800493e:	4613      	mov	r3, r2
 8004940:	009b      	lsls	r3, r3, #2
 8004942:	4413      	add	r3, r2
 8004944:	009b      	lsls	r3, r3, #2
 8004946:	3310      	adds	r3, #16
 8004948:	687a      	ldr	r2, [r7, #4]
 800494a:	4413      	add	r3, r2
 800494c:	3304      	adds	r3, #4
 800494e:	e00b      	b.n	8004968 <USBD_StdEPReq+0x1ac>
                    &pdev->ep_out[ep_addr & 0x7FU];
 8004950:	7bbb      	ldrb	r3, [r7, #14]
 8004952:	f003 027f 	and.w	r2, r3, #127	; 0x7f
              pep = ((ep_addr & 0x80U) == 0x80U) ? &pdev->ep_in[ep_addr & 0x7FU] : \
 8004956:	4613      	mov	r3, r2
 8004958:	009b      	lsls	r3, r3, #2
 800495a:	4413      	add	r3, r2
 800495c:	009b      	lsls	r3, r3, #2
 800495e:	f503 73a8 	add.w	r3, r3, #336	; 0x150
 8004962:	687a      	ldr	r2, [r7, #4]
 8004964:	4413      	add	r3, r2
 8004966:	3304      	adds	r3, #4
 8004968:	60bb      	str	r3, [r7, #8]

              pep->status = 0x0000U;
 800496a:	68bb      	ldr	r3, [r7, #8]
 800496c:	2200      	movs	r2, #0
 800496e:	601a      	str	r2, [r3, #0]

              USBD_CtlSendData(pdev, (uint8_t *)(void *)&pep->status, 2U);
 8004970:	68bb      	ldr	r3, [r7, #8]
 8004972:	2202      	movs	r2, #2
 8004974:	4619      	mov	r1, r3
 8004976:	6878      	ldr	r0, [r7, #4]
 8004978:	f000 fc24 	bl	80051c4 <USBD_CtlSendData>
              break;
 800497c:	e06a      	b.n	8004a54 <USBD_StdEPReq+0x298>

            case USBD_STATE_CONFIGURED:
              if ((ep_addr & 0x80U) == 0x80U)
 800497e:	f997 300e 	ldrsb.w	r3, [r7, #14]
 8004982:	2b00      	cmp	r3, #0
 8004984:	da11      	bge.n	80049aa <USBD_StdEPReq+0x1ee>
              {
                if (pdev->ep_in[ep_addr & 0xFU].is_used == 0U)
 8004986:	7bbb      	ldrb	r3, [r7, #14]
 8004988:	f003 020f 	and.w	r2, r3, #15
 800498c:	6879      	ldr	r1, [r7, #4]
 800498e:	4613      	mov	r3, r2
 8004990:	009b      	lsls	r3, r3, #2
 8004992:	4413      	add	r3, r2
 8004994:	009b      	lsls	r3, r3, #2
 8004996:	440b      	add	r3, r1
 8004998:	3318      	adds	r3, #24
 800499a:	681b      	ldr	r3, [r3, #0]
 800499c:	2b00      	cmp	r3, #0
 800499e:	d117      	bne.n	80049d0 <USBD_StdEPReq+0x214>
                {
                  USBD_CtlError(pdev, req);
 80049a0:	6839      	ldr	r1, [r7, #0]
 80049a2:	6878      	ldr	r0, [r7, #4]
 80049a4:	f000 fba3 	bl	80050ee <USBD_CtlError>
                  break;
 80049a8:	e054      	b.n	8004a54 <USBD_StdEPReq+0x298>
                }
              }
              else
              {
                if (pdev->ep_out[ep_addr & 0xFU].is_used == 0U)
 80049aa:	7bbb      	ldrb	r3, [r7, #14]
 80049ac:	f003 020f 	and.w	r2, r3, #15
 80049b0:	6879      	ldr	r1, [r7, #4]
 80049b2:	4613      	mov	r3, r2
 80049b4:	009b      	lsls	r3, r3, #2
 80049b6:	4413      	add	r3, r2
 80049b8:	009b      	lsls	r3, r3, #2
 80049ba:	440b      	add	r3, r1
 80049bc:	f503 73ac 	add.w	r3, r3, #344	; 0x158
 80049c0:	681b      	ldr	r3, [r3, #0]
 80049c2:	2b00      	cmp	r3, #0
 80049c4:	d104      	bne.n	80049d0 <USBD_StdEPReq+0x214>
                {
                  USBD_CtlError(pdev, req);
 80049c6:	6839      	ldr	r1, [r7, #0]
 80049c8:	6878      	ldr	r0, [r7, #4]
 80049ca:	f000 fb90 	bl	80050ee <USBD_CtlError>
                  break;
 80049ce:	e041      	b.n	8004a54 <USBD_StdEPReq+0x298>
                }
              }

              pep = ((ep_addr & 0x80U) == 0x80U) ? &pdev->ep_in[ep_addr & 0x7FU] : \
 80049d0:	f997 300e 	ldrsb.w	r3, [r7, #14]
 80049d4:	2b00      	cmp	r3, #0
 80049d6:	da0b      	bge.n	80049f0 <USBD_StdEPReq+0x234>
 80049d8:	7bbb      	ldrb	r3, [r7, #14]
 80049da:	f003 027f 	and.w	r2, r3, #127	; 0x7f
 80049de:	4613      	mov	r3, r2
 80049e0:	009b      	lsls	r3, r3, #2
 80049e2:	4413      	add	r3, r2
 80049e4:	009b      	lsls	r3, r3, #2
 80049e6:	3310      	adds	r3, #16
 80049e8:	687a      	ldr	r2, [r7, #4]
 80049ea:	4413      	add	r3, r2
 80049ec:	3304      	adds	r3, #4
 80049ee:	e00b      	b.n	8004a08 <USBD_StdEPReq+0x24c>
                    &pdev->ep_out[ep_addr & 0x7FU];
 80049f0:	7bbb      	ldrb	r3, [r7, #14]
 80049f2:	f003 027f 	and.w	r2, r3, #127	; 0x7f
              pep = ((ep_addr & 0x80U) == 0x80U) ? &pdev->ep_in[ep_addr & 0x7FU] : \
 80049f6:	4613      	mov	r3, r2
 80049f8:	009b      	lsls	r3, r3, #2
 80049fa:	4413      	add	r3, r2
 80049fc:	009b      	lsls	r3, r3, #2
 80049fe:	f503 73a8 	add.w	r3, r3, #336	; 0x150
 8004a02:	687a      	ldr	r2, [r7, #4]
 8004a04:	4413      	add	r3, r2
 8004a06:	3304      	adds	r3, #4
 8004a08:	60bb      	str	r3, [r7, #8]

              if ((ep_addr == 0x00U) || (ep_addr == 0x80U))
 8004a0a:	7bbb      	ldrb	r3, [r7, #14]
 8004a0c:	2b00      	cmp	r3, #0
 8004a0e:	d002      	beq.n	8004a16 <USBD_StdEPReq+0x25a>
 8004a10:	7bbb      	ldrb	r3, [r7, #14]
 8004a12:	2b80      	cmp	r3, #128	; 0x80
 8004a14:	d103      	bne.n	8004a1e <USBD_StdEPReq+0x262>
              {
                pep->status = 0x0000U;
 8004a16:	68bb      	ldr	r3, [r7, #8]
 8004a18:	2200      	movs	r2, #0
 8004a1a:	601a      	str	r2, [r3, #0]
 8004a1c:	e00e      	b.n	8004a3c <USBD_StdEPReq+0x280>
              }
              else if (USBD_LL_IsStallEP(pdev, ep_addr))
 8004a1e:	7bbb      	ldrb	r3, [r7, #14]
 8004a20:	4619      	mov	r1, r3
 8004a22:	6878      	ldr	r0, [r7, #4]
 8004a24:	f001 f99a 	bl	8005d5c <USBD_LL_IsStallEP>
 8004a28:	4603      	mov	r3, r0
 8004a2a:	2b00      	cmp	r3, #0
 8004a2c:	d003      	beq.n	8004a36 <USBD_StdEPReq+0x27a>
              {
                pep->status = 0x0001U;
 8004a2e:	68bb      	ldr	r3, [r7, #8]
 8004a30:	2201      	movs	r2, #1
 8004a32:	601a      	str	r2, [r3, #0]
 8004a34:	e002      	b.n	8004a3c <USBD_StdEPReq+0x280>
              }
              else
              {
                pep->status = 0x0000U;
 8004a36:	68bb      	ldr	r3, [r7, #8]
 8004a38:	2200      	movs	r2, #0
 8004a3a:	601a      	str	r2, [r3, #0]
              }

              USBD_CtlSendData(pdev, (uint8_t *)(void *)&pep->status, 2U);
 8004a3c:	68bb      	ldr	r3, [r7, #8]
 8004a3e:	2202      	movs	r2, #2
 8004a40:	4619      	mov	r1, r3
 8004a42:	6878      	ldr	r0, [r7, #4]
 8004a44:	f000 fbbe 	bl	80051c4 <USBD_CtlSendData>
              break;
 8004a48:	e004      	b.n	8004a54 <USBD_StdEPReq+0x298>

            default:
              USBD_CtlError(pdev, req);
 8004a4a:	6839      	ldr	r1, [r7, #0]
 8004a4c:	6878      	ldr	r0, [r7, #4]
 8004a4e:	f000 fb4e 	bl	80050ee <USBD_CtlError>
              break;
 8004a52:	bf00      	nop
          }
          break;
 8004a54:	e004      	b.n	8004a60 <USBD_StdEPReq+0x2a4>

        default:
          USBD_CtlError(pdev, req);
 8004a56:	6839      	ldr	r1, [r7, #0]
 8004a58:	6878      	ldr	r0, [r7, #4]
 8004a5a:	f000 fb48 	bl	80050ee <USBD_CtlError>
          break;
 8004a5e:	bf00      	nop
      }
      break;
 8004a60:	e004      	b.n	8004a6c <USBD_StdEPReq+0x2b0>

    default:
      USBD_CtlError(pdev, req);
 8004a62:	6839      	ldr	r1, [r7, #0]
 8004a64:	6878      	ldr	r0, [r7, #4]
 8004a66:	f000 fb42 	bl	80050ee <USBD_CtlError>
      break;
 8004a6a:	bf00      	nop
  }

  return ret;
 8004a6c:	7bfb      	ldrb	r3, [r7, #15]
}
 8004a6e:	4618      	mov	r0, r3
 8004a70:	3710      	adds	r7, #16
 8004a72:	46bd      	mov	sp, r7
 8004a74:	bd80      	pop	{r7, pc}
	...

08004a78 <USBD_GetDescriptor>:
* @param  req: usb request
* @retval status
*/
static void USBD_GetDescriptor(USBD_HandleTypeDef *pdev,
                               USBD_SetupReqTypedef *req)
{
 8004a78:	b580      	push	{r7, lr}
 8004a7a:	b084      	sub	sp, #16
 8004a7c:	af00      	add	r7, sp, #0
 8004a7e:	6078      	str	r0, [r7, #4]
 8004a80:	6039      	str	r1, [r7, #0]
  uint16_t len = 0U;
 8004a82:	2300      	movs	r3, #0
 8004a84:	813b      	strh	r3, [r7, #8]
  uint8_t *pbuf = NULL;
 8004a86:	2300      	movs	r3, #0
 8004a88:	60fb      	str	r3, [r7, #12]
  uint8_t err = 0U;
 8004a8a:	2300      	movs	r3, #0
 8004a8c:	72fb      	strb	r3, [r7, #11]

  switch (req->wValue >> 8)
 8004a8e:	683b      	ldr	r3, [r7, #0]
 8004a90:	885b      	ldrh	r3, [r3, #2]
 8004a92:	0a1b      	lsrs	r3, r3, #8
 8004a94:	b29b      	uxth	r3, r3
 8004a96:	3b01      	subs	r3, #1
 8004a98:	2b0e      	cmp	r3, #14
 8004a9a:	f200 8152 	bhi.w	8004d42 <USBD_GetDescriptor+0x2ca>
 8004a9e:	a201      	add	r2, pc, #4	; (adr r2, 8004aa4 <USBD_GetDescriptor+0x2c>)
 8004aa0:	f852 f023 	ldr.w	pc, [r2, r3, lsl #2]
 8004aa4:	08004b15 	.word	0x08004b15
 8004aa8:	08004b2d 	.word	0x08004b2d
 8004aac:	08004b6d 	.word	0x08004b6d
 8004ab0:	08004d43 	.word	0x08004d43
 8004ab4:	08004d43 	.word	0x08004d43
 8004ab8:	08004ce3 	.word	0x08004ce3
 8004abc:	08004d0f 	.word	0x08004d0f
 8004ac0:	08004d43 	.word	0x08004d43
 8004ac4:	08004d43 	.word	0x08004d43
 8004ac8:	08004d43 	.word	0x08004d43
 8004acc:	08004d43 	.word	0x08004d43
 8004ad0:	08004d43 	.word	0x08004d43
 8004ad4:	08004d43 	.word	0x08004d43
 8004ad8:	08004d43 	.word	0x08004d43
 8004adc:	08004ae1 	.word	0x08004ae1
  {
#if (USBD_LPM_ENABLED == 1U)
    case USB_DESC_TYPE_BOS:
      if (pdev->pDesc->GetBOSDescriptor != NULL)
 8004ae0:	687b      	ldr	r3, [r7, #4]
 8004ae2:	f8d3 32b0 	ldr.w	r3, [r3, #688]	; 0x2b0
 8004ae6:	69db      	ldr	r3, [r3, #28]
 8004ae8:	2b00      	cmp	r3, #0
 8004aea:	d00b      	beq.n	8004b04 <USBD_GetDescriptor+0x8c>
      {
        pbuf = pdev->pDesc->GetBOSDescriptor(pdev->dev_speed, &len);
 8004aec:	687b      	ldr	r3, [r7, #4]
 8004aee:	f8d3 32b0 	ldr.w	r3, [r3, #688]	; 0x2b0
 8004af2:	69db      	ldr	r3, [r3, #28]
 8004af4:	687a      	ldr	r2, [r7, #4]
 8004af6:	7c12      	ldrb	r2, [r2, #16]
 8004af8:	f107 0108 	add.w	r1, r7, #8
 8004afc:	4610      	mov	r0, r2
 8004afe:	4798      	blx	r3
 8004b00:	60f8      	str	r0, [r7, #12]
      else
      {
        USBD_CtlError(pdev, req);
        err++;
      }
      break;
 8004b02:	e126      	b.n	8004d52 <USBD_GetDescriptor+0x2da>
        USBD_CtlError(pdev, req);
 8004b04:	6839      	ldr	r1, [r7, #0]
 8004b06:	6878      	ldr	r0, [r7, #4]
 8004b08:	f000 faf1 	bl	80050ee <USBD_CtlError>
        err++;
 8004b0c:	7afb      	ldrb	r3, [r7, #11]
 8004b0e:	3301      	adds	r3, #1
 8004b10:	72fb      	strb	r3, [r7, #11]
      break;
 8004b12:	e11e      	b.n	8004d52 <USBD_GetDescriptor+0x2da>
#endif
    case USB_DESC_TYPE_DEVICE:
      pbuf = pdev->pDesc->GetDeviceDescriptor(pdev->dev_speed, &len);
 8004b14:	687b      	ldr	r3, [r7, #4]
 8004b16:	f8d3 32b0 	ldr.w	r3, [r3, #688]	; 0x2b0
 8004b1a:	681b      	ldr	r3, [r3, #0]
 8004b1c:	687a      	ldr	r2, [r7, #4]
 8004b1e:	7c12      	ldrb	r2, [r2, #16]
 8004b20:	f107 0108 	add.w	r1, r7, #8
 8004b24:	4610      	mov	r0, r2
 8004b26:	4798      	blx	r3
 8004b28:	60f8      	str	r0, [r7, #12]
      break;
 8004b2a:	e112      	b.n	8004d52 <USBD_GetDescriptor+0x2da>

    case USB_DESC_TYPE_CONFIGURATION:
      if (pdev->dev_speed == USBD_SPEED_HIGH)
 8004b2c:	687b      	ldr	r3, [r7, #4]
 8004b2e:	7c1b      	ldrb	r3, [r3, #16]
 8004b30:	2b00      	cmp	r3, #0
 8004b32:	d10d      	bne.n	8004b50 <USBD_GetDescriptor+0xd8>
      {
        pbuf = pdev->pClass->GetHSConfigDescriptor(&len);
 8004b34:	687b      	ldr	r3, [r7, #4]
 8004b36:	f8d3 32b4 	ldr.w	r3, [r3, #692]	; 0x2b4
 8004b3a:	6a9b      	ldr	r3, [r3, #40]	; 0x28
 8004b3c:	f107 0208 	add.w	r2, r7, #8
 8004b40:	4610      	mov	r0, r2
 8004b42:	4798      	blx	r3
 8004b44:	60f8      	str	r0, [r7, #12]
        pbuf[1] = USB_DESC_TYPE_CONFIGURATION;
 8004b46:	68fb      	ldr	r3, [r7, #12]
 8004b48:	3301      	adds	r3, #1
 8004b4a:	2202      	movs	r2, #2
 8004b4c:	701a      	strb	r2, [r3, #0]
      else
      {
        pbuf = pdev->pClass->GetFSConfigDescriptor(&len);
        pbuf[1] = USB_DESC_TYPE_CONFIGURATION;
      }
      break;
 8004b4e:	e100      	b.n	8004d52 <USBD_GetDescriptor+0x2da>
        pbuf = pdev->pClass->GetFSConfigDescriptor(&len);
 8004b50:	687b      	ldr	r3, [r7, #4]
 8004b52:	f8d3 32b4 	ldr.w	r3, [r3, #692]	; 0x2b4
 8004b56:	6adb      	ldr	r3, [r3, #44]	; 0x2c
 8004b58:	f107 0208 	add.w	r2, r7, #8
 8004b5c:	4610      	mov	r0, r2
 8004b5e:	4798      	blx	r3
 8004b60:	60f8      	str	r0, [r7, #12]
        pbuf[1] = USB_DESC_TYPE_CONFIGURATION;
 8004b62:	68fb      	ldr	r3, [r7, #12]
 8004b64:	3301      	adds	r3, #1
 8004b66:	2202      	movs	r2, #2
 8004b68:	701a      	strb	r2, [r3, #0]
      break;
 8004b6a:	e0f2      	b.n	8004d52 <USBD_GetDescriptor+0x2da>

    case USB_DESC_TYPE_STRING:
      switch ((uint8_t)(req->wValue))
 8004b6c:	683b      	ldr	r3, [r7, #0]
 8004b6e:	885b      	ldrh	r3, [r3, #2]
 8004b70:	b2db      	uxtb	r3, r3
 8004b72:	2b05      	cmp	r3, #5
 8004b74:	f200 80ac 	bhi.w	8004cd0 <USBD_GetDescriptor+0x258>
 8004b78:	a201      	add	r2, pc, #4	; (adr r2, 8004b80 <USBD_GetDescriptor+0x108>)
 8004b7a:	f852 f023 	ldr.w	pc, [r2, r3, lsl #2]
 8004b7e:	bf00      	nop
 8004b80:	08004b99 	.word	0x08004b99
 8004b84:	08004bcd 	.word	0x08004bcd
 8004b88:	08004c01 	.word	0x08004c01
 8004b8c:	08004c35 	.word	0x08004c35
 8004b90:	08004c69 	.word	0x08004c69
 8004b94:	08004c9d 	.word	0x08004c9d
      {
        case USBD_IDX_LANGID_STR:
          if (pdev->pDesc->GetLangIDStrDescriptor != NULL)
 8004b98:	687b      	ldr	r3, [r7, #4]
 8004b9a:	f8d3 32b0 	ldr.w	r3, [r3, #688]	; 0x2b0
 8004b9e:	685b      	ldr	r3, [r3, #4]
 8004ba0:	2b00      	cmp	r3, #0
 8004ba2:	d00b      	beq.n	8004bbc <USBD_GetDescriptor+0x144>
          {
            pbuf = pdev->pDesc->GetLangIDStrDescriptor(pdev->dev_speed, &len);
 8004ba4:	687b      	ldr	r3, [r7, #4]
 8004ba6:	f8d3 32b0 	ldr.w	r3, [r3, #688]	; 0x2b0
 8004baa:	685b      	ldr	r3, [r3, #4]
 8004bac:	687a      	ldr	r2, [r7, #4]
 8004bae:	7c12      	ldrb	r2, [r2, #16]
 8004bb0:	f107 0108 	add.w	r1, r7, #8
 8004bb4:	4610      	mov	r0, r2
 8004bb6:	4798      	blx	r3
 8004bb8:	60f8      	str	r0, [r7, #12]
          else
          {
            USBD_CtlError(pdev, req);
            err++;
          }
          break;
 8004bba:	e091      	b.n	8004ce0 <USBD_GetDescriptor+0x268>
            USBD_CtlError(pdev, req);
 8004bbc:	6839      	ldr	r1, [r7, #0]
 8004bbe:	6878      	ldr	r0, [r7, #4]
 8004bc0:	f000 fa95 	bl	80050ee <USBD_CtlError>
            err++;
 8004bc4:	7afb      	ldrb	r3, [r7, #11]
 8004bc6:	3301      	adds	r3, #1
 8004bc8:	72fb      	strb	r3, [r7, #11]
          break;
 8004bca:	e089      	b.n	8004ce0 <USBD_GetDescriptor+0x268>

        case USBD_IDX_MFC_STR:
          if (pdev->pDesc->GetManufacturerStrDescriptor != NULL)
 8004bcc:	687b      	ldr	r3, [r7, #4]
 8004bce:	f8d3 32b0 	ldr.w	r3, [r3, #688]	; 0x2b0
 8004bd2:	689b      	ldr	r3, [r3, #8]
 8004bd4:	2b00      	cmp	r3, #0
 8004bd6:	d00b      	beq.n	8004bf0 <USBD_GetDescriptor+0x178>
          {
            pbuf = pdev->pDesc->GetManufacturerStrDescriptor(pdev->dev_speed, &len);
 8004bd8:	687b      	ldr	r3, [r7, #4]
 8004bda:	f8d3 32b0 	ldr.w	r3, [r3, #688]	; 0x2b0
 8004bde:	689b      	ldr	r3, [r3, #8]
 8004be0:	687a      	ldr	r2, [r7, #4]
 8004be2:	7c12      	ldrb	r2, [r2, #16]
 8004be4:	f107 0108 	add.w	r1, r7, #8
 8004be8:	4610      	mov	r0, r2
 8004bea:	4798      	blx	r3
 8004bec:	60f8      	str	r0, [r7, #12]
          else
          {
            USBD_CtlError(pdev, req);
            err++;
          }
          break;
 8004bee:	e077      	b.n	8004ce0 <USBD_GetDescriptor+0x268>
            USBD_CtlError(pdev, req);
 8004bf0:	6839      	ldr	r1, [r7, #0]
 8004bf2:	6878      	ldr	r0, [r7, #4]
 8004bf4:	f000 fa7b 	bl	80050ee <USBD_CtlError>
            err++;
 8004bf8:	7afb      	ldrb	r3, [r7, #11]
 8004bfa:	3301      	adds	r3, #1
 8004bfc:	72fb      	strb	r3, [r7, #11]
          break;
 8004bfe:	e06f      	b.n	8004ce0 <USBD_GetDescriptor+0x268>

        case USBD_IDX_PRODUCT_STR:
          if (pdev->pDesc->GetProductStrDescriptor != NULL)
 8004c00:	687b      	ldr	r3, [r7, #4]
 8004c02:	f8d3 32b0 	ldr.w	r3, [r3, #688]	; 0x2b0
 8004c06:	68db      	ldr	r3, [r3, #12]
 8004c08:	2b00      	cmp	r3, #0
 8004c0a:	d00b      	beq.n	8004c24 <USBD_GetDescriptor+0x1ac>
          {
            pbuf = pdev->pDesc->GetProductStrDescriptor(pdev->dev_speed, &len);
 8004c0c:	687b      	ldr	r3, [r7, #4]
 8004c0e:	f8d3 32b0 	ldr.w	r3, [r3, #688]	; 0x2b0
 8004c12:	68db      	ldr	r3, [r3, #12]
 8004c14:	687a      	ldr	r2, [r7, #4]
 8004c16:	7c12      	ldrb	r2, [r2, #16]
 8004c18:	f107 0108 	add.w	r1, r7, #8
 8004c1c:	4610      	mov	r0, r2
 8004c1e:	4798      	blx	r3
 8004c20:	60f8      	str	r0, [r7, #12]
          else
          {
            USBD_CtlError(pdev, req);
            err++;
          }
          break;
 8004c22:	e05d      	b.n	8004ce0 <USBD_GetDescriptor+0x268>
            USBD_CtlError(pdev, req);
 8004c24:	6839      	ldr	r1, [r7, #0]
 8004c26:	6878      	ldr	r0, [r7, #4]
 8004c28:	f000 fa61 	bl	80050ee <USBD_CtlError>
            err++;
 8004c2c:	7afb      	ldrb	r3, [r7, #11]
 8004c2e:	3301      	adds	r3, #1
 8004c30:	72fb      	strb	r3, [r7, #11]
          break;
 8004c32:	e055      	b.n	8004ce0 <USBD_GetDescriptor+0x268>

        case USBD_IDX_SERIAL_STR:
          if (pdev->pDesc->GetSerialStrDescriptor != NULL)
 8004c34:	687b      	ldr	r3, [r7, #4]
 8004c36:	f8d3 32b0 	ldr.w	r3, [r3, #688]	; 0x2b0
 8004c3a:	691b      	ldr	r3, [r3, #16]
 8004c3c:	2b00      	cmp	r3, #0
 8004c3e:	d00b      	beq.n	8004c58 <USBD_GetDescriptor+0x1e0>
          {
            pbuf = pdev->pDesc->GetSerialStrDescriptor(pdev->dev_speed, &len);
 8004c40:	687b      	ldr	r3, [r7, #4]
 8004c42:	f8d3 32b0 	ldr.w	r3, [r3, #688]	; 0x2b0
 8004c46:	691b      	ldr	r3, [r3, #16]
 8004c48:	687a      	ldr	r2, [r7, #4]
 8004c4a:	7c12      	ldrb	r2, [r2, #16]
 8004c4c:	f107 0108 	add.w	r1, r7, #8
 8004c50:	4610      	mov	r0, r2
 8004c52:	4798      	blx	r3
 8004c54:	60f8      	str	r0, [r7, #12]
          else
          {
            USBD_CtlError(pdev, req);
            err++;
          }
          break;
 8004c56:	e043      	b.n	8004ce0 <USBD_GetDescriptor+0x268>
            USBD_CtlError(pdev, req);
 8004c58:	6839      	ldr	r1, [r7, #0]
 8004c5a:	6878      	ldr	r0, [r7, #4]
 8004c5c:	f000 fa47 	bl	80050ee <USBD_CtlError>
            err++;
 8004c60:	7afb      	ldrb	r3, [r7, #11]
 8004c62:	3301      	adds	r3, #1
 8004c64:	72fb      	strb	r3, [r7, #11]
          break;
 8004c66:	e03b      	b.n	8004ce0 <USBD_GetDescriptor+0x268>

        case USBD_IDX_CONFIG_STR:
          if (pdev->pDesc->GetConfigurationStrDescriptor != NULL)
 8004c68:	687b      	ldr	r3, [r7, #4]
 8004c6a:	f8d3 32b0 	ldr.w	r3, [r3, #688]	; 0x2b0
 8004c6e:	695b      	ldr	r3, [r3, #20]
 8004c70:	2b00      	cmp	r3, #0
 8004c72:	d00b      	beq.n	8004c8c <USBD_GetDescriptor+0x214>
          {
            pbuf = pdev->pDesc->GetConfigurationStrDescriptor(pdev->dev_speed, &len);
 8004c74:	687b      	ldr	r3, [r7, #4]
 8004c76:	f8d3 32b0 	ldr.w	r3, [r3, #688]	; 0x2b0
 8004c7a:	695b      	ldr	r3, [r3, #20]
 8004c7c:	687a      	ldr	r2, [r7, #4]
 8004c7e:	7c12      	ldrb	r2, [r2, #16]
 8004c80:	f107 0108 	add.w	r1, r7, #8
 8004c84:	4610      	mov	r0, r2
 8004c86:	4798      	blx	r3
 8004c88:	60f8      	str	r0, [r7, #12]
          else
          {
            USBD_CtlError(pdev, req);
            err++;
          }
          break;
 8004c8a:	e029      	b.n	8004ce0 <USBD_GetDescriptor+0x268>
            USBD_CtlError(pdev, req);
 8004c8c:	6839      	ldr	r1, [r7, #0]
 8004c8e:	6878      	ldr	r0, [r7, #4]
 8004c90:	f000 fa2d 	bl	80050ee <USBD_CtlError>
            err++;
 8004c94:	7afb      	ldrb	r3, [r7, #11]
 8004c96:	3301      	adds	r3, #1
 8004c98:	72fb      	strb	r3, [r7, #11]
          break;
 8004c9a:	e021      	b.n	8004ce0 <USBD_GetDescriptor+0x268>

        case USBD_IDX_INTERFACE_STR:
          if (pdev->pDesc->GetInterfaceStrDescriptor != NULL)
 8004c9c:	687b      	ldr	r3, [r7, #4]
 8004c9e:	f8d3 32b0 	ldr.w	r3, [r3, #688]	; 0x2b0
 8004ca2:	699b      	ldr	r3, [r3, #24]
 8004ca4:	2b00      	cmp	r3, #0
 8004ca6:	d00b      	beq.n	8004cc0 <USBD_GetDescriptor+0x248>
          {
            pbuf = pdev->pDesc->GetInterfaceStrDescriptor(pdev->dev_speed, &len);
 8004ca8:	687b      	ldr	r3, [r7, #4]
 8004caa:	f8d3 32b0 	ldr.w	r3, [r3, #688]	; 0x2b0
 8004cae:	699b      	ldr	r3, [r3, #24]
 8004cb0:	687a      	ldr	r2, [r7, #4]
 8004cb2:	7c12      	ldrb	r2, [r2, #16]
 8004cb4:	f107 0108 	add.w	r1, r7, #8
 8004cb8:	4610      	mov	r0, r2
 8004cba:	4798      	blx	r3
 8004cbc:	60f8      	str	r0, [r7, #12]
          else
          {
            USBD_CtlError(pdev, req);
            err++;
          }
          break;
 8004cbe:	e00f      	b.n	8004ce0 <USBD_GetDescriptor+0x268>
            USBD_CtlError(pdev, req);
 8004cc0:	6839      	ldr	r1, [r7, #0]
 8004cc2:	6878      	ldr	r0, [r7, #4]
 8004cc4:	f000 fa13 	bl	80050ee <USBD_CtlError>
            err++;
 8004cc8:	7afb      	ldrb	r3, [r7, #11]
 8004cca:	3301      	adds	r3, #1
 8004ccc:	72fb      	strb	r3, [r7, #11]
          break;
 8004cce:	e007      	b.n	8004ce0 <USBD_GetDescriptor+0x268>
            USBD_CtlError(pdev, req);
            err++;
          }
          break;
#else
          USBD_CtlError(pdev, req);
 8004cd0:	6839      	ldr	r1, [r7, #0]
 8004cd2:	6878      	ldr	r0, [r7, #4]
 8004cd4:	f000 fa0b 	bl	80050ee <USBD_CtlError>
          err++;
 8004cd8:	7afb      	ldrb	r3, [r7, #11]
 8004cda:	3301      	adds	r3, #1
 8004cdc:	72fb      	strb	r3, [r7, #11]
#endif
      }
      break;
 8004cde:	e038      	b.n	8004d52 <USBD_GetDescriptor+0x2da>
 8004ce0:	e037      	b.n	8004d52 <USBD_GetDescriptor+0x2da>

    case USB_DESC_TYPE_DEVICE_QUALIFIER:
      if (pdev->dev_speed == USBD_SPEED_HIGH)
 8004ce2:	687b      	ldr	r3, [r7, #4]
 8004ce4:	7c1b      	ldrb	r3, [r3, #16]
 8004ce6:	2b00      	cmp	r3, #0
 8004ce8:	d109      	bne.n	8004cfe <USBD_GetDescriptor+0x286>
      {
        pbuf = pdev->pClass->GetDeviceQualifierDescriptor(&len);
 8004cea:	687b      	ldr	r3, [r7, #4]
 8004cec:	f8d3 32b4 	ldr.w	r3, [r3, #692]	; 0x2b4
 8004cf0:	6b5b      	ldr	r3, [r3, #52]	; 0x34
 8004cf2:	f107 0208 	add.w	r2, r7, #8
 8004cf6:	4610      	mov	r0, r2
 8004cf8:	4798      	blx	r3
 8004cfa:	60f8      	str	r0, [r7, #12]
      else
      {
        USBD_CtlError(pdev, req);
        err++;
      }
      break;
 8004cfc:	e029      	b.n	8004d52 <USBD_GetDescriptor+0x2da>
        USBD_CtlError(pdev, req);
 8004cfe:	6839      	ldr	r1, [r7, #0]
 8004d00:	6878      	ldr	r0, [r7, #4]
 8004d02:	f000 f9f4 	bl	80050ee <USBD_CtlError>
        err++;
 8004d06:	7afb      	ldrb	r3, [r7, #11]
 8004d08:	3301      	adds	r3, #1
 8004d0a:	72fb      	strb	r3, [r7, #11]
      break;
 8004d0c:	e021      	b.n	8004d52 <USBD_GetDescriptor+0x2da>

    case USB_DESC_TYPE_OTHER_SPEED_CONFIGURATION:
      if (pdev->dev_speed == USBD_SPEED_HIGH)
 8004d0e:	687b      	ldr	r3, [r7, #4]
 8004d10:	7c1b      	ldrb	r3, [r3, #16]
 8004d12:	2b00      	cmp	r3, #0
 8004d14:	d10d      	bne.n	8004d32 <USBD_GetDescriptor+0x2ba>
      {
        pbuf = pdev->pClass->GetOtherSpeedConfigDescriptor(&len);
 8004d16:	687b      	ldr	r3, [r7, #4]
 8004d18:	f8d3 32b4 	ldr.w	r3, [r3, #692]	; 0x2b4
 8004d1c:	6b1b      	ldr	r3, [r3, #48]	; 0x30
 8004d1e:	f107 0208 	add.w	r2, r7, #8
 8004d22:	4610      	mov	r0, r2
 8004d24:	4798      	blx	r3
 8004d26:	60f8      	str	r0, [r7, #12]
        pbuf[1] = USB_DESC_TYPE_OTHER_SPEED_CONFIGURATION;
 8004d28:	68fb      	ldr	r3, [r7, #12]
 8004d2a:	3301      	adds	r3, #1
 8004d2c:	2207      	movs	r2, #7
 8004d2e:	701a      	strb	r2, [r3, #0]
      else
      {
        USBD_CtlError(pdev, req);
        err++;
      }
      break;
 8004d30:	e00f      	b.n	8004d52 <USBD_GetDescriptor+0x2da>
        USBD_CtlError(pdev, req);
 8004d32:	6839      	ldr	r1, [r7, #0]
 8004d34:	6878      	ldr	r0, [r7, #4]
 8004d36:	f000 f9da 	bl	80050ee <USBD_CtlError>
        err++;
 8004d3a:	7afb      	ldrb	r3, [r7, #11]
 8004d3c:	3301      	adds	r3, #1
 8004d3e:	72fb      	strb	r3, [r7, #11]
      break;
 8004d40:	e007      	b.n	8004d52 <USBD_GetDescriptor+0x2da>

    default:
      USBD_CtlError(pdev, req);
 8004d42:	6839      	ldr	r1, [r7, #0]
 8004d44:	6878      	ldr	r0, [r7, #4]
 8004d46:	f000 f9d2 	bl	80050ee <USBD_CtlError>
      err++;
 8004d4a:	7afb      	ldrb	r3, [r7, #11]
 8004d4c:	3301      	adds	r3, #1
 8004d4e:	72fb      	strb	r3, [r7, #11]
      break;
 8004d50:	bf00      	nop
  }

  if (err != 0U)
 8004d52:	7afb      	ldrb	r3, [r7, #11]
 8004d54:	2b00      	cmp	r3, #0
 8004d56:	d11c      	bne.n	8004d92 <USBD_GetDescriptor+0x31a>
  {
    return;
  }
  else
  {
    if ((len != 0U) && (req->wLength != 0U))
 8004d58:	893b      	ldrh	r3, [r7, #8]
 8004d5a:	2b00      	cmp	r3, #0
 8004d5c:	d011      	beq.n	8004d82 <USBD_GetDescriptor+0x30a>
 8004d5e:	683b      	ldr	r3, [r7, #0]
 8004d60:	88db      	ldrh	r3, [r3, #6]
 8004d62:	2b00      	cmp	r3, #0
 8004d64:	d00d      	beq.n	8004d82 <USBD_GetDescriptor+0x30a>
    {
      len = MIN(len, req->wLength);
 8004d66:	683b      	ldr	r3, [r7, #0]
 8004d68:	88da      	ldrh	r2, [r3, #6]
 8004d6a:	893b      	ldrh	r3, [r7, #8]
 8004d6c:	4293      	cmp	r3, r2
 8004d6e:	bf28      	it	cs
 8004d70:	4613      	movcs	r3, r2
 8004d72:	b29b      	uxth	r3, r3
 8004d74:	813b      	strh	r3, [r7, #8]
      (void)USBD_CtlSendData(pdev, pbuf, len);
 8004d76:	893b      	ldrh	r3, [r7, #8]
 8004d78:	461a      	mov	r2, r3
 8004d7a:	68f9      	ldr	r1, [r7, #12]
 8004d7c:	6878      	ldr	r0, [r7, #4]
 8004d7e:	f000 fa21 	bl	80051c4 <USBD_CtlSendData>
    }

    if (req->wLength == 0U)
 8004d82:	683b      	ldr	r3, [r7, #0]
 8004d84:	88db      	ldrh	r3, [r3, #6]
 8004d86:	2b00      	cmp	r3, #0
 8004d88:	d104      	bne.n	8004d94 <USBD_GetDescriptor+0x31c>
    {
      (void)USBD_CtlSendStatus(pdev);
 8004d8a:	6878      	ldr	r0, [r7, #4]
 8004d8c:	f000 fa78 	bl	8005280 <USBD_CtlSendStatus>
 8004d90:	e000      	b.n	8004d94 <USBD_GetDescriptor+0x31c>
    return;
 8004d92:	bf00      	nop
    }
  }
}
 8004d94:	3710      	adds	r7, #16
 8004d96:	46bd      	mov	sp, r7
 8004d98:	bd80      	pop	{r7, pc}
 8004d9a:	bf00      	nop

08004d9c <USBD_SetAddress>:
* @param  req: usb request
* @retval status
*/
static void USBD_SetAddress(USBD_HandleTypeDef *pdev,
                            USBD_SetupReqTypedef *req)
{
 8004d9c:	b580      	push	{r7, lr}
 8004d9e:	b084      	sub	sp, #16
 8004da0:	af00      	add	r7, sp, #0
 8004da2:	6078      	str	r0, [r7, #4]
 8004da4:	6039      	str	r1, [r7, #0]
  uint8_t  dev_addr;

  if ((req->wIndex == 0U) && (req->wLength == 0U) && (req->wValue < 128U))
 8004da6:	683b      	ldr	r3, [r7, #0]
 8004da8:	889b      	ldrh	r3, [r3, #4]
 8004daa:	2b00      	cmp	r3, #0
 8004dac:	d130      	bne.n	8004e10 <USBD_SetAddress+0x74>
 8004dae:	683b      	ldr	r3, [r7, #0]
 8004db0:	88db      	ldrh	r3, [r3, #6]
 8004db2:	2b00      	cmp	r3, #0
 8004db4:	d12c      	bne.n	8004e10 <USBD_SetAddress+0x74>
 8004db6:	683b      	ldr	r3, [r7, #0]
 8004db8:	885b      	ldrh	r3, [r3, #2]
 8004dba:	2b7f      	cmp	r3, #127	; 0x7f
 8004dbc:	d828      	bhi.n	8004e10 <USBD_SetAddress+0x74>
  {
    dev_addr = (uint8_t)(req->wValue) & 0x7FU;
 8004dbe:	683b      	ldr	r3, [r7, #0]
 8004dc0:	885b      	ldrh	r3, [r3, #2]
 8004dc2:	b2db      	uxtb	r3, r3
 8004dc4:	f003 037f 	and.w	r3, r3, #127	; 0x7f
 8004dc8:	73fb      	strb	r3, [r7, #15]

    if (pdev->dev_state == USBD_STATE_CONFIGURED)
 8004dca:	687b      	ldr	r3, [r7, #4]
 8004dcc:	f893 329c 	ldrb.w	r3, [r3, #668]	; 0x29c
 8004dd0:	2b03      	cmp	r3, #3
 8004dd2:	d104      	bne.n	8004dde <USBD_SetAddress+0x42>
    {
      USBD_CtlError(pdev, req);
 8004dd4:	6839      	ldr	r1, [r7, #0]
 8004dd6:	6878      	ldr	r0, [r7, #4]
 8004dd8:	f000 f989 	bl	80050ee <USBD_CtlError>
    if (pdev->dev_state == USBD_STATE_CONFIGURED)
 8004ddc:	e01c      	b.n	8004e18 <USBD_SetAddress+0x7c>
    }
    else
    {
      pdev->dev_address = dev_addr;
 8004dde:	687b      	ldr	r3, [r7, #4]
 8004de0:	7bfa      	ldrb	r2, [r7, #15]
 8004de2:	f883 229e 	strb.w	r2, [r3, #670]	; 0x29e
      USBD_LL_SetUSBAddress(pdev, dev_addr);
 8004de6:	7bfb      	ldrb	r3, [r7, #15]
 8004de8:	4619      	mov	r1, r3
 8004dea:	6878      	ldr	r0, [r7, #4]
 8004dec:	f000 ffdc 	bl	8005da8 <USBD_LL_SetUSBAddress>
      USBD_CtlSendStatus(pdev);
 8004df0:	6878      	ldr	r0, [r7, #4]
 8004df2:	f000 fa45 	bl	8005280 <USBD_CtlSendStatus>

      if (dev_addr != 0U)
 8004df6:	7bfb      	ldrb	r3, [r7, #15]
 8004df8:	2b00      	cmp	r3, #0
 8004dfa:	d004      	beq.n	8004e06 <USBD_SetAddress+0x6a>
      {
        pdev->dev_state = USBD_STATE_ADDRESSED;
 8004dfc:	687b      	ldr	r3, [r7, #4]
 8004dfe:	2202      	movs	r2, #2
 8004e00:	f883 229c 	strb.w	r2, [r3, #668]	; 0x29c
    if (pdev->dev_state == USBD_STATE_CONFIGURED)
 8004e04:	e008      	b.n	8004e18 <USBD_SetAddress+0x7c>
      }
      else
      {
        pdev->dev_state = USBD_STATE_DEFAULT;
 8004e06:	687b      	ldr	r3, [r7, #4]
 8004e08:	2201      	movs	r2, #1
 8004e0a:	f883 229c 	strb.w	r2, [r3, #668]	; 0x29c
    if (pdev->dev_state == USBD_STATE_CONFIGURED)
 8004e0e:	e003      	b.n	8004e18 <USBD_SetAddress+0x7c>
      }
    }
  }
  else
  {
    USBD_CtlError(pdev, req);
 8004e10:	6839      	ldr	r1, [r7, #0]
 8004e12:	6878      	ldr	r0, [r7, #4]
 8004e14:	f000 f96b 	bl	80050ee <USBD_CtlError>
  }
}
 8004e18:	bf00      	nop
 8004e1a:	3710      	adds	r7, #16
 8004e1c:	46bd      	mov	sp, r7
 8004e1e:	bd80      	pop	{r7, pc}

08004e20 <USBD_SetConfig>:
* @param  pdev: device instance
* @param  req: usb request
* @retval status
*/
static void USBD_SetConfig(USBD_HandleTypeDef *pdev, USBD_SetupReqTypedef *req)
{
 8004e20:	b580      	push	{r7, lr}
 8004e22:	b082      	sub	sp, #8
 8004e24:	af00      	add	r7, sp, #0
 8004e26:	6078      	str	r0, [r7, #4]
 8004e28:	6039      	str	r1, [r7, #0]
  static uint8_t cfgidx;

  cfgidx = (uint8_t)(req->wValue);
 8004e2a:	683b      	ldr	r3, [r7, #0]
 8004e2c:	885b      	ldrh	r3, [r3, #2]
 8004e2e:	b2da      	uxtb	r2, r3
 8004e30:	4b41      	ldr	r3, [pc, #260]	; (8004f38 <USBD_SetConfig+0x118>)
 8004e32:	701a      	strb	r2, [r3, #0]

  if (cfgidx > USBD_MAX_NUM_CONFIGURATION)
 8004e34:	4b40      	ldr	r3, [pc, #256]	; (8004f38 <USBD_SetConfig+0x118>)
 8004e36:	781b      	ldrb	r3, [r3, #0]
 8004e38:	2b01      	cmp	r3, #1
 8004e3a:	d904      	bls.n	8004e46 <USBD_SetConfig+0x26>
  {
    USBD_CtlError(pdev, req);
 8004e3c:	6839      	ldr	r1, [r7, #0]
 8004e3e:	6878      	ldr	r0, [r7, #4]
 8004e40:	f000 f955 	bl	80050ee <USBD_CtlError>
 8004e44:	e075      	b.n	8004f32 <USBD_SetConfig+0x112>
  }
  else
  {
    switch (pdev->dev_state)
 8004e46:	687b      	ldr	r3, [r7, #4]
 8004e48:	f893 329c 	ldrb.w	r3, [r3, #668]	; 0x29c
 8004e4c:	2b02      	cmp	r3, #2
 8004e4e:	d002      	beq.n	8004e56 <USBD_SetConfig+0x36>
 8004e50:	2b03      	cmp	r3, #3
 8004e52:	d023      	beq.n	8004e9c <USBD_SetConfig+0x7c>
 8004e54:	e062      	b.n	8004f1c <USBD_SetConfig+0xfc>
    {
      case USBD_STATE_ADDRESSED:
        if (cfgidx)
 8004e56:	4b38      	ldr	r3, [pc, #224]	; (8004f38 <USBD_SetConfig+0x118>)
 8004e58:	781b      	ldrb	r3, [r3, #0]
 8004e5a:	2b00      	cmp	r3, #0
 8004e5c:	d01a      	beq.n	8004e94 <USBD_SetConfig+0x74>
        {
          pdev->dev_config = cfgidx;
 8004e5e:	4b36      	ldr	r3, [pc, #216]	; (8004f38 <USBD_SetConfig+0x118>)
 8004e60:	781b      	ldrb	r3, [r3, #0]
 8004e62:	461a      	mov	r2, r3
 8004e64:	687b      	ldr	r3, [r7, #4]
 8004e66:	605a      	str	r2, [r3, #4]
          pdev->dev_state = USBD_STATE_CONFIGURED;
 8004e68:	687b      	ldr	r3, [r7, #4]
 8004e6a:	2203      	movs	r2, #3
 8004e6c:	f883 229c 	strb.w	r2, [r3, #668]	; 0x29c
          if (USBD_SetClassConfig(pdev, cfgidx) == USBD_FAIL)
 8004e70:	4b31      	ldr	r3, [pc, #196]	; (8004f38 <USBD_SetConfig+0x118>)
 8004e72:	781b      	ldrb	r3, [r3, #0]
 8004e74:	4619      	mov	r1, r3
 8004e76:	6878      	ldr	r0, [r7, #4]
 8004e78:	f7ff f9c6 	bl	8004208 <USBD_SetClassConfig>
 8004e7c:	4603      	mov	r3, r0
 8004e7e:	2b02      	cmp	r3, #2
 8004e80:	d104      	bne.n	8004e8c <USBD_SetConfig+0x6c>
          {
            USBD_CtlError(pdev, req);
 8004e82:	6839      	ldr	r1, [r7, #0]
 8004e84:	6878      	ldr	r0, [r7, #4]
 8004e86:	f000 f932 	bl	80050ee <USBD_CtlError>
            return;
 8004e8a:	e052      	b.n	8004f32 <USBD_SetConfig+0x112>
          }
          USBD_CtlSendStatus(pdev);
 8004e8c:	6878      	ldr	r0, [r7, #4]
 8004e8e:	f000 f9f7 	bl	8005280 <USBD_CtlSendStatus>
        }
        else
        {
          USBD_CtlSendStatus(pdev);
        }
        break;
 8004e92:	e04e      	b.n	8004f32 <USBD_SetConfig+0x112>
          USBD_CtlSendStatus(pdev);
 8004e94:	6878      	ldr	r0, [r7, #4]
 8004e96:	f000 f9f3 	bl	8005280 <USBD_CtlSendStatus>
        break;
 8004e9a:	e04a      	b.n	8004f32 <USBD_SetConfig+0x112>

      case USBD_STATE_CONFIGURED:
        if (cfgidx == 0U)
 8004e9c:	4b26      	ldr	r3, [pc, #152]	; (8004f38 <USBD_SetConfig+0x118>)
 8004e9e:	781b      	ldrb	r3, [r3, #0]
 8004ea0:	2b00      	cmp	r3, #0
 8004ea2:	d112      	bne.n	8004eca <USBD_SetConfig+0xaa>
        {
          pdev->dev_state = USBD_STATE_ADDRESSED;
 8004ea4:	687b      	ldr	r3, [r7, #4]
 8004ea6:	2202      	movs	r2, #2
 8004ea8:	f883 229c 	strb.w	r2, [r3, #668]	; 0x29c
          pdev->dev_config = cfgidx;
 8004eac:	4b22      	ldr	r3, [pc, #136]	; (8004f38 <USBD_SetConfig+0x118>)
 8004eae:	781b      	ldrb	r3, [r3, #0]
 8004eb0:	461a      	mov	r2, r3
 8004eb2:	687b      	ldr	r3, [r7, #4]
 8004eb4:	605a      	str	r2, [r3, #4]
          USBD_ClrClassConfig(pdev, cfgidx);
 8004eb6:	4b20      	ldr	r3, [pc, #128]	; (8004f38 <USBD_SetConfig+0x118>)
 8004eb8:	781b      	ldrb	r3, [r3, #0]
 8004eba:	4619      	mov	r1, r3
 8004ebc:	6878      	ldr	r0, [r7, #4]
 8004ebe:	f7ff f9c2 	bl	8004246 <USBD_ClrClassConfig>
          USBD_CtlSendStatus(pdev);
 8004ec2:	6878      	ldr	r0, [r7, #4]
 8004ec4:	f000 f9dc 	bl	8005280 <USBD_CtlSendStatus>
        }
        else
        {
          USBD_CtlSendStatus(pdev);
        }
        break;
 8004ec8:	e033      	b.n	8004f32 <USBD_SetConfig+0x112>
        else if (cfgidx != pdev->dev_config)
 8004eca:	4b1b      	ldr	r3, [pc, #108]	; (8004f38 <USBD_SetConfig+0x118>)
 8004ecc:	781b      	ldrb	r3, [r3, #0]
 8004ece:	461a      	mov	r2, r3
 8004ed0:	687b      	ldr	r3, [r7, #4]
 8004ed2:	685b      	ldr	r3, [r3, #4]
 8004ed4:	429a      	cmp	r2, r3
 8004ed6:	d01d      	beq.n	8004f14 <USBD_SetConfig+0xf4>
          USBD_ClrClassConfig(pdev, (uint8_t)pdev->dev_config);
 8004ed8:	687b      	ldr	r3, [r7, #4]
 8004eda:	685b      	ldr	r3, [r3, #4]
 8004edc:	b2db      	uxtb	r3, r3
 8004ede:	4619      	mov	r1, r3
 8004ee0:	6878      	ldr	r0, [r7, #4]
 8004ee2:	f7ff f9b0 	bl	8004246 <USBD_ClrClassConfig>
          pdev->dev_config = cfgidx;
 8004ee6:	4b14      	ldr	r3, [pc, #80]	; (8004f38 <USBD_SetConfig+0x118>)
 8004ee8:	781b      	ldrb	r3, [r3, #0]
 8004eea:	461a      	mov	r2, r3
 8004eec:	687b      	ldr	r3, [r7, #4]
 8004eee:	605a      	str	r2, [r3, #4]
          if (USBD_SetClassConfig(pdev, cfgidx) == USBD_FAIL)
 8004ef0:	4b11      	ldr	r3, [pc, #68]	; (8004f38 <USBD_SetConfig+0x118>)
 8004ef2:	781b      	ldrb	r3, [r3, #0]
 8004ef4:	4619      	mov	r1, r3
 8004ef6:	6878      	ldr	r0, [r7, #4]
 8004ef8:	f7ff f986 	bl	8004208 <USBD_SetClassConfig>
 8004efc:	4603      	mov	r3, r0
 8004efe:	2b02      	cmp	r3, #2
 8004f00:	d104      	bne.n	8004f0c <USBD_SetConfig+0xec>
            USBD_CtlError(pdev, req);
 8004f02:	6839      	ldr	r1, [r7, #0]
 8004f04:	6878      	ldr	r0, [r7, #4]
 8004f06:	f000 f8f2 	bl	80050ee <USBD_CtlError>
            return;
 8004f0a:	e012      	b.n	8004f32 <USBD_SetConfig+0x112>
          USBD_CtlSendStatus(pdev);
 8004f0c:	6878      	ldr	r0, [r7, #4]
 8004f0e:	f000 f9b7 	bl	8005280 <USBD_CtlSendStatus>
        break;
 8004f12:	e00e      	b.n	8004f32 <USBD_SetConfig+0x112>
          USBD_CtlSendStatus(pdev);
 8004f14:	6878      	ldr	r0, [r7, #4]
 8004f16:	f000 f9b3 	bl	8005280 <USBD_CtlSendStatus>
        break;
 8004f1a:	e00a      	b.n	8004f32 <USBD_SetConfig+0x112>

      default:
        USBD_CtlError(pdev, req);
 8004f1c:	6839      	ldr	r1, [r7, #0]
 8004f1e:	6878      	ldr	r0, [r7, #4]
 8004f20:	f000 f8e5 	bl	80050ee <USBD_CtlError>
        USBD_ClrClassConfig(pdev, cfgidx);
 8004f24:	4b04      	ldr	r3, [pc, #16]	; (8004f38 <USBD_SetConfig+0x118>)
 8004f26:	781b      	ldrb	r3, [r3, #0]
 8004f28:	4619      	mov	r1, r3
 8004f2a:	6878      	ldr	r0, [r7, #4]
 8004f2c:	f7ff f98b 	bl	8004246 <USBD_ClrClassConfig>
        break;
 8004f30:	bf00      	nop
    }
  }
}
 8004f32:	3708      	adds	r7, #8
 8004f34:	46bd      	mov	sp, r7
 8004f36:	bd80      	pop	{r7, pc}
 8004f38:	2000019c 	.word	0x2000019c

08004f3c <USBD_GetConfig>:
* @param  pdev: device instance
* @param  req: usb request
* @retval status
*/
static void USBD_GetConfig(USBD_HandleTypeDef *pdev, USBD_SetupReqTypedef *req)
{
 8004f3c:	b580      	push	{r7, lr}
 8004f3e:	b082      	sub	sp, #8
 8004f40:	af00      	add	r7, sp, #0
 8004f42:	6078      	str	r0, [r7, #4]
 8004f44:	6039      	str	r1, [r7, #0]
  if (req->wLength != 1U)
 8004f46:	683b      	ldr	r3, [r7, #0]
 8004f48:	88db      	ldrh	r3, [r3, #6]
 8004f4a:	2b01      	cmp	r3, #1
 8004f4c:	d004      	beq.n	8004f58 <USBD_GetConfig+0x1c>
  {
    USBD_CtlError(pdev, req);
 8004f4e:	6839      	ldr	r1, [r7, #0]
 8004f50:	6878      	ldr	r0, [r7, #4]
 8004f52:	f000 f8cc 	bl	80050ee <USBD_CtlError>
      default:
        USBD_CtlError(pdev, req);
        break;
    }
  }
}
 8004f56:	e021      	b.n	8004f9c <USBD_GetConfig+0x60>
    switch (pdev->dev_state)
 8004f58:	687b      	ldr	r3, [r7, #4]
 8004f5a:	f893 329c 	ldrb.w	r3, [r3, #668]	; 0x29c
 8004f5e:	2b01      	cmp	r3, #1
 8004f60:	db17      	blt.n	8004f92 <USBD_GetConfig+0x56>
 8004f62:	2b02      	cmp	r3, #2
 8004f64:	dd02      	ble.n	8004f6c <USBD_GetConfig+0x30>
 8004f66:	2b03      	cmp	r3, #3
 8004f68:	d00b      	beq.n	8004f82 <USBD_GetConfig+0x46>
 8004f6a:	e012      	b.n	8004f92 <USBD_GetConfig+0x56>
        pdev->dev_default_config = 0U;
 8004f6c:	687b      	ldr	r3, [r7, #4]
 8004f6e:	2200      	movs	r2, #0
 8004f70:	609a      	str	r2, [r3, #8]
        USBD_CtlSendData(pdev, (uint8_t *)(void *)&pdev->dev_default_config, 1U);
 8004f72:	687b      	ldr	r3, [r7, #4]
 8004f74:	3308      	adds	r3, #8
 8004f76:	2201      	movs	r2, #1
 8004f78:	4619      	mov	r1, r3
 8004f7a:	6878      	ldr	r0, [r7, #4]
 8004f7c:	f000 f922 	bl	80051c4 <USBD_CtlSendData>
        break;
 8004f80:	e00c      	b.n	8004f9c <USBD_GetConfig+0x60>
        USBD_CtlSendData(pdev, (uint8_t *)(void *)&pdev->dev_config, 1U);
 8004f82:	687b      	ldr	r3, [r7, #4]
 8004f84:	3304      	adds	r3, #4
 8004f86:	2201      	movs	r2, #1
 8004f88:	4619      	mov	r1, r3
 8004f8a:	6878      	ldr	r0, [r7, #4]
 8004f8c:	f000 f91a 	bl	80051c4 <USBD_CtlSendData>
        break;
 8004f90:	e004      	b.n	8004f9c <USBD_GetConfig+0x60>
        USBD_CtlError(pdev, req);
 8004f92:	6839      	ldr	r1, [r7, #0]
 8004f94:	6878      	ldr	r0, [r7, #4]
 8004f96:	f000 f8aa 	bl	80050ee <USBD_CtlError>
        break;
 8004f9a:	bf00      	nop
}
 8004f9c:	bf00      	nop
 8004f9e:	3708      	adds	r7, #8
 8004fa0:	46bd      	mov	sp, r7
 8004fa2:	bd80      	pop	{r7, pc}

08004fa4 <USBD_GetStatus>:
* @param  pdev: device instance
* @param  req: usb request
* @retval status
*/
static void USBD_GetStatus(USBD_HandleTypeDef *pdev, USBD_SetupReqTypedef *req)
{
 8004fa4:	b580      	push	{r7, lr}
 8004fa6:	b082      	sub	sp, #8
 8004fa8:	af00      	add	r7, sp, #0
 8004faa:	6078      	str	r0, [r7, #4]
 8004fac:	6039      	str	r1, [r7, #0]
  switch (pdev->dev_state)
 8004fae:	687b      	ldr	r3, [r7, #4]
 8004fb0:	f893 329c 	ldrb.w	r3, [r3, #668]	; 0x29c
 8004fb4:	3b01      	subs	r3, #1
 8004fb6:	2b02      	cmp	r3, #2
 8004fb8:	d81e      	bhi.n	8004ff8 <USBD_GetStatus+0x54>
  {
    case USBD_STATE_DEFAULT:
    case USBD_STATE_ADDRESSED:
    case USBD_STATE_CONFIGURED:
      if (req->wLength != 0x2U)
 8004fba:	683b      	ldr	r3, [r7, #0]
 8004fbc:	88db      	ldrh	r3, [r3, #6]
 8004fbe:	2b02      	cmp	r3, #2
 8004fc0:	d004      	beq.n	8004fcc <USBD_GetStatus+0x28>
      {
        USBD_CtlError(pdev, req);
 8004fc2:	6839      	ldr	r1, [r7, #0]
 8004fc4:	6878      	ldr	r0, [r7, #4]
 8004fc6:	f000 f892 	bl	80050ee <USBD_CtlError>
        break;
 8004fca:	e01a      	b.n	8005002 <USBD_GetStatus+0x5e>
      }

#if (USBD_SELF_POWERED == 1U)
      pdev->dev_config_status = USB_CONFIG_SELF_POWERED;
 8004fcc:	687b      	ldr	r3, [r7, #4]
 8004fce:	2201      	movs	r2, #1
 8004fd0:	60da      	str	r2, [r3, #12]
#else
      pdev->dev_config_status = 0U;
#endif

      if (pdev->dev_remote_wakeup)
 8004fd2:	687b      	ldr	r3, [r7, #4]
 8004fd4:	f8d3 32a4 	ldr.w	r3, [r3, #676]	; 0x2a4
 8004fd8:	2b00      	cmp	r3, #0
 8004fda:	d005      	beq.n	8004fe8 <USBD_GetStatus+0x44>
      {
        pdev->dev_config_status |= USB_CONFIG_REMOTE_WAKEUP;
 8004fdc:	687b      	ldr	r3, [r7, #4]
 8004fde:	68db      	ldr	r3, [r3, #12]
 8004fe0:	f043 0202 	orr.w	r2, r3, #2
 8004fe4:	687b      	ldr	r3, [r7, #4]
 8004fe6:	60da      	str	r2, [r3, #12]
      }

      USBD_CtlSendData(pdev, (uint8_t *)(void *)&pdev->dev_config_status, 2U);
 8004fe8:	687b      	ldr	r3, [r7, #4]
 8004fea:	330c      	adds	r3, #12
 8004fec:	2202      	movs	r2, #2
 8004fee:	4619      	mov	r1, r3
 8004ff0:	6878      	ldr	r0, [r7, #4]
 8004ff2:	f000 f8e7 	bl	80051c4 <USBD_CtlSendData>
      break;
 8004ff6:	e004      	b.n	8005002 <USBD_GetStatus+0x5e>

    default:
      USBD_CtlError(pdev, req);
 8004ff8:	6839      	ldr	r1, [r7, #0]
 8004ffa:	6878      	ldr	r0, [r7, #4]
 8004ffc:	f000 f877 	bl	80050ee <USBD_CtlError>
      break;
 8005000:	bf00      	nop
  }
}
 8005002:	bf00      	nop
 8005004:	3708      	adds	r7, #8
 8005006:	46bd      	mov	sp, r7
 8005008:	bd80      	pop	{r7, pc}

0800500a <USBD_SetFeature>:
* @param  req: usb request
* @retval status
*/
static void USBD_SetFeature(USBD_HandleTypeDef *pdev,
                            USBD_SetupReqTypedef *req)
{
 800500a:	b580      	push	{r7, lr}
 800500c:	b082      	sub	sp, #8
 800500e:	af00      	add	r7, sp, #0
 8005010:	6078      	str	r0, [r7, #4]
 8005012:	6039      	str	r1, [r7, #0]
  if (req->wValue == USB_FEATURE_REMOTE_WAKEUP)
 8005014:	683b      	ldr	r3, [r7, #0]
 8005016:	885b      	ldrh	r3, [r3, #2]
 8005018:	2b01      	cmp	r3, #1
 800501a:	d106      	bne.n	800502a <USBD_SetFeature+0x20>
  {
    pdev->dev_remote_wakeup = 1U;
 800501c:	687b      	ldr	r3, [r7, #4]
 800501e:	2201      	movs	r2, #1
 8005020:	f8c3 22a4 	str.w	r2, [r3, #676]	; 0x2a4
    USBD_CtlSendStatus(pdev);
 8005024:	6878      	ldr	r0, [r7, #4]
 8005026:	f000 f92b 	bl	8005280 <USBD_CtlSendStatus>
  }
}
 800502a:	bf00      	nop
 800502c:	3708      	adds	r7, #8
 800502e:	46bd      	mov	sp, r7
 8005030:	bd80      	pop	{r7, pc}

08005032 <USBD_ClrFeature>:
* @param  req: usb request
* @retval status
*/
static void USBD_ClrFeature(USBD_HandleTypeDef *pdev,
                            USBD_SetupReqTypedef *req)
{
 8005032:	b580      	push	{r7, lr}
 8005034:	b082      	sub	sp, #8
 8005036:	af00      	add	r7, sp, #0
 8005038:	6078      	str	r0, [r7, #4]
 800503a:	6039      	str	r1, [r7, #0]
  switch (pdev->dev_state)
 800503c:	687b      	ldr	r3, [r7, #4]
 800503e:	f893 329c 	ldrb.w	r3, [r3, #668]	; 0x29c
 8005042:	3b01      	subs	r3, #1
 8005044:	2b02      	cmp	r3, #2
 8005046:	d80b      	bhi.n	8005060 <USBD_ClrFeature+0x2e>
  {
    case USBD_STATE_DEFAULT:
    case USBD_STATE_ADDRESSED:
    case USBD_STATE_CONFIGURED:
      if (req->wValue == USB_FEATURE_REMOTE_WAKEUP)
 8005048:	683b      	ldr	r3, [r7, #0]
 800504a:	885b      	ldrh	r3, [r3, #2]
 800504c:	2b01      	cmp	r3, #1
 800504e:	d10c      	bne.n	800506a <USBD_ClrFeature+0x38>
      {
        pdev->dev_remote_wakeup = 0U;
 8005050:	687b      	ldr	r3, [r7, #4]
 8005052:	2200      	movs	r2, #0
 8005054:	f8c3 22a4 	str.w	r2, [r3, #676]	; 0x2a4
        USBD_CtlSendStatus(pdev);
 8005058:	6878      	ldr	r0, [r7, #4]
 800505a:	f000 f911 	bl	8005280 <USBD_CtlSendStatus>
      }
      break;
 800505e:	e004      	b.n	800506a <USBD_ClrFeature+0x38>

    default:
      USBD_CtlError(pdev, req);
 8005060:	6839      	ldr	r1, [r7, #0]
 8005062:	6878      	ldr	r0, [r7, #4]
 8005064:	f000 f843 	bl	80050ee <USBD_CtlError>
      break;
 8005068:	e000      	b.n	800506c <USBD_ClrFeature+0x3a>
      break;
 800506a:	bf00      	nop
  }
}
 800506c:	bf00      	nop
 800506e:	3708      	adds	r7, #8
 8005070:	46bd      	mov	sp, r7
 8005072:	bd80      	pop	{r7, pc}

08005074 <USBD_ParseSetupRequest>:
* @param  req: usb request
* @retval None
*/

void USBD_ParseSetupRequest(USBD_SetupReqTypedef *req, uint8_t *pdata)
{
 8005074:	b480      	push	{r7}
 8005076:	b083      	sub	sp, #12
 8005078:	af00      	add	r7, sp, #0
 800507a:	6078      	str	r0, [r7, #4]
 800507c:	6039      	str	r1, [r7, #0]
  req->bmRequest = *(uint8_t *)(pdata);
 800507e:	683b      	ldr	r3, [r7, #0]
 8005080:	781a      	ldrb	r2, [r3, #0]
 8005082:	687b      	ldr	r3, [r7, #4]
 8005084:	701a      	strb	r2, [r3, #0]
  req->bRequest = *(uint8_t *)(pdata + 1U);
 8005086:	683b      	ldr	r3, [r7, #0]
 8005088:	785a      	ldrb	r2, [r3, #1]
 800508a:	687b      	ldr	r3, [r7, #4]
 800508c:	705a      	strb	r2, [r3, #1]
  req->wValue = SWAPBYTE(pdata + 2U);
 800508e:	683b      	ldr	r3, [r7, #0]
 8005090:	3302      	adds	r3, #2
 8005092:	781b      	ldrb	r3, [r3, #0]
 8005094:	b29a      	uxth	r2, r3
 8005096:	683b      	ldr	r3, [r7, #0]
 8005098:	3303      	adds	r3, #3
 800509a:	781b      	ldrb	r3, [r3, #0]
 800509c:	b29b      	uxth	r3, r3
 800509e:	021b      	lsls	r3, r3, #8
 80050a0:	b29b      	uxth	r3, r3
 80050a2:	4413      	add	r3, r2
 80050a4:	b29a      	uxth	r2, r3
 80050a6:	687b      	ldr	r3, [r7, #4]
 80050a8:	805a      	strh	r2, [r3, #2]
  req->wIndex = SWAPBYTE(pdata + 4U);
 80050aa:	683b      	ldr	r3, [r7, #0]
 80050ac:	3304      	adds	r3, #4
 80050ae:	781b      	ldrb	r3, [r3, #0]
 80050b0:	b29a      	uxth	r2, r3
 80050b2:	683b      	ldr	r3, [r7, #0]
 80050b4:	3305      	adds	r3, #5
 80050b6:	781b      	ldrb	r3, [r3, #0]
 80050b8:	b29b      	uxth	r3, r3
 80050ba:	021b      	lsls	r3, r3, #8
 80050bc:	b29b      	uxth	r3, r3
 80050be:	4413      	add	r3, r2
 80050c0:	b29a      	uxth	r2, r3
 80050c2:	687b      	ldr	r3, [r7, #4]
 80050c4:	809a      	strh	r2, [r3, #4]
  req->wLength = SWAPBYTE(pdata + 6U);
 80050c6:	683b      	ldr	r3, [r7, #0]
 80050c8:	3306      	adds	r3, #6
 80050ca:	781b      	ldrb	r3, [r3, #0]
 80050cc:	b29a      	uxth	r2, r3
 80050ce:	683b      	ldr	r3, [r7, #0]
 80050d0:	3307      	adds	r3, #7
 80050d2:	781b      	ldrb	r3, [r3, #0]
 80050d4:	b29b      	uxth	r3, r3
 80050d6:	021b      	lsls	r3, r3, #8
 80050d8:	b29b      	uxth	r3, r3
 80050da:	4413      	add	r3, r2
 80050dc:	b29a      	uxth	r2, r3
 80050de:	687b      	ldr	r3, [r7, #4]
 80050e0:	80da      	strh	r2, [r3, #6]

}
 80050e2:	bf00      	nop
 80050e4:	370c      	adds	r7, #12
 80050e6:	46bd      	mov	sp, r7
 80050e8:	f85d 7b04 	ldr.w	r7, [sp], #4
 80050ec:	4770      	bx	lr

080050ee <USBD_CtlError>:
* @retval None
*/

void USBD_CtlError(USBD_HandleTypeDef *pdev,
                   USBD_SetupReqTypedef *req)
{
 80050ee:	b580      	push	{r7, lr}
 80050f0:	b082      	sub	sp, #8
 80050f2:	af00      	add	r7, sp, #0
 80050f4:	6078      	str	r0, [r7, #4]
 80050f6:	6039      	str	r1, [r7, #0]
  USBD_LL_StallEP(pdev, 0x80U);
 80050f8:	2180      	movs	r1, #128	; 0x80
 80050fa:	6878      	ldr	r0, [r7, #4]
 80050fc:	f000 fdf0 	bl	8005ce0 <USBD_LL_StallEP>
  USBD_LL_StallEP(pdev, 0U);
 8005100:	2100      	movs	r1, #0
 8005102:	6878      	ldr	r0, [r7, #4]
 8005104:	f000 fdec 	bl	8005ce0 <USBD_LL_StallEP>
}
 8005108:	bf00      	nop
 800510a:	3708      	adds	r7, #8
 800510c:	46bd      	mov	sp, r7
 800510e:	bd80      	pop	{r7, pc}

08005110 <USBD_GetString>:
  * @param  unicode : Formatted string buffer (unicode)
  * @param  len : descriptor length
  * @retval None
  */
void USBD_GetString(uint8_t *desc, uint8_t *unicode, uint16_t *len)
{
 8005110:	b580      	push	{r7, lr}
 8005112:	b086      	sub	sp, #24
 8005114:	af00      	add	r7, sp, #0
 8005116:	60f8      	str	r0, [r7, #12]
 8005118:	60b9      	str	r1, [r7, #8]
 800511a:	607a      	str	r2, [r7, #4]
  uint8_t idx = 0U;
 800511c:	2300      	movs	r3, #0
 800511e:	75fb      	strb	r3, [r7, #23]

  if (desc != NULL)
 8005120:	68fb      	ldr	r3, [r7, #12]
 8005122:	2b00      	cmp	r3, #0
 8005124:	d032      	beq.n	800518c <USBD_GetString+0x7c>
  {
    *len = (uint16_t)USBD_GetLen(desc) * 2U + 2U;
 8005126:	68f8      	ldr	r0, [r7, #12]
 8005128:	f000 f834 	bl	8005194 <USBD_GetLen>
 800512c:	4603      	mov	r3, r0
 800512e:	3301      	adds	r3, #1
 8005130:	b29b      	uxth	r3, r3
 8005132:	005b      	lsls	r3, r3, #1
 8005134:	b29a      	uxth	r2, r3
 8005136:	687b      	ldr	r3, [r7, #4]
 8005138:	801a      	strh	r2, [r3, #0]
    unicode[idx++] = *(uint8_t *)(void *)len;
 800513a:	7dfb      	ldrb	r3, [r7, #23]
 800513c:	1c5a      	adds	r2, r3, #1
 800513e:	75fa      	strb	r2, [r7, #23]
 8005140:	461a      	mov	r2, r3
 8005142:	68bb      	ldr	r3, [r7, #8]
 8005144:	4413      	add	r3, r2
 8005146:	687a      	ldr	r2, [r7, #4]
 8005148:	7812      	ldrb	r2, [r2, #0]
 800514a:	701a      	strb	r2, [r3, #0]
    unicode[idx++] = USB_DESC_TYPE_STRING;
 800514c:	7dfb      	ldrb	r3, [r7, #23]
 800514e:	1c5a      	adds	r2, r3, #1
 8005150:	75fa      	strb	r2, [r7, #23]
 8005152:	461a      	mov	r2, r3
 8005154:	68bb      	ldr	r3, [r7, #8]
 8005156:	4413      	add	r3, r2
 8005158:	2203      	movs	r2, #3
 800515a:	701a      	strb	r2, [r3, #0]

    while (*desc != '\0')
 800515c:	e012      	b.n	8005184 <USBD_GetString+0x74>
    {
      unicode[idx++] = *desc++;
 800515e:	68fb      	ldr	r3, [r7, #12]
 8005160:	1c5a      	adds	r2, r3, #1
 8005162:	60fa      	str	r2, [r7, #12]
 8005164:	7dfa      	ldrb	r2, [r7, #23]
 8005166:	1c51      	adds	r1, r2, #1
 8005168:	75f9      	strb	r1, [r7, #23]
 800516a:	4611      	mov	r1, r2
 800516c:	68ba      	ldr	r2, [r7, #8]
 800516e:	440a      	add	r2, r1
 8005170:	781b      	ldrb	r3, [r3, #0]
 8005172:	7013      	strb	r3, [r2, #0]
      unicode[idx++] =  0U;
 8005174:	7dfb      	ldrb	r3, [r7, #23]
 8005176:	1c5a      	adds	r2, r3, #1
 8005178:	75fa      	strb	r2, [r7, #23]
 800517a:	461a      	mov	r2, r3
 800517c:	68bb      	ldr	r3, [r7, #8]
 800517e:	4413      	add	r3, r2
 8005180:	2200      	movs	r2, #0
 8005182:	701a      	strb	r2, [r3, #0]
    while (*desc != '\0')
 8005184:	68fb      	ldr	r3, [r7, #12]
 8005186:	781b      	ldrb	r3, [r3, #0]
 8005188:	2b00      	cmp	r3, #0
 800518a:	d1e8      	bne.n	800515e <USBD_GetString+0x4e>
    }
  }
}
 800518c:	bf00      	nop
 800518e:	3718      	adds	r7, #24
 8005190:	46bd      	mov	sp, r7
 8005192:	bd80      	pop	{r7, pc}

08005194 <USBD_GetLen>:
  *         return the string length
   * @param  buf : pointer to the ascii string buffer
  * @retval string length
  */
static uint8_t USBD_GetLen(uint8_t *buf)
{
 8005194:	b480      	push	{r7}
 8005196:	b085      	sub	sp, #20
 8005198:	af00      	add	r7, sp, #0
 800519a:	6078      	str	r0, [r7, #4]
  uint8_t  len = 0U;
 800519c:	2300      	movs	r3, #0
 800519e:	73fb      	strb	r3, [r7, #15]

  while (*buf != '\0')
 80051a0:	e005      	b.n	80051ae <USBD_GetLen+0x1a>
  {
    len++;
 80051a2:	7bfb      	ldrb	r3, [r7, #15]
 80051a4:	3301      	adds	r3, #1
 80051a6:	73fb      	strb	r3, [r7, #15]
    buf++;
 80051a8:	687b      	ldr	r3, [r7, #4]
 80051aa:	3301      	adds	r3, #1
 80051ac:	607b      	str	r3, [r7, #4]
  while (*buf != '\0')
 80051ae:	687b      	ldr	r3, [r7, #4]
 80051b0:	781b      	ldrb	r3, [r3, #0]
 80051b2:	2b00      	cmp	r3, #0
 80051b4:	d1f5      	bne.n	80051a2 <USBD_GetLen+0xe>
  }

  return len;
 80051b6:	7bfb      	ldrb	r3, [r7, #15]
}
 80051b8:	4618      	mov	r0, r3
 80051ba:	3714      	adds	r7, #20
 80051bc:	46bd      	mov	sp, r7
 80051be:	f85d 7b04 	ldr.w	r7, [sp], #4
 80051c2:	4770      	bx	lr

080051c4 <USBD_CtlSendData>:
* @param  len: length of data to be sent
* @retval status
*/
USBD_StatusTypeDef USBD_CtlSendData(USBD_HandleTypeDef *pdev,
                                    uint8_t *pbuf, uint16_t len)
{
 80051c4:	b580      	push	{r7, lr}
 80051c6:	b084      	sub	sp, #16
 80051c8:	af00      	add	r7, sp, #0
 80051ca:	60f8      	str	r0, [r7, #12]
 80051cc:	60b9      	str	r1, [r7, #8]
 80051ce:	4613      	mov	r3, r2
 80051d0:	80fb      	strh	r3, [r7, #6]
  /* Set EP0 State */
  pdev->ep0_state = USBD_EP0_DATA_IN;
 80051d2:	68fb      	ldr	r3, [r7, #12]
 80051d4:	2202      	movs	r2, #2
 80051d6:	f8c3 2294 	str.w	r2, [r3, #660]	; 0x294
  pdev->ep_in[0].total_length = len;
 80051da:	88fa      	ldrh	r2, [r7, #6]
 80051dc:	68fb      	ldr	r3, [r7, #12]
 80051de:	61da      	str	r2, [r3, #28]
  pdev->ep_in[0].rem_length   = len;
 80051e0:	88fa      	ldrh	r2, [r7, #6]
 80051e2:	68fb      	ldr	r3, [r7, #12]
 80051e4:	621a      	str	r2, [r3, #32]

  /* Start the transfer */
  USBD_LL_Transmit(pdev, 0x00U, pbuf, len);
 80051e6:	88fb      	ldrh	r3, [r7, #6]
 80051e8:	68ba      	ldr	r2, [r7, #8]
 80051ea:	2100      	movs	r1, #0
 80051ec:	68f8      	ldr	r0, [r7, #12]
 80051ee:	f000 fdfa 	bl	8005de6 <USBD_LL_Transmit>

  return USBD_OK;
 80051f2:	2300      	movs	r3, #0
}
 80051f4:	4618      	mov	r0, r3
 80051f6:	3710      	adds	r7, #16
 80051f8:	46bd      	mov	sp, r7
 80051fa:	bd80      	pop	{r7, pc}

080051fc <USBD_CtlContinueSendData>:
* @param  len: length of data to be sent
* @retval status
*/
USBD_StatusTypeDef USBD_CtlContinueSendData(USBD_HandleTypeDef *pdev,
                                            uint8_t *pbuf, uint16_t len)
{
 80051fc:	b580      	push	{r7, lr}
 80051fe:	b084      	sub	sp, #16
 8005200:	af00      	add	r7, sp, #0
 8005202:	60f8      	str	r0, [r7, #12]
 8005204:	60b9      	str	r1, [r7, #8]
 8005206:	4613      	mov	r3, r2
 8005208:	80fb      	strh	r3, [r7, #6]
  /* Start the next transfer */
  USBD_LL_Transmit(pdev, 0x00U, pbuf, len);
 800520a:	88fb      	ldrh	r3, [r7, #6]
 800520c:	68ba      	ldr	r2, [r7, #8]
 800520e:	2100      	movs	r1, #0
 8005210:	68f8      	ldr	r0, [r7, #12]
 8005212:	f000 fde8 	bl	8005de6 <USBD_LL_Transmit>

  return USBD_OK;
 8005216:	2300      	movs	r3, #0
}
 8005218:	4618      	mov	r0, r3
 800521a:	3710      	adds	r7, #16
 800521c:	46bd      	mov	sp, r7
 800521e:	bd80      	pop	{r7, pc}

08005220 <USBD_CtlPrepareRx>:
* @param  len: length of data to be received
* @retval status
*/
USBD_StatusTypeDef USBD_CtlPrepareRx(USBD_HandleTypeDef *pdev,
                                     uint8_t *pbuf, uint16_t len)
{
 8005220:	b580      	push	{r7, lr}
 8005222:	b084      	sub	sp, #16
 8005224:	af00      	add	r7, sp, #0
 8005226:	60f8      	str	r0, [r7, #12]
 8005228:	60b9      	str	r1, [r7, #8]
 800522a:	4613      	mov	r3, r2
 800522c:	80fb      	strh	r3, [r7, #6]
  /* Set EP0 State */
  pdev->ep0_state = USBD_EP0_DATA_OUT;
 800522e:	68fb      	ldr	r3, [r7, #12]
 8005230:	2203      	movs	r2, #3
 8005232:	f8c3 2294 	str.w	r2, [r3, #660]	; 0x294
  pdev->ep_out[0].total_length = len;
 8005236:	88fa      	ldrh	r2, [r7, #6]
 8005238:	68fb      	ldr	r3, [r7, #12]
 800523a:	f8c3 215c 	str.w	r2, [r3, #348]	; 0x15c
  pdev->ep_out[0].rem_length   = len;
 800523e:	88fa      	ldrh	r2, [r7, #6]
 8005240:	68fb      	ldr	r3, [r7, #12]
 8005242:	f8c3 2160 	str.w	r2, [r3, #352]	; 0x160

  /* Start the transfer */
  USBD_LL_PrepareReceive(pdev, 0U, pbuf, len);
 8005246:	88fb      	ldrh	r3, [r7, #6]
 8005248:	68ba      	ldr	r2, [r7, #8]
 800524a:	2100      	movs	r1, #0
 800524c:	68f8      	ldr	r0, [r7, #12]
 800524e:	f000 fded 	bl	8005e2c <USBD_LL_PrepareReceive>

  return USBD_OK;
 8005252:	2300      	movs	r3, #0
}
 8005254:	4618      	mov	r0, r3
 8005256:	3710      	adds	r7, #16
 8005258:	46bd      	mov	sp, r7
 800525a:	bd80      	pop	{r7, pc}

0800525c <USBD_CtlContinueRx>:
* @param  len: length of data to be received
* @retval status
*/
USBD_StatusTypeDef USBD_CtlContinueRx(USBD_HandleTypeDef *pdev,
                                      uint8_t *pbuf, uint16_t len)
{
 800525c:	b580      	push	{r7, lr}
 800525e:	b084      	sub	sp, #16
 8005260:	af00      	add	r7, sp, #0
 8005262:	60f8      	str	r0, [r7, #12]
 8005264:	60b9      	str	r1, [r7, #8]
 8005266:	4613      	mov	r3, r2
 8005268:	80fb      	strh	r3, [r7, #6]
  USBD_LL_PrepareReceive(pdev, 0U, pbuf, len);
 800526a:	88fb      	ldrh	r3, [r7, #6]
 800526c:	68ba      	ldr	r2, [r7, #8]
 800526e:	2100      	movs	r1, #0
 8005270:	68f8      	ldr	r0, [r7, #12]
 8005272:	f000 fddb 	bl	8005e2c <USBD_LL_PrepareReceive>

  return USBD_OK;
 8005276:	2300      	movs	r3, #0
}
 8005278:	4618      	mov	r0, r3
 800527a:	3710      	adds	r7, #16
 800527c:	46bd      	mov	sp, r7
 800527e:	bd80      	pop	{r7, pc}

08005280 <USBD_CtlSendStatus>:
*         send zero lzngth packet on the ctl pipe
* @param  pdev: device instance
* @retval status
*/
USBD_StatusTypeDef USBD_CtlSendStatus(USBD_HandleTypeDef *pdev)
{
 8005280:	b580      	push	{r7, lr}
 8005282:	b082      	sub	sp, #8
 8005284:	af00      	add	r7, sp, #0
 8005286:	6078      	str	r0, [r7, #4]
  /* Set EP0 State */
  pdev->ep0_state = USBD_EP0_STATUS_IN;
 8005288:	687b      	ldr	r3, [r7, #4]
 800528a:	2204      	movs	r2, #4
 800528c:	f8c3 2294 	str.w	r2, [r3, #660]	; 0x294

  /* Start the transfer */
  USBD_LL_Transmit(pdev, 0x00U, NULL, 0U);
 8005290:	2300      	movs	r3, #0
 8005292:	2200      	movs	r2, #0
 8005294:	2100      	movs	r1, #0
 8005296:	6878      	ldr	r0, [r7, #4]
 8005298:	f000 fda5 	bl	8005de6 <USBD_LL_Transmit>

  return USBD_OK;
 800529c:	2300      	movs	r3, #0
}
 800529e:	4618      	mov	r0, r3
 80052a0:	3708      	adds	r7, #8
 80052a2:	46bd      	mov	sp, r7
 80052a4:	bd80      	pop	{r7, pc}

080052a6 <USBD_CtlReceiveStatus>:
*         receive zero lzngth packet on the ctl pipe
* @param  pdev: device instance
* @retval status
*/
USBD_StatusTypeDef USBD_CtlReceiveStatus(USBD_HandleTypeDef *pdev)
{
 80052a6:	b580      	push	{r7, lr}
 80052a8:	b082      	sub	sp, #8
 80052aa:	af00      	add	r7, sp, #0
 80052ac:	6078      	str	r0, [r7, #4]
  /* Set EP0 State */
  pdev->ep0_state = USBD_EP0_STATUS_OUT;
 80052ae:	687b      	ldr	r3, [r7, #4]
 80052b0:	2205      	movs	r2, #5
 80052b2:	f8c3 2294 	str.w	r2, [r3, #660]	; 0x294

  /* Start the transfer */
  USBD_LL_PrepareReceive(pdev, 0U, NULL, 0U);
 80052b6:	2300      	movs	r3, #0
 80052b8:	2200      	movs	r2, #0
 80052ba:	2100      	movs	r1, #0
 80052bc:	6878      	ldr	r0, [r7, #4]
 80052be:	f000 fdb5 	bl	8005e2c <USBD_LL_PrepareReceive>

  return USBD_OK;
 80052c2:	2300      	movs	r3, #0
}
 80052c4:	4618      	mov	r0, r3
 80052c6:	3708      	adds	r7, #8
 80052c8:	46bd      	mov	sp, r7
 80052ca:	bd80      	pop	{r7, pc}

080052cc <RING_init>:
 *  Created on: 7 cze 2020
 *      Author: Admin
 */
#include "RING.h"

void RING_init(Ring_type *ring) {
 80052cc:	b480      	push	{r7}
 80052ce:	b083      	sub	sp, #12
 80052d0:	af00      	add	r7, sp, #0
 80052d2:	6078      	str	r0, [r7, #4]
    ring->tail = ring->head = 0;
 80052d4:	687b      	ldr	r3, [r7, #4]
 80052d6:	2200      	movs	r2, #0
 80052d8:	f883 2801 	strb.w	r2, [r3, #2049]	; 0x801
 80052dc:	687b      	ldr	r3, [r7, #4]
 80052de:	f893 2801 	ldrb.w	r2, [r3, #2049]	; 0x801
 80052e2:	687b      	ldr	r3, [r7, #4]
 80052e4:	f883 2800 	strb.w	r2, [r3, #2048]	; 0x800
    ring->status = RING_IS_EMPTY;
 80052e8:	687b      	ldr	r3, [r7, #4]
 80052ea:	2200      	movs	r2, #0
 80052ec:	f883 2802 	strb.w	r2, [r3, #2050]	; 0x802
}
 80052f0:	bf00      	nop
 80052f2:	370c      	adds	r7, #12
 80052f4:	46bd      	mov	sp, r7
 80052f6:	f85d 7b04 	ldr.w	r7, [sp], #4
 80052fa:	4770      	bx	lr

080052fc <RING_is_full>:

uint8_t RING_is_empty(Ring_type *ring){
    return (RING_IS_EMPTY == ring->status);
}

uint8_t RING_is_full(Ring_type *ring) {
 80052fc:	b480      	push	{r7}
 80052fe:	b083      	sub	sp, #12
 8005300:	af00      	add	r7, sp, #0
 8005302:	6078      	str	r0, [r7, #4]
    return (RING_IS_FULL == ring->status);
 8005304:	687b      	ldr	r3, [r7, #4]
 8005306:	f893 3802 	ldrb.w	r3, [r3, #2050]	; 0x802
 800530a:	2b02      	cmp	r3, #2
 800530c:	bf0c      	ite	eq
 800530e:	2301      	moveq	r3, #1
 8005310:	2300      	movne	r3, #0
 8005312:	b2db      	uxtb	r3, r3
}
 8005314:	4618      	mov	r0, r3
 8005316:	370c      	adds	r7, #12
 8005318:	46bd      	mov	sp, r7
 800531a:	f85d 7b04 	ldr.w	r7, [sp], #4
 800531e:	4770      	bx	lr

08005320 <RING_put>:

void RING_put(Ring_type *ring, uint8_t *data, uint32_t len) {
 8005320:	b580      	push	{r7, lr}
 8005322:	b084      	sub	sp, #16
 8005324:	af00      	add	r7, sp, #0
 8005326:	60f8      	str	r0, [r7, #12]
 8005328:	60b9      	str	r1, [r7, #8]
 800532a:	607a      	str	r2, [r7, #4]
    if(RING_is_full(ring))
 800532c:	68f8      	ldr	r0, [r7, #12]
 800532e:	f7ff ffe5 	bl	80052fc <RING_is_full>
 8005332:	4603      	mov	r3, r0
 8005334:	2b00      	cmp	r3, #0
 8005336:	d144      	bne.n	80053c2 <RING_put+0xa2>
    	return;

    if(len > MAX_CAN_FRAME_SIZE)
 8005338:	687b      	ldr	r3, [r7, #4]
 800533a:	2b40      	cmp	r3, #64	; 0x40
 800533c:	d843      	bhi.n	80053c6 <RING_put+0xa6>
    	return;

    memcpy(&ring->data[ring->head][0], data, len);
 800533e:	68fb      	ldr	r3, [r7, #12]
 8005340:	f893 3801 	ldrb.w	r3, [r3, #2049]	; 0x801
 8005344:	019b      	lsls	r3, r3, #6
 8005346:	68fa      	ldr	r2, [r7, #12]
 8005348:	4413      	add	r3, r2
 800534a:	687a      	ldr	r2, [r7, #4]
 800534c:	68b9      	ldr	r1, [r7, #8]
 800534e:	4618      	mov	r0, r3
 8005350:	f000 ff7e 	bl	8006250 <memcpy>
    if(len < MAX_CAN_FRAME_SIZE) {
 8005354:	687b      	ldr	r3, [r7, #4]
 8005356:	2b3f      	cmp	r3, #63	; 0x3f
 8005358:	d80e      	bhi.n	8005378 <RING_put+0x58>
        memset(&ring->data[ring->head][len], 1, MAX_CAN_FRAME_SIZE - len);
 800535a:	68fb      	ldr	r3, [r7, #12]
 800535c:	f893 3801 	ldrb.w	r3, [r3, #2049]	; 0x801
 8005360:	019a      	lsls	r2, r3, #6
 8005362:	687b      	ldr	r3, [r7, #4]
 8005364:	4413      	add	r3, r2
 8005366:	68fa      	ldr	r2, [r7, #12]
 8005368:	18d0      	adds	r0, r2, r3
 800536a:	687b      	ldr	r3, [r7, #4]
 800536c:	f1c3 0340 	rsb	r3, r3, #64	; 0x40
 8005370:	461a      	mov	r2, r3
 8005372:	2101      	movs	r1, #1
 8005374:	f000 ff77 	bl	8006266 <memset>
    }
    ring->head++;
 8005378:	68fb      	ldr	r3, [r7, #12]
 800537a:	f893 3801 	ldrb.w	r3, [r3, #2049]	; 0x801
 800537e:	3301      	adds	r3, #1
 8005380:	b2da      	uxtb	r2, r3
 8005382:	68fb      	ldr	r3, [r7, #12]
 8005384:	f883 2801 	strb.w	r2, [r3, #2049]	; 0x801
    ring->status = RING_IS_NOT_FULL;
 8005388:	68fb      	ldr	r3, [r7, #12]
 800538a:	2201      	movs	r2, #1
 800538c:	f883 2802 	strb.w	r2, [r3, #2050]	; 0x802
    if(ring->head >= UCAN_FRAME_RX_FIFO_SIZE){
 8005390:	68fb      	ldr	r3, [r7, #12]
 8005392:	f893 3801 	ldrb.w	r3, [r3, #2049]	; 0x801
 8005396:	2b1f      	cmp	r3, #31
 8005398:	d903      	bls.n	80053a2 <RING_put+0x82>
        ring->head = 0;
 800539a:	68fb      	ldr	r3, [r7, #12]
 800539c:	2200      	movs	r2, #0
 800539e:	f883 2801 	strb.w	r2, [r3, #2049]	; 0x801
    }
    
    if((ring->head + 1) % UCAN_FRAME_RX_FIFO_SIZE == ring->tail) {
 80053a2:	68fb      	ldr	r3, [r7, #12]
 80053a4:	f893 3801 	ldrb.w	r3, [r3, #2049]	; 0x801
 80053a8:	3301      	adds	r3, #1
 80053aa:	f003 031f 	and.w	r3, r3, #31
 80053ae:	68fa      	ldr	r2, [r7, #12]
 80053b0:	f892 2800 	ldrb.w	r2, [r2, #2048]	; 0x800
 80053b4:	4293      	cmp	r3, r2
 80053b6:	d107      	bne.n	80053c8 <RING_put+0xa8>
        ring->status = RING_IS_FULL;
 80053b8:	68fb      	ldr	r3, [r7, #12]
 80053ba:	2202      	movs	r2, #2
 80053bc:	f883 2802 	strb.w	r2, [r3, #2050]	; 0x802
 80053c0:	e002      	b.n	80053c8 <RING_put+0xa8>
    	return;
 80053c2:	bf00      	nop
 80053c4:	e000      	b.n	80053c8 <RING_put+0xa8>
    	return;
 80053c6:	bf00      	nop
    }
}
 80053c8:	3710      	adds	r7, #16
 80053ca:	46bd      	mov	sp, r7
 80053cc:	bd80      	pop	{r7, pc}
	...

080053d0 <main>:
/**
  * @brief  The application entry point.
  * @retval int
  */
int main(void)
{
 80053d0:	b580      	push	{r7, lr}
 80053d2:	af00      	add	r7, sp, #0
  /* USER CODE END 1 */

  /* MCU Configuration--------------------------------------------------------*/

  /* Reset of all peripherals, Initializes the Flash interface and the Systick. */
  HAL_Init();
 80053d4:	f7fa ff20 	bl	8000218 <HAL_Init>
  /* USER CODE BEGIN Init */

  /* USER CODE END Init */

  /* Configure the system clock */
  SystemClock_Config();
 80053d8:	f000 f812 	bl	8005400 <SystemClock_Config>
  /* USER CODE BEGIN SysInit */

  /* USER CODE END SysInit */

  /* Initialize all configured peripherals */
  MX_GPIO_Init();
 80053dc:	f000 f8c2 	bl	8005564 <MX_GPIO_Init>
  MX_USB_Device_Init();
 80053e0:	f000 f9d8 	bl	8005794 <MX_USB_Device_Init>
  MX_FDCAN1_Init();
 80053e4:	f000 f876 	bl	80054d4 <MX_FDCAN1_Init>
  /* USER CODE BEGIN 2 */
  RING_init(&usb_rx);
 80053e8:	4803      	ldr	r0, [pc, #12]	; (80053f8 <main+0x28>)
 80053ea:	f7ff ff6f 	bl	80052cc <RING_init>
  RING_init(&usb_tx);
 80053ee:	4803      	ldr	r0, [pc, #12]	; (80053fc <main+0x2c>)
 80053f0:	f7ff ff6c 	bl	80052cc <RING_init>
  /* USER CODE END 2 */

  /* Infinite loop */
  /* USER CODE BEGIN WHILE */
  while (1)
 80053f4:	e7fe      	b.n	80053f4 <main+0x24>
 80053f6:	bf00      	nop
 80053f8:	20000c2c 	.word	0x20000c2c
 80053fc:	20000428 	.word	0x20000428

08005400 <SystemClock_Config>:
/**
  * @brief System Clock Configuration
  * @retval None
  */
void SystemClock_Config(void)
{
 8005400:	b580      	push	{r7, lr}
 8005402:	b0a4      	sub	sp, #144	; 0x90
 8005404:	af00      	add	r7, sp, #0
  RCC_OscInitTypeDef RCC_OscInitStruct = {0};
 8005406:	f107 0358 	add.w	r3, r7, #88	; 0x58
 800540a:	2238      	movs	r2, #56	; 0x38
 800540c:	2100      	movs	r1, #0
 800540e:	4618      	mov	r0, r3
 8005410:	f000 ff29 	bl	8006266 <memset>
  RCC_ClkInitTypeDef RCC_ClkInitStruct = {0};
 8005414:	f107 0344 	add.w	r3, r7, #68	; 0x44
 8005418:	2200      	movs	r2, #0
 800541a:	601a      	str	r2, [r3, #0]
 800541c:	605a      	str	r2, [r3, #4]
 800541e:	609a      	str	r2, [r3, #8]
 8005420:	60da      	str	r2, [r3, #12]
 8005422:	611a      	str	r2, [r3, #16]
  RCC_PeriphCLKInitTypeDef PeriphClkInit = {0};
 8005424:	463b      	mov	r3, r7
 8005426:	2244      	movs	r2, #68	; 0x44
 8005428:	2100      	movs	r1, #0
 800542a:	4618      	mov	r0, r3
 800542c:	f000 ff1b 	bl	8006266 <memset>

  /** Configure the main internal regulator output voltage 
  */
  HAL_PWREx_ControlVoltageScaling(PWR_REGULATOR_VOLTAGE_SCALE1);
 8005430:	f44f 7000 	mov.w	r0, #512	; 0x200
 8005434:	f7fc faea 	bl	8001a0c <HAL_PWREx_ControlVoltageScaling>
  /** Initializes the CPU, AHB and APB busses clocks 
  */
  RCC_OscInitStruct.OscillatorType = RCC_OSCILLATORTYPE_HSI;
 8005438:	2302      	movs	r3, #2
 800543a:	65bb      	str	r3, [r7, #88]	; 0x58
  RCC_OscInitStruct.HSIState = RCC_HSI_ON;
 800543c:	f44f 7380 	mov.w	r3, #256	; 0x100
 8005440:	667b      	str	r3, [r7, #100]	; 0x64
  RCC_OscInitStruct.HSICalibrationValue = RCC_HSICALIBRATION_DEFAULT;
 8005442:	2340      	movs	r3, #64	; 0x40
 8005444:	66bb      	str	r3, [r7, #104]	; 0x68
  RCC_OscInitStruct.PLL.PLLState = RCC_PLL_ON;
 8005446:	2302      	movs	r3, #2
 8005448:	677b      	str	r3, [r7, #116]	; 0x74
  RCC_OscInitStruct.PLL.PLLSource = RCC_PLLSOURCE_HSI;
 800544a:	2302      	movs	r3, #2
 800544c:	67bb      	str	r3, [r7, #120]	; 0x78
  RCC_OscInitStruct.PLL.PLLM = RCC_PLLM_DIV2;
 800544e:	2302      	movs	r3, #2
 8005450:	67fb      	str	r3, [r7, #124]	; 0x7c
  RCC_OscInitStruct.PLL.PLLN = 36;
 8005452:	2324      	movs	r3, #36	; 0x24
 8005454:	f8c7 3080 	str.w	r3, [r7, #128]	; 0x80
  RCC_OscInitStruct.PLL.PLLP = RCC_PLLP_DIV2;
 8005458:	2302      	movs	r3, #2
 800545a:	f8c7 3084 	str.w	r3, [r7, #132]	; 0x84
  RCC_OscInitStruct.PLL.PLLQ = RCC_PLLQ_DIV6;
 800545e:	2306      	movs	r3, #6
 8005460:	f8c7 3088 	str.w	r3, [r7, #136]	; 0x88
  RCC_OscInitStruct.PLL.PLLR = RCC_PLLR_DIV2;
 8005464:	2302      	movs	r3, #2
 8005466:	f8c7 308c 	str.w	r3, [r7, #140]	; 0x8c
  if (HAL_RCC_OscConfig(&RCC_OscInitStruct) != HAL_OK)
 800546a:	f107 0358 	add.w	r3, r7, #88	; 0x58
 800546e:	4618      	mov	r0, r3
 8005470:	f7fc fb70 	bl	8001b54 <HAL_RCC_OscConfig>
 8005474:	4603      	mov	r3, r0
 8005476:	2b00      	cmp	r3, #0
 8005478:	d001      	beq.n	800547e <SystemClock_Config+0x7e>
  {
    Error_Handler();
 800547a:	f000 f8bd 	bl	80055f8 <Error_Handler>
  }
  /** Initializes the CPU, AHB and APB busses clocks 
  */
  RCC_ClkInitStruct.ClockType = RCC_CLOCKTYPE_HCLK|RCC_CLOCKTYPE_SYSCLK
 800547e:	230f      	movs	r3, #15
 8005480:	647b      	str	r3, [r7, #68]	; 0x44
                              |RCC_CLOCKTYPE_PCLK1|RCC_CLOCKTYPE_PCLK2;
  RCC_ClkInitStruct.SYSCLKSource = RCC_SYSCLKSOURCE_PLLCLK;
 8005482:	2303      	movs	r3, #3
 8005484:	64bb      	str	r3, [r7, #72]	; 0x48
  RCC_ClkInitStruct.AHBCLKDivider = RCC_SYSCLK_DIV1;
 8005486:	2300      	movs	r3, #0
 8005488:	64fb      	str	r3, [r7, #76]	; 0x4c
  RCC_ClkInitStruct.APB1CLKDivider = RCC_HCLK_DIV1;
 800548a:	2300      	movs	r3, #0
 800548c:	653b      	str	r3, [r7, #80]	; 0x50
  RCC_ClkInitStruct.APB2CLKDivider = RCC_HCLK_DIV1;
 800548e:	2300      	movs	r3, #0
 8005490:	657b      	str	r3, [r7, #84]	; 0x54

  if (HAL_RCC_ClockConfig(&RCC_ClkInitStruct, FLASH_LATENCY_7) != HAL_OK)
 8005492:	f107 0344 	add.w	r3, r7, #68	; 0x44
 8005496:	2107      	movs	r1, #7
 8005498:	4618      	mov	r0, r3
 800549a:	f7fc fe73 	bl	8002184 <HAL_RCC_ClockConfig>
 800549e:	4603      	mov	r3, r0
 80054a0:	2b00      	cmp	r3, #0
 80054a2:	d001      	beq.n	80054a8 <SystemClock_Config+0xa8>
  {
    Error_Handler();
 80054a4:	f000 f8a8 	bl	80055f8 <Error_Handler>
  }
  /** Initializes the peripherals clocks 
  */
  PeriphClkInit.PeriphClockSelection = RCC_PERIPHCLK_USB|RCC_PERIPHCLK_FDCAN;
 80054a8:	f44f 5340 	mov.w	r3, #12288	; 0x3000
 80054ac:	603b      	str	r3, [r7, #0]
  PeriphClkInit.FdcanClockSelection = RCC_FDCANCLKSOURCE_PCLK1;
 80054ae:	f04f 7300 	mov.w	r3, #33554432	; 0x2000000
 80054b2:	633b      	str	r3, [r7, #48]	; 0x30
  PeriphClkInit.UsbClockSelection = RCC_USBCLKSOURCE_PLL;
 80054b4:	f04f 6300 	mov.w	r3, #134217728	; 0x8000000
 80054b8:	637b      	str	r3, [r7, #52]	; 0x34
  if (HAL_RCCEx_PeriphCLKConfig(&PeriphClkInit) != HAL_OK)
 80054ba:	463b      	mov	r3, r7
 80054bc:	4618      	mov	r0, r3
 80054be:	f7fd f845 	bl	800254c <HAL_RCCEx_PeriphCLKConfig>
 80054c2:	4603      	mov	r3, r0
 80054c4:	2b00      	cmp	r3, #0
 80054c6:	d001      	beq.n	80054cc <SystemClock_Config+0xcc>
  {
    Error_Handler();
 80054c8:	f000 f896 	bl	80055f8 <Error_Handler>
  }
}
 80054cc:	bf00      	nop
 80054ce:	3790      	adds	r7, #144	; 0x90
 80054d0:	46bd      	mov	sp, r7
 80054d2:	bd80      	pop	{r7, pc}

080054d4 <MX_FDCAN1_Init>:
  * @brief FDCAN1 Initialization Function
  * @param None
  * @retval None
  */
static void MX_FDCAN1_Init(void)
{
 80054d4:	b580      	push	{r7, lr}
 80054d6:	af00      	add	r7, sp, #0
  /* USER CODE END FDCAN1_Init 0 */

  /* USER CODE BEGIN FDCAN1_Init 1 */

  /* USER CODE END FDCAN1_Init 1 */
  hfdcan1.Instance = FDCAN1;
 80054d8:	4b20      	ldr	r3, [pc, #128]	; (800555c <MX_FDCAN1_Init+0x88>)
 80054da:	4a21      	ldr	r2, [pc, #132]	; (8005560 <MX_FDCAN1_Init+0x8c>)
 80054dc:	601a      	str	r2, [r3, #0]
  hfdcan1.Init.ClockDivider = FDCAN_CLOCK_DIV1;
 80054de:	4b1f      	ldr	r3, [pc, #124]	; (800555c <MX_FDCAN1_Init+0x88>)
 80054e0:	2200      	movs	r2, #0
 80054e2:	605a      	str	r2, [r3, #4]
  hfdcan1.Init.FrameFormat = FDCAN_FRAME_FD_NO_BRS;
 80054e4:	4b1d      	ldr	r3, [pc, #116]	; (800555c <MX_FDCAN1_Init+0x88>)
 80054e6:	f44f 7280 	mov.w	r2, #256	; 0x100
 80054ea:	609a      	str	r2, [r3, #8]
  hfdcan1.Init.Mode = FDCAN_MODE_NORMAL;
 80054ec:	4b1b      	ldr	r3, [pc, #108]	; (800555c <MX_FDCAN1_Init+0x88>)
 80054ee:	2200      	movs	r2, #0
 80054f0:	60da      	str	r2, [r3, #12]
  hfdcan1.Init.AutoRetransmission = DISABLE;
 80054f2:	4b1a      	ldr	r3, [pc, #104]	; (800555c <MX_FDCAN1_Init+0x88>)
 80054f4:	2200      	movs	r2, #0
 80054f6:	741a      	strb	r2, [r3, #16]
  hfdcan1.Init.TransmitPause = DISABLE;
 80054f8:	4b18      	ldr	r3, [pc, #96]	; (800555c <MX_FDCAN1_Init+0x88>)
 80054fa:	2200      	movs	r2, #0
 80054fc:	745a      	strb	r2, [r3, #17]
  hfdcan1.Init.ProtocolException = DISABLE;
 80054fe:	4b17      	ldr	r3, [pc, #92]	; (800555c <MX_FDCAN1_Init+0x88>)
 8005500:	2200      	movs	r2, #0
 8005502:	749a      	strb	r2, [r3, #18]
  hfdcan1.Init.NominalPrescaler = 1;
 8005504:	4b15      	ldr	r3, [pc, #84]	; (800555c <MX_FDCAN1_Init+0x88>)
 8005506:	2201      	movs	r2, #1
 8005508:	615a      	str	r2, [r3, #20]
  hfdcan1.Init.NominalSyncJumpWidth = 1;
 800550a:	4b14      	ldr	r3, [pc, #80]	; (800555c <MX_FDCAN1_Init+0x88>)
 800550c:	2201      	movs	r2, #1
 800550e:	619a      	str	r2, [r3, #24]
  hfdcan1.Init.NominalTimeSeg1 = 2;
 8005510:	4b12      	ldr	r3, [pc, #72]	; (800555c <MX_FDCAN1_Init+0x88>)
 8005512:	2202      	movs	r2, #2
 8005514:	61da      	str	r2, [r3, #28]
  hfdcan1.Init.NominalTimeSeg2 = 2;
 8005516:	4b11      	ldr	r3, [pc, #68]	; (800555c <MX_FDCAN1_Init+0x88>)
 8005518:	2202      	movs	r2, #2
 800551a:	621a      	str	r2, [r3, #32]
  hfdcan1.Init.DataPrescaler = 1;
 800551c:	4b0f      	ldr	r3, [pc, #60]	; (800555c <MX_FDCAN1_Init+0x88>)
 800551e:	2201      	movs	r2, #1
 8005520:	625a      	str	r2, [r3, #36]	; 0x24
  hfdcan1.Init.DataSyncJumpWidth = 1;
 8005522:	4b0e      	ldr	r3, [pc, #56]	; (800555c <MX_FDCAN1_Init+0x88>)
 8005524:	2201      	movs	r2, #1
 8005526:	629a      	str	r2, [r3, #40]	; 0x28
  hfdcan1.Init.DataTimeSeg1 = 1;
 8005528:	4b0c      	ldr	r3, [pc, #48]	; (800555c <MX_FDCAN1_Init+0x88>)
 800552a:	2201      	movs	r2, #1
 800552c:	62da      	str	r2, [r3, #44]	; 0x2c
  hfdcan1.Init.DataTimeSeg2 = 1;
 800552e:	4b0b      	ldr	r3, [pc, #44]	; (800555c <MX_FDCAN1_Init+0x88>)
 8005530:	2201      	movs	r2, #1
 8005532:	631a      	str	r2, [r3, #48]	; 0x30
  hfdcan1.Init.StdFiltersNbr = 0;
 8005534:	4b09      	ldr	r3, [pc, #36]	; (800555c <MX_FDCAN1_Init+0x88>)
 8005536:	2200      	movs	r2, #0
 8005538:	635a      	str	r2, [r3, #52]	; 0x34
  hfdcan1.Init.ExtFiltersNbr = 0;
 800553a:	4b08      	ldr	r3, [pc, #32]	; (800555c <MX_FDCAN1_Init+0x88>)
 800553c:	2200      	movs	r2, #0
 800553e:	639a      	str	r2, [r3, #56]	; 0x38
  hfdcan1.Init.TxFifoQueueMode = FDCAN_TX_FIFO_OPERATION;
 8005540:	4b06      	ldr	r3, [pc, #24]	; (800555c <MX_FDCAN1_Init+0x88>)
 8005542:	2200      	movs	r2, #0
 8005544:	63da      	str	r2, [r3, #60]	; 0x3c
  if (HAL_FDCAN_Init(&hfdcan1) != HAL_OK)
 8005546:	4805      	ldr	r0, [pc, #20]	; (800555c <MX_FDCAN1_Init+0x88>)
 8005548:	f7fa ffe6 	bl	8000518 <HAL_FDCAN_Init>
 800554c:	4603      	mov	r3, r0
 800554e:	2b00      	cmp	r3, #0
 8005550:	d001      	beq.n	8005556 <MX_FDCAN1_Init+0x82>
  {
    Error_Handler();
 8005552:	f000 f851 	bl	80055f8 <Error_Handler>
  }
  /* USER CODE BEGIN FDCAN1_Init 2 */

  /* USER CODE END FDCAN1_Init 2 */

}
 8005556:	bf00      	nop
 8005558:	bd80      	pop	{r7, pc}
 800555a:	bf00      	nop
 800555c:	200003c4 	.word	0x200003c4
 8005560:	40006400 	.word	0x40006400

08005564 <MX_GPIO_Init>:
  * @brief GPIO Initialization Function
  * @param None
  * @retval None
  */
static void MX_GPIO_Init(void)
{
 8005564:	b580      	push	{r7, lr}
 8005566:	b088      	sub	sp, #32
 8005568:	af00      	add	r7, sp, #0
  GPIO_InitTypeDef GPIO_InitStruct = {0};
 800556a:	f107 030c 	add.w	r3, r7, #12
 800556e:	2200      	movs	r2, #0
 8005570:	601a      	str	r2, [r3, #0]
 8005572:	605a      	str	r2, [r3, #4]
 8005574:	609a      	str	r2, [r3, #8]
 8005576:	60da      	str	r2, [r3, #12]
 8005578:	611a      	str	r2, [r3, #16]

  /* GPIO Ports Clock Enable */
  __HAL_RCC_GPIOF_CLK_ENABLE();
 800557a:	4b1d      	ldr	r3, [pc, #116]	; (80055f0 <MX_GPIO_Init+0x8c>)
 800557c:	6cdb      	ldr	r3, [r3, #76]	; 0x4c
 800557e:	4a1c      	ldr	r2, [pc, #112]	; (80055f0 <MX_GPIO_Init+0x8c>)
 8005580:	f043 0320 	orr.w	r3, r3, #32
 8005584:	64d3      	str	r3, [r2, #76]	; 0x4c
 8005586:	4b1a      	ldr	r3, [pc, #104]	; (80055f0 <MX_GPIO_Init+0x8c>)
 8005588:	6cdb      	ldr	r3, [r3, #76]	; 0x4c
 800558a:	f003 0320 	and.w	r3, r3, #32
 800558e:	60bb      	str	r3, [r7, #8]
 8005590:	68bb      	ldr	r3, [r7, #8]
  __HAL_RCC_GPIOA_CLK_ENABLE();
 8005592:	4b17      	ldr	r3, [pc, #92]	; (80055f0 <MX_GPIO_Init+0x8c>)
 8005594:	6cdb      	ldr	r3, [r3, #76]	; 0x4c
 8005596:	4a16      	ldr	r2, [pc, #88]	; (80055f0 <MX_GPIO_Init+0x8c>)
 8005598:	f043 0301 	orr.w	r3, r3, #1
 800559c:	64d3      	str	r3, [r2, #76]	; 0x4c
 800559e:	4b14      	ldr	r3, [pc, #80]	; (80055f0 <MX_GPIO_Init+0x8c>)
 80055a0:	6cdb      	ldr	r3, [r3, #76]	; 0x4c
 80055a2:	f003 0301 	and.w	r3, r3, #1
 80055a6:	607b      	str	r3, [r7, #4]
 80055a8:	687b      	ldr	r3, [r7, #4]
  __HAL_RCC_GPIOB_CLK_ENABLE();
 80055aa:	4b11      	ldr	r3, [pc, #68]	; (80055f0 <MX_GPIO_Init+0x8c>)
 80055ac:	6cdb      	ldr	r3, [r3, #76]	; 0x4c
 80055ae:	4a10      	ldr	r2, [pc, #64]	; (80055f0 <MX_GPIO_Init+0x8c>)
 80055b0:	f043 0302 	orr.w	r3, r3, #2
 80055b4:	64d3      	str	r3, [r2, #76]	; 0x4c
 80055b6:	4b0e      	ldr	r3, [pc, #56]	; (80055f0 <MX_GPIO_Init+0x8c>)
 80055b8:	6cdb      	ldr	r3, [r3, #76]	; 0x4c
 80055ba:	f003 0302 	and.w	r3, r3, #2
 80055be:	603b      	str	r3, [r7, #0]
 80055c0:	683b      	ldr	r3, [r7, #0]

  /*Configure GPIO pin Output Level */
  HAL_GPIO_WritePin(LED_GPIO_Port, LED_Pin, GPIO_PIN_RESET);
 80055c2:	2200      	movs	r2, #0
 80055c4:	2120      	movs	r1, #32
 80055c6:	480b      	ldr	r0, [pc, #44]	; (80055f4 <MX_GPIO_Init+0x90>)
 80055c8:	f7fb fad8 	bl	8000b7c <HAL_GPIO_WritePin>

  /*Configure GPIO pin : LED_Pin */
  GPIO_InitStruct.Pin = LED_Pin;
 80055cc:	2320      	movs	r3, #32
 80055ce:	60fb      	str	r3, [r7, #12]
  GPIO_InitStruct.Mode = GPIO_MODE_OUTPUT_PP;
 80055d0:	2301      	movs	r3, #1
 80055d2:	613b      	str	r3, [r7, #16]
  GPIO_InitStruct.Pull = GPIO_NOPULL;
 80055d4:	2300      	movs	r3, #0
 80055d6:	617b      	str	r3, [r7, #20]
  GPIO_InitStruct.Speed = GPIO_SPEED_FREQ_LOW;
 80055d8:	2300      	movs	r3, #0
 80055da:	61bb      	str	r3, [r7, #24]
  HAL_GPIO_Init(LED_GPIO_Port, &GPIO_InitStruct);
 80055dc:	f107 030c 	add.w	r3, r7, #12
 80055e0:	4619      	mov	r1, r3
 80055e2:	4804      	ldr	r0, [pc, #16]	; (80055f4 <MX_GPIO_Init+0x90>)
 80055e4:	f7fb f948 	bl	8000878 <HAL_GPIO_Init>

}
 80055e8:	bf00      	nop
 80055ea:	3720      	adds	r7, #32
 80055ec:	46bd      	mov	sp, r7
 80055ee:	bd80      	pop	{r7, pc}
 80055f0:	40021000 	.word	0x40021000
 80055f4:	48000400 	.word	0x48000400

080055f8 <Error_Handler>:
/**
  * @brief  This function is executed in case of error occurrence.
  * @retval None
  */
void Error_Handler(void)
{
 80055f8:	b480      	push	{r7}
 80055fa:	af00      	add	r7, sp, #0
  /* USER CODE BEGIN Error_Handler_Debug */
  /* User can add his own implementation to report the HAL error return state */

  /* USER CODE END Error_Handler_Debug */
}
 80055fc:	bf00      	nop
 80055fe:	46bd      	mov	sp, r7
 8005600:	f85d 7b04 	ldr.w	r7, [sp], #4
 8005604:	4770      	bx	lr
	...

08005608 <LL_PWR_DisableUCPDDeadBattery>:
  *         control to the UCPD (which should therefore be initialized before doing the disable).
  * @rmtoll CR3          UCPD_DBDIS           LL_PWR_DisableUCPDDeadBattery
  * @retval None
  */
__STATIC_INLINE void LL_PWR_DisableUCPDDeadBattery(void)
{
 8005608:	b480      	push	{r7}
 800560a:	af00      	add	r7, sp, #0
  SET_BIT(PWR->CR3, PWR_CR3_UCPD_DBDIS);
 800560c:	4b05      	ldr	r3, [pc, #20]	; (8005624 <LL_PWR_DisableUCPDDeadBattery+0x1c>)
 800560e:	689b      	ldr	r3, [r3, #8]
 8005610:	4a04      	ldr	r2, [pc, #16]	; (8005624 <LL_PWR_DisableUCPDDeadBattery+0x1c>)
 8005612:	f443 4380 	orr.w	r3, r3, #16384	; 0x4000
 8005616:	6093      	str	r3, [r2, #8]
}
 8005618:	bf00      	nop
 800561a:	46bd      	mov	sp, r7
 800561c:	f85d 7b04 	ldr.w	r7, [sp], #4
 8005620:	4770      	bx	lr
 8005622:	bf00      	nop
 8005624:	40007000 	.word	0x40007000

08005628 <HAL_MspInit>:
/* USER CODE END 0 */
/**
  * Initializes the Global MSP.
  */
void HAL_MspInit(void)
{
 8005628:	b580      	push	{r7, lr}
 800562a:	b082      	sub	sp, #8
 800562c:	af00      	add	r7, sp, #0
  /* USER CODE BEGIN MspInit 0 */

  /* USER CODE END MspInit 0 */

  __HAL_RCC_SYSCFG_CLK_ENABLE();
 800562e:	4b0f      	ldr	r3, [pc, #60]	; (800566c <HAL_MspInit+0x44>)
 8005630:	6e1b      	ldr	r3, [r3, #96]	; 0x60
 8005632:	4a0e      	ldr	r2, [pc, #56]	; (800566c <HAL_MspInit+0x44>)
 8005634:	f043 0301 	orr.w	r3, r3, #1
 8005638:	6613      	str	r3, [r2, #96]	; 0x60
 800563a:	4b0c      	ldr	r3, [pc, #48]	; (800566c <HAL_MspInit+0x44>)
 800563c:	6e1b      	ldr	r3, [r3, #96]	; 0x60
 800563e:	f003 0301 	and.w	r3, r3, #1
 8005642:	607b      	str	r3, [r7, #4]
 8005644:	687b      	ldr	r3, [r7, #4]
  __HAL_RCC_PWR_CLK_ENABLE();
 8005646:	4b09      	ldr	r3, [pc, #36]	; (800566c <HAL_MspInit+0x44>)
 8005648:	6d9b      	ldr	r3, [r3, #88]	; 0x58
 800564a:	4a08      	ldr	r2, [pc, #32]	; (800566c <HAL_MspInit+0x44>)
 800564c:	f043 5380 	orr.w	r3, r3, #268435456	; 0x10000000
 8005650:	6593      	str	r3, [r2, #88]	; 0x58
 8005652:	4b06      	ldr	r3, [pc, #24]	; (800566c <HAL_MspInit+0x44>)
 8005654:	6d9b      	ldr	r3, [r3, #88]	; 0x58
 8005656:	f003 5380 	and.w	r3, r3, #268435456	; 0x10000000
 800565a:	603b      	str	r3, [r7, #0]
 800565c:	683b      	ldr	r3, [r7, #0]

  /* System interrupt init*/

  /** Disable the internal Pull-Up in Dead Battery pins of UCPD peripheral 
  */
  LL_PWR_DisableDeadBatteryPD();
 800565e:	f7ff ffd3 	bl	8005608 <LL_PWR_DisableUCPDDeadBattery>

  /* USER CODE BEGIN MspInit 1 */

  /* USER CODE END MspInit 1 */
}
 8005662:	bf00      	nop
 8005664:	3708      	adds	r7, #8
 8005666:	46bd      	mov	sp, r7
 8005668:	bd80      	pop	{r7, pc}
 800566a:	bf00      	nop
 800566c:	40021000 	.word	0x40021000

08005670 <HAL_FDCAN_MspInit>:
* This function configures the hardware resources used in this example
* @param hfdcan: FDCAN handle pointer
* @retval None
*/
void HAL_FDCAN_MspInit(FDCAN_HandleTypeDef* hfdcan)
{
 8005670:	b580      	push	{r7, lr}
 8005672:	b08a      	sub	sp, #40	; 0x28
 8005674:	af00      	add	r7, sp, #0
 8005676:	6078      	str	r0, [r7, #4]
  GPIO_InitTypeDef GPIO_InitStruct = {0};
 8005678:	f107 0314 	add.w	r3, r7, #20
 800567c:	2200      	movs	r2, #0
 800567e:	601a      	str	r2, [r3, #0]
 8005680:	605a      	str	r2, [r3, #4]
 8005682:	609a      	str	r2, [r3, #8]
 8005684:	60da      	str	r2, [r3, #12]
 8005686:	611a      	str	r2, [r3, #16]
  if(hfdcan->Instance==FDCAN1)
 8005688:	687b      	ldr	r3, [r7, #4]
 800568a:	681b      	ldr	r3, [r3, #0]
 800568c:	4a17      	ldr	r2, [pc, #92]	; (80056ec <HAL_FDCAN_MspInit+0x7c>)
 800568e:	4293      	cmp	r3, r2
 8005690:	d128      	bne.n	80056e4 <HAL_FDCAN_MspInit+0x74>
  {
  /* USER CODE BEGIN FDCAN1_MspInit 0 */

  /* USER CODE END FDCAN1_MspInit 0 */
    /* Peripheral clock enable */
    __HAL_RCC_FDCAN_CLK_ENABLE();
 8005692:	4b17      	ldr	r3, [pc, #92]	; (80056f0 <HAL_FDCAN_MspInit+0x80>)
 8005694:	6d9b      	ldr	r3, [r3, #88]	; 0x58
 8005696:	4a16      	ldr	r2, [pc, #88]	; (80056f0 <HAL_FDCAN_MspInit+0x80>)
 8005698:	f043 7300 	orr.w	r3, r3, #33554432	; 0x2000000
 800569c:	6593      	str	r3, [r2, #88]	; 0x58
 800569e:	4b14      	ldr	r3, [pc, #80]	; (80056f0 <HAL_FDCAN_MspInit+0x80>)
 80056a0:	6d9b      	ldr	r3, [r3, #88]	; 0x58
 80056a2:	f003 7300 	and.w	r3, r3, #33554432	; 0x2000000
 80056a6:	613b      	str	r3, [r7, #16]
 80056a8:	693b      	ldr	r3, [r7, #16]
  
    __HAL_RCC_GPIOB_CLK_ENABLE();
 80056aa:	4b11      	ldr	r3, [pc, #68]	; (80056f0 <HAL_FDCAN_MspInit+0x80>)
 80056ac:	6cdb      	ldr	r3, [r3, #76]	; 0x4c
 80056ae:	4a10      	ldr	r2, [pc, #64]	; (80056f0 <HAL_FDCAN_MspInit+0x80>)
 80056b0:	f043 0302 	orr.w	r3, r3, #2
 80056b4:	64d3      	str	r3, [r2, #76]	; 0x4c
 80056b6:	4b0e      	ldr	r3, [pc, #56]	; (80056f0 <HAL_FDCAN_MspInit+0x80>)
 80056b8:	6cdb      	ldr	r3, [r3, #76]	; 0x4c
 80056ba:	f003 0302 	and.w	r3, r3, #2
 80056be:	60fb      	str	r3, [r7, #12]
 80056c0:	68fb      	ldr	r3, [r7, #12]
    /**FDCAN1 GPIO Configuration    
    PB8-BOOT0     ------> FDCAN1_RX
    PB9     ------> FDCAN1_TX 
    */
    GPIO_InitStruct.Pin = GPIO_PIN_8|GPIO_PIN_9;
 80056c2:	f44f 7340 	mov.w	r3, #768	; 0x300
 80056c6:	617b      	str	r3, [r7, #20]
    GPIO_InitStruct.Mode = GPIO_MODE_AF_PP;
 80056c8:	2302      	movs	r3, #2
 80056ca:	61bb      	str	r3, [r7, #24]
    GPIO_InitStruct.Pull = GPIO_NOPULL;
 80056cc:	2300      	movs	r3, #0
 80056ce:	61fb      	str	r3, [r7, #28]
    GPIO_InitStruct.Speed = GPIO_SPEED_FREQ_LOW;
 80056d0:	2300      	movs	r3, #0
 80056d2:	623b      	str	r3, [r7, #32]
    GPIO_InitStruct.Alternate = GPIO_AF9_FDCAN1;
 80056d4:	2309      	movs	r3, #9
 80056d6:	627b      	str	r3, [r7, #36]	; 0x24
    HAL_GPIO_Init(GPIOB, &GPIO_InitStruct);
 80056d8:	f107 0314 	add.w	r3, r7, #20
 80056dc:	4619      	mov	r1, r3
 80056de:	4805      	ldr	r0, [pc, #20]	; (80056f4 <HAL_FDCAN_MspInit+0x84>)
 80056e0:	f7fb f8ca 	bl	8000878 <HAL_GPIO_Init>
  /* USER CODE BEGIN FDCAN1_MspInit 1 */

  /* USER CODE END FDCAN1_MspInit 1 */
  }

}
 80056e4:	bf00      	nop
 80056e6:	3728      	adds	r7, #40	; 0x28
 80056e8:	46bd      	mov	sp, r7
 80056ea:	bd80      	pop	{r7, pc}
 80056ec:	40006400 	.word	0x40006400
 80056f0:	40021000 	.word	0x40021000
 80056f4:	48000400 	.word	0x48000400

080056f8 <NMI_Handler>:
/******************************************************************************/
/**
  * @brief This function handles Non maskable interrupt.
  */
void NMI_Handler(void)
{
 80056f8:	b480      	push	{r7}
 80056fa:	af00      	add	r7, sp, #0

  /* USER CODE END NonMaskableInt_IRQn 0 */
  /* USER CODE BEGIN NonMaskableInt_IRQn 1 */

  /* USER CODE END NonMaskableInt_IRQn 1 */
}
 80056fc:	bf00      	nop
 80056fe:	46bd      	mov	sp, r7
 8005700:	f85d 7b04 	ldr.w	r7, [sp], #4
 8005704:	4770      	bx	lr

08005706 <HardFault_Handler>:

/**
  * @brief This function handles Hard fault interrupt.
  */
void HardFault_Handler(void)
{
 8005706:	b480      	push	{r7}
 8005708:	af00      	add	r7, sp, #0
  /* USER CODE BEGIN HardFault_IRQn 0 */

  /* USER CODE END HardFault_IRQn 0 */
  while (1)
 800570a:	e7fe      	b.n	800570a <HardFault_Handler+0x4>

0800570c <MemManage_Handler>:

/**
  * @brief This function handles Memory management fault.
  */
void MemManage_Handler(void)
{
 800570c:	b480      	push	{r7}
 800570e:	af00      	add	r7, sp, #0
  /* USER CODE BEGIN MemoryManagement_IRQn 0 */

  /* USER CODE END MemoryManagement_IRQn 0 */
  while (1)
 8005710:	e7fe      	b.n	8005710 <MemManage_Handler+0x4>

08005712 <BusFault_Handler>:

/**
  * @brief This function handles Prefetch fault, memory access fault.
  */
void BusFault_Handler(void)
{
 8005712:	b480      	push	{r7}
 8005714:	af00      	add	r7, sp, #0
  /* USER CODE BEGIN BusFault_IRQn 0 */

  /* USER CODE END BusFault_IRQn 0 */
  while (1)
 8005716:	e7fe      	b.n	8005716 <BusFault_Handler+0x4>

08005718 <UsageFault_Handler>:

/**
  * @brief This function handles Undefined instruction or illegal state.
  */
void UsageFault_Handler(void)
{
 8005718:	b480      	push	{r7}
 800571a:	af00      	add	r7, sp, #0
  /* USER CODE BEGIN UsageFault_IRQn 0 */

  /* USER CODE END UsageFault_IRQn 0 */
  while (1)
 800571c:	e7fe      	b.n	800571c <UsageFault_Handler+0x4>

0800571e <SVC_Handler>:

/**
  * @brief This function handles System service call via SWI instruction.
  */
void SVC_Handler(void)
{
 800571e:	b480      	push	{r7}
 8005720:	af00      	add	r7, sp, #0

  /* USER CODE END SVCall_IRQn 0 */
  /* USER CODE BEGIN SVCall_IRQn 1 */

  /* USER CODE END SVCall_IRQn 1 */
}
 8005722:	bf00      	nop
 8005724:	46bd      	mov	sp, r7
 8005726:	f85d 7b04 	ldr.w	r7, [sp], #4
 800572a:	4770      	bx	lr

0800572c <DebugMon_Handler>:

/**
  * @brief This function handles Debug monitor.
  */
void DebugMon_Handler(void)
{
 800572c:	b480      	push	{r7}
 800572e:	af00      	add	r7, sp, #0

  /* USER CODE END DebugMonitor_IRQn 0 */
  /* USER CODE BEGIN DebugMonitor_IRQn 1 */

  /* USER CODE END DebugMonitor_IRQn 1 */
}
 8005730:	bf00      	nop
 8005732:	46bd      	mov	sp, r7
 8005734:	f85d 7b04 	ldr.w	r7, [sp], #4
 8005738:	4770      	bx	lr

0800573a <PendSV_Handler>:

/**
  * @brief This function handles Pendable request for system service.
  */
void PendSV_Handler(void)
{
 800573a:	b480      	push	{r7}
 800573c:	af00      	add	r7, sp, #0

  /* USER CODE END PendSV_IRQn 0 */
  /* USER CODE BEGIN PendSV_IRQn 1 */

  /* USER CODE END PendSV_IRQn 1 */
}
 800573e:	bf00      	nop
 8005740:	46bd      	mov	sp, r7
 8005742:	f85d 7b04 	ldr.w	r7, [sp], #4
 8005746:	4770      	bx	lr

08005748 <SysTick_Handler>:

/**
  * @brief This function handles System tick timer.
  */
void SysTick_Handler(void)
{
 8005748:	b580      	push	{r7, lr}
 800574a:	af00      	add	r7, sp, #0
  /* USER CODE BEGIN SysTick_IRQn 0 */

  /* USER CODE END SysTick_IRQn 0 */
  HAL_IncTick();
 800574c:	f7fa fdb6 	bl	80002bc <HAL_IncTick>
  /* USER CODE BEGIN SysTick_IRQn 1 */

  /* USER CODE END SysTick_IRQn 1 */
}
 8005750:	bf00      	nop
 8005752:	bd80      	pop	{r7, pc}

08005754 <USB_LP_IRQHandler>:

/**
  * @brief This function handles USB low priority interrupt remap.
  */
void USB_LP_IRQHandler(void)
{
 8005754:	b580      	push	{r7, lr}
 8005756:	af00      	add	r7, sp, #0
  /* USER CODE BEGIN USB_LP_IRQn 0 */

  /* USER CODE END USB_LP_IRQn 0 */
  HAL_PCD_IRQHandler(&hpcd_USB_FS);
 8005758:	4802      	ldr	r0, [pc, #8]	; (8005764 <USB_LP_IRQHandler+0x10>)
 800575a:	f7fb fb1d 	bl	8000d98 <HAL_PCD_IRQHandler>
  /* USER CODE BEGIN USB_LP_IRQn 1 */

  /* USER CODE END USB_LP_IRQn 1 */
}
 800575e:	bf00      	nop
 8005760:	bd80      	pop	{r7, pc}
 8005762:	bf00      	nop
 8005764:	20001ec4 	.word	0x20001ec4

08005768 <SystemInit>:
  * @param  None
  * @retval None
  */

void SystemInit(void)
{
 8005768:	b480      	push	{r7}
 800576a:	af00      	add	r7, sp, #0
  /* FPU settings ------------------------------------------------------------*/
  #if (__FPU_PRESENT == 1) && (__FPU_USED == 1)
    SCB->CPACR |= ((3UL << (10*2))|(3UL << (11*2)));  /* set CP10 and CP11 Full Access */
 800576c:	4b08      	ldr	r3, [pc, #32]	; (8005790 <SystemInit+0x28>)
 800576e:	f8d3 3088 	ldr.w	r3, [r3, #136]	; 0x88
 8005772:	4a07      	ldr	r2, [pc, #28]	; (8005790 <SystemInit+0x28>)
 8005774:	f443 0370 	orr.w	r3, r3, #15728640	; 0xf00000
 8005778:	f8c2 3088 	str.w	r3, [r2, #136]	; 0x88

  /* Configure the Vector Table location add offset address ------------------*/
#ifdef VECT_TAB_SRAM
  SCB->VTOR = SRAM_BASE | VECT_TAB_OFFSET; /* Vector Table Relocation in Internal SRAM */
#else
  SCB->VTOR = FLASH_BASE | VECT_TAB_OFFSET; /* Vector Table Relocation in Internal FLASH */
 800577c:	4b04      	ldr	r3, [pc, #16]	; (8005790 <SystemInit+0x28>)
 800577e:	f04f 6200 	mov.w	r2, #134217728	; 0x8000000
 8005782:	609a      	str	r2, [r3, #8]
#endif
}
 8005784:	bf00      	nop
 8005786:	46bd      	mov	sp, r7
 8005788:	f85d 7b04 	ldr.w	r7, [sp], #4
 800578c:	4770      	bx	lr
 800578e:	bf00      	nop
 8005790:	e000ed00 	.word	0xe000ed00

08005794 <MX_USB_Device_Init>:
/**
  * Init USB device Library, add supported class and start the library
  * @retval None
  */
void MX_USB_Device_Init(void)
{
 8005794:	b580      	push	{r7, lr}
 8005796:	af00      	add	r7, sp, #0
  /* USER CODE BEGIN USB_Device_Init_PreTreatment */
  
  /* USER CODE END USB_Device_Init_PreTreatment */
  
  /* Init Device Library, add supported class and start the library. */
  if (USBD_Init(&hUsbDeviceFS, &CDC_Desc, DEVICE_FS) != USBD_OK) {
 8005798:	2200      	movs	r2, #0
 800579a:	4912      	ldr	r1, [pc, #72]	; (80057e4 <MX_USB_Device_Init+0x50>)
 800579c:	4812      	ldr	r0, [pc, #72]	; (80057e8 <MX_USB_Device_Init+0x54>)
 800579e:	f7fe fcd7 	bl	8004150 <USBD_Init>
 80057a2:	4603      	mov	r3, r0
 80057a4:	2b00      	cmp	r3, #0
 80057a6:	d001      	beq.n	80057ac <MX_USB_Device_Init+0x18>
    Error_Handler();
 80057a8:	f7ff ff26 	bl	80055f8 <Error_Handler>
  }
  if (USBD_RegisterClass(&hUsbDeviceFS, &USBD_CDC) != USBD_OK) {
 80057ac:	490f      	ldr	r1, [pc, #60]	; (80057ec <MX_USB_Device_Init+0x58>)
 80057ae:	480e      	ldr	r0, [pc, #56]	; (80057e8 <MX_USB_Device_Init+0x54>)
 80057b0:	f7fe fcf9 	bl	80041a6 <USBD_RegisterClass>
 80057b4:	4603      	mov	r3, r0
 80057b6:	2b00      	cmp	r3, #0
 80057b8:	d001      	beq.n	80057be <MX_USB_Device_Init+0x2a>
    Error_Handler();
 80057ba:	f7ff ff1d 	bl	80055f8 <Error_Handler>
  }
  if (USBD_CDC_RegisterInterface(&hUsbDeviceFS, &USBD_Interface_fops_FS) != USBD_OK) {
 80057be:	490c      	ldr	r1, [pc, #48]	; (80057f0 <MX_USB_Device_Init+0x5c>)
 80057c0:	4809      	ldr	r0, [pc, #36]	; (80057e8 <MX_USB_Device_Init+0x54>)
 80057c2:	f7fe fc27 	bl	8004014 <USBD_CDC_RegisterInterface>
 80057c6:	4603      	mov	r3, r0
 80057c8:	2b00      	cmp	r3, #0
 80057ca:	d001      	beq.n	80057d0 <MX_USB_Device_Init+0x3c>
    Error_Handler();
 80057cc:	f7ff ff14 	bl	80055f8 <Error_Handler>
  }
  if (USBD_Start(&hUsbDeviceFS) != USBD_OK) {
 80057d0:	4805      	ldr	r0, [pc, #20]	; (80057e8 <MX_USB_Device_Init+0x54>)
 80057d2:	f7fe fd02 	bl	80041da <USBD_Start>
 80057d6:	4603      	mov	r3, r0
 80057d8:	2b00      	cmp	r3, #0
 80057da:	d001      	beq.n	80057e0 <MX_USB_Device_Init+0x4c>
    Error_Handler();
 80057dc:	f7ff ff0c 	bl	80055f8 <Error_Handler>
  }
  /* USER CODE BEGIN USB_Device_Init_PostTreatment */
  
  /* USER CODE END USB_Device_Init_PostTreatment */
}
 80057e0:	bf00      	nop
 80057e2:	bd80      	pop	{r7, pc}
 80057e4:	2000012c 	.word	0x2000012c
 80057e8:	20001430 	.word	0x20001430
 80057ec:	20000014 	.word	0x20000014
 80057f0:	2000011c 	.word	0x2000011c

080057f4 <CDC_Init_FS>:
/**
  * @brief  Initializes the CDC media low layer over the FS USB IP
  * @retval USBD_OK if all operations are OK else USBD_FAIL
  */
static int8_t CDC_Init_FS(void)
{
 80057f4:	b580      	push	{r7, lr}
 80057f6:	af00      	add	r7, sp, #0
  /* USER CODE BEGIN 3 */
  /* Set Application Buffers */
  USBD_CDC_SetTxBuffer(&hUsbDeviceFS, UserTxBufferFS, 0);
 80057f8:	2200      	movs	r2, #0
 80057fa:	4905      	ldr	r1, [pc, #20]	; (8005810 <CDC_Init_FS+0x1c>)
 80057fc:	4805      	ldr	r0, [pc, #20]	; (8005814 <CDC_Init_FS+0x20>)
 80057fe:	f7fe fc20 	bl	8004042 <USBD_CDC_SetTxBuffer>
  USBD_CDC_SetRxBuffer(&hUsbDeviceFS, UserRxBufferFS);
 8005802:	4905      	ldr	r1, [pc, #20]	; (8005818 <CDC_Init_FS+0x24>)
 8005804:	4803      	ldr	r0, [pc, #12]	; (8005814 <CDC_Init_FS+0x20>)
 8005806:	f7fe fc36 	bl	8004076 <USBD_CDC_SetRxBuffer>
  return (USBD_OK);
 800580a:	2300      	movs	r3, #0
  /* USER CODE END 3 */
}
 800580c:	4618      	mov	r0, r3
 800580e:	bd80      	pop	{r7, pc}
 8005810:	20001adc 	.word	0x20001adc
 8005814:	20001430 	.word	0x20001430
 8005818:	200016f4 	.word	0x200016f4

0800581c <CDC_DeInit_FS>:
/**
  * @brief  DeInitializes the CDC media low layer
  * @retval USBD_OK if all operations are OK else USBD_FAIL
  */
static int8_t CDC_DeInit_FS(void)
{
 800581c:	b480      	push	{r7}
 800581e:	af00      	add	r7, sp, #0
  /* USER CODE BEGIN 4 */
  return (USBD_OK);
 8005820:	2300      	movs	r3, #0
  /* USER CODE END 4 */
}
 8005822:	4618      	mov	r0, r3
 8005824:	46bd      	mov	sp, r7
 8005826:	f85d 7b04 	ldr.w	r7, [sp], #4
 800582a:	4770      	bx	lr

0800582c <CDC_Control_FS>:
  * @param  pbuf: Buffer containing command data (request parameters)
  * @param  length: Number of data to be sent (in bytes)
  * @retval Result of the operation: USBD_OK if all operations are OK else USBD_FAIL
  */
static int8_t CDC_Control_FS(uint8_t cmd, uint8_t* pbuf, uint16_t length)
{
 800582c:	b480      	push	{r7}
 800582e:	b083      	sub	sp, #12
 8005830:	af00      	add	r7, sp, #0
 8005832:	4603      	mov	r3, r0
 8005834:	6039      	str	r1, [r7, #0]
 8005836:	71fb      	strb	r3, [r7, #7]
 8005838:	4613      	mov	r3, r2
 800583a:	80bb      	strh	r3, [r7, #4]
  /* USER CODE BEGIN 5 */
  switch(cmd)
 800583c:	79fb      	ldrb	r3, [r7, #7]
 800583e:	2b23      	cmp	r3, #35	; 0x23
 8005840:	d84a      	bhi.n	80058d8 <CDC_Control_FS+0xac>
 8005842:	a201      	add	r2, pc, #4	; (adr r2, 8005848 <CDC_Control_FS+0x1c>)
 8005844:	f852 f023 	ldr.w	pc, [r2, r3, lsl #2]
 8005848:	080058d9 	.word	0x080058d9
 800584c:	080058d9 	.word	0x080058d9
 8005850:	080058d9 	.word	0x080058d9
 8005854:	080058d9 	.word	0x080058d9
 8005858:	080058d9 	.word	0x080058d9
 800585c:	080058d9 	.word	0x080058d9
 8005860:	080058d9 	.word	0x080058d9
 8005864:	080058d9 	.word	0x080058d9
 8005868:	080058d9 	.word	0x080058d9
 800586c:	080058d9 	.word	0x080058d9
 8005870:	080058d9 	.word	0x080058d9
 8005874:	080058d9 	.word	0x080058d9
 8005878:	080058d9 	.word	0x080058d9
 800587c:	080058d9 	.word	0x080058d9
 8005880:	080058d9 	.word	0x080058d9
 8005884:	080058d9 	.word	0x080058d9
 8005888:	080058d9 	.word	0x080058d9
 800588c:	080058d9 	.word	0x080058d9
 8005890:	080058d9 	.word	0x080058d9
 8005894:	080058d9 	.word	0x080058d9
 8005898:	080058d9 	.word	0x080058d9
 800589c:	080058d9 	.word	0x080058d9
 80058a0:	080058d9 	.word	0x080058d9
 80058a4:	080058d9 	.word	0x080058d9
 80058a8:	080058d9 	.word	0x080058d9
 80058ac:	080058d9 	.word	0x080058d9
 80058b0:	080058d9 	.word	0x080058d9
 80058b4:	080058d9 	.word	0x080058d9
 80058b8:	080058d9 	.word	0x080058d9
 80058bc:	080058d9 	.word	0x080058d9
 80058c0:	080058d9 	.word	0x080058d9
 80058c4:	080058d9 	.word	0x080058d9
 80058c8:	080058d9 	.word	0x080058d9
 80058cc:	080058d9 	.word	0x080058d9
 80058d0:	080058d9 	.word	0x080058d9
 80058d4:	080058d9 	.word	0x080058d9
    case CDC_SEND_BREAK:

    break;

  default:
    break;
 80058d8:	bf00      	nop
  }

  return (USBD_OK);
 80058da:	2300      	movs	r3, #0
  /* USER CODE END 5 */
}
 80058dc:	4618      	mov	r0, r3
 80058de:	370c      	adds	r7, #12
 80058e0:	46bd      	mov	sp, r7
 80058e2:	f85d 7b04 	ldr.w	r7, [sp], #4
 80058e6:	4770      	bx	lr

080058e8 <CDC_Receive_FS>:
  * @param  Buf: Buffer of data to be received
  * @param  Len: Number of data received (in bytes)
  * @retval Result of the operation: USBD_OK if all operations are OK else USBD_FAIL
  */
static int8_t CDC_Receive_FS(uint8_t* Buf, uint32_t *Len)
{
 80058e8:	b580      	push	{r7, lr}
 80058ea:	b082      	sub	sp, #8
 80058ec:	af00      	add	r7, sp, #0
 80058ee:	6078      	str	r0, [r7, #4]
 80058f0:	6039      	str	r1, [r7, #0]
  /* USER CODE BEGIN 6 */
  USBD_CDC_SetRxBuffer(&hUsbDeviceFS, &Buf[0]);
 80058f2:	6879      	ldr	r1, [r7, #4]
 80058f4:	480e      	ldr	r0, [pc, #56]	; (8005930 <CDC_Receive_FS+0x48>)
 80058f6:	f7fe fbbe 	bl	8004076 <USBD_CDC_SetRxBuffer>
  USBD_CDC_ReceivePacket(&hUsbDeviceFS);
 80058fa:	480d      	ldr	r0, [pc, #52]	; (8005930 <CDC_Receive_FS+0x48>)
 80058fc:	f7fe fbfe 	bl	80040fc <USBD_CDC_ReceivePacket>
  HAL_GPIO_TogglePin(LED_GPIO_Port, LED_Pin);
 8005900:	2120      	movs	r1, #32
 8005902:	480c      	ldr	r0, [pc, #48]	; (8005934 <CDC_Receive_FS+0x4c>)
 8005904:	f7fb f952 	bl	8000bac <HAL_GPIO_TogglePin>
  RING_put(&usb_rx, Buf, *Len);
 8005908:	683b      	ldr	r3, [r7, #0]
 800590a:	681b      	ldr	r3, [r3, #0]
 800590c:	461a      	mov	r2, r3
 800590e:	6879      	ldr	r1, [r7, #4]
 8005910:	4809      	ldr	r0, [pc, #36]	; (8005938 <CDC_Receive_FS+0x50>)
 8005912:	f7ff fd05 	bl	8005320 <RING_put>
  CDC_Transmit_FS(Buf, *Len);
 8005916:	683b      	ldr	r3, [r7, #0]
 8005918:	681b      	ldr	r3, [r3, #0]
 800591a:	b29b      	uxth	r3, r3
 800591c:	4619      	mov	r1, r3
 800591e:	6878      	ldr	r0, [r7, #4]
 8005920:	f000 f80c 	bl	800593c <CDC_Transmit_FS>
  return (USBD_OK);
 8005924:	2300      	movs	r3, #0
  /* USER CODE END 6 */
}
 8005926:	4618      	mov	r0, r3
 8005928:	3708      	adds	r7, #8
 800592a:	46bd      	mov	sp, r7
 800592c:	bd80      	pop	{r7, pc}
 800592e:	bf00      	nop
 8005930:	20001430 	.word	0x20001430
 8005934:	48000400 	.word	0x48000400
 8005938:	20000c2c 	.word	0x20000c2c

0800593c <CDC_Transmit_FS>:
  * @param  Buf: Buffer of data to be sent
  * @param  Len: Number of data to be sent (in bytes)
  * @retval USBD_OK if all operations are OK else USBD_FAIL or USBD_BUSY
  */
uint8_t CDC_Transmit_FS(uint8_t* Buf, uint16_t Len)
{
 800593c:	b580      	push	{r7, lr}
 800593e:	b084      	sub	sp, #16
 8005940:	af00      	add	r7, sp, #0
 8005942:	6078      	str	r0, [r7, #4]
 8005944:	460b      	mov	r3, r1
 8005946:	807b      	strh	r3, [r7, #2]
  uint8_t result = USBD_OK;
 8005948:	2300      	movs	r3, #0
 800594a:	73fb      	strb	r3, [r7, #15]
  /* USER CODE BEGIN 7 */
  USBD_CDC_HandleTypeDef *hcdc = (USBD_CDC_HandleTypeDef*)hUsbDeviceFS.pClassData;
 800594c:	4b0d      	ldr	r3, [pc, #52]	; (8005984 <CDC_Transmit_FS+0x48>)
 800594e:	f8d3 32b8 	ldr.w	r3, [r3, #696]	; 0x2b8
 8005952:	60bb      	str	r3, [r7, #8]
  if (hcdc->TxState != 0){
 8005954:	68bb      	ldr	r3, [r7, #8]
 8005956:	f8d3 3214 	ldr.w	r3, [r3, #532]	; 0x214
 800595a:	2b00      	cmp	r3, #0
 800595c:	d001      	beq.n	8005962 <CDC_Transmit_FS+0x26>
    return USBD_BUSY;
 800595e:	2301      	movs	r3, #1
 8005960:	e00b      	b.n	800597a <CDC_Transmit_FS+0x3e>
  }
  USBD_CDC_SetTxBuffer(&hUsbDeviceFS, Buf, Len);
 8005962:	887b      	ldrh	r3, [r7, #2]
 8005964:	461a      	mov	r2, r3
 8005966:	6879      	ldr	r1, [r7, #4]
 8005968:	4806      	ldr	r0, [pc, #24]	; (8005984 <CDC_Transmit_FS+0x48>)
 800596a:	f7fe fb6a 	bl	8004042 <USBD_CDC_SetTxBuffer>
  result = USBD_CDC_TransmitPacket(&hUsbDeviceFS);
 800596e:	4805      	ldr	r0, [pc, #20]	; (8005984 <CDC_Transmit_FS+0x48>)
 8005970:	f7fe fb95 	bl	800409e <USBD_CDC_TransmitPacket>
 8005974:	4603      	mov	r3, r0
 8005976:	73fb      	strb	r3, [r7, #15]
  /* USER CODE END 7 */
  return result;
 8005978:	7bfb      	ldrb	r3, [r7, #15]
}
 800597a:	4618      	mov	r0, r3
 800597c:	3710      	adds	r7, #16
 800597e:	46bd      	mov	sp, r7
 8005980:	bd80      	pop	{r7, pc}
 8005982:	bf00      	nop
 8005984:	20001430 	.word	0x20001430

08005988 <HAL_PCD_MspInit>:
#if (USE_HAL_PCD_REGISTER_CALLBACK == 1U)
static void HAL_PCD_MspInit(PCD_HandleTypeDef* pcdHandle)
#else
void HAL_PCD_MspInit(PCD_HandleTypeDef* pcdHandle)
#endif /* USE_HAL_PCD_REGISTER_CALLBACK */
{
 8005988:	b580      	push	{r7, lr}
 800598a:	b08a      	sub	sp, #40	; 0x28
 800598c:	af00      	add	r7, sp, #0
 800598e:	6078      	str	r0, [r7, #4]
  GPIO_InitTypeDef GPIO_InitStruct = {0};
 8005990:	f107 0314 	add.w	r3, r7, #20
 8005994:	2200      	movs	r2, #0
 8005996:	601a      	str	r2, [r3, #0]
 8005998:	605a      	str	r2, [r3, #4]
 800599a:	609a      	str	r2, [r3, #8]
 800599c:	60da      	str	r2, [r3, #12]
 800599e:	611a      	str	r2, [r3, #16]
  if(pcdHandle->Instance==USB)
 80059a0:	687b      	ldr	r3, [r7, #4]
 80059a2:	681b      	ldr	r3, [r3, #0]
 80059a4:	4a1a      	ldr	r2, [pc, #104]	; (8005a10 <HAL_PCD_MspInit+0x88>)
 80059a6:	4293      	cmp	r3, r2
 80059a8:	d12d      	bne.n	8005a06 <HAL_PCD_MspInit+0x7e>
  {
  /* USER CODE BEGIN USB_MspInit 0 */

  /* USER CODE END USB_MspInit 0 */
  
    __HAL_RCC_GPIOA_CLK_ENABLE();
 80059aa:	4b1a      	ldr	r3, [pc, #104]	; (8005a14 <HAL_PCD_MspInit+0x8c>)
 80059ac:	6cdb      	ldr	r3, [r3, #76]	; 0x4c
 80059ae:	4a19      	ldr	r2, [pc, #100]	; (8005a14 <HAL_PCD_MspInit+0x8c>)
 80059b0:	f043 0301 	orr.w	r3, r3, #1
 80059b4:	64d3      	str	r3, [r2, #76]	; 0x4c
 80059b6:	4b17      	ldr	r3, [pc, #92]	; (8005a14 <HAL_PCD_MspInit+0x8c>)
 80059b8:	6cdb      	ldr	r3, [r3, #76]	; 0x4c
 80059ba:	f003 0301 	and.w	r3, r3, #1
 80059be:	613b      	str	r3, [r7, #16]
 80059c0:	693b      	ldr	r3, [r7, #16]
    /**USB GPIO Configuration    
    PA11     ------> USB_DM
    PA12     ------> USB_DP 
    */
    GPIO_InitStruct.Pin = GPIO_PIN_11|GPIO_PIN_12;
 80059c2:	f44f 53c0 	mov.w	r3, #6144	; 0x1800
 80059c6:	617b      	str	r3, [r7, #20]
    GPIO_InitStruct.Mode = GPIO_MODE_ANALOG;
 80059c8:	2303      	movs	r3, #3
 80059ca:	61bb      	str	r3, [r7, #24]
    GPIO_InitStruct.Pull = GPIO_NOPULL;
 80059cc:	2300      	movs	r3, #0
 80059ce:	61fb      	str	r3, [r7, #28]
    HAL_GPIO_Init(GPIOA, &GPIO_InitStruct);
 80059d0:	f107 0314 	add.w	r3, r7, #20
 80059d4:	4619      	mov	r1, r3
 80059d6:	f04f 4090 	mov.w	r0, #1207959552	; 0x48000000
 80059da:	f7fa ff4d 	bl	8000878 <HAL_GPIO_Init>

    /* Peripheral clock enable */
    __HAL_RCC_USB_CLK_ENABLE();
 80059de:	4b0d      	ldr	r3, [pc, #52]	; (8005a14 <HAL_PCD_MspInit+0x8c>)
 80059e0:	6d9b      	ldr	r3, [r3, #88]	; 0x58
 80059e2:	4a0c      	ldr	r2, [pc, #48]	; (8005a14 <HAL_PCD_MspInit+0x8c>)
 80059e4:	f443 0300 	orr.w	r3, r3, #8388608	; 0x800000
 80059e8:	6593      	str	r3, [r2, #88]	; 0x58
 80059ea:	4b0a      	ldr	r3, [pc, #40]	; (8005a14 <HAL_PCD_MspInit+0x8c>)
 80059ec:	6d9b      	ldr	r3, [r3, #88]	; 0x58
 80059ee:	f403 0300 	and.w	r3, r3, #8388608	; 0x800000
 80059f2:	60fb      	str	r3, [r7, #12]
 80059f4:	68fb      	ldr	r3, [r7, #12]

    /* Peripheral interrupt init */
    HAL_NVIC_SetPriority(USB_LP_IRQn, 0, 0);
 80059f6:	2200      	movs	r2, #0
 80059f8:	2100      	movs	r1, #0
 80059fa:	2014      	movs	r0, #20
 80059fc:	f7fa fd57 	bl	80004ae <HAL_NVIC_SetPriority>
    HAL_NVIC_EnableIRQ(USB_LP_IRQn);
 8005a00:	2014      	movs	r0, #20
 8005a02:	f7fa fd6e 	bl	80004e2 <HAL_NVIC_EnableIRQ>
  /* USER CODE BEGIN USB_MspInit 1 */

  /* USER CODE END USB_MspInit 1 */
  }
}
 8005a06:	bf00      	nop
 8005a08:	3728      	adds	r7, #40	; 0x28
 8005a0a:	46bd      	mov	sp, r7
 8005a0c:	bd80      	pop	{r7, pc}
 8005a0e:	bf00      	nop
 8005a10:	40005c00 	.word	0x40005c00
 8005a14:	40021000 	.word	0x40021000

08005a18 <HAL_PCD_SetupStageCallback>:
#if (USE_HAL_PCD_REGISTER_CALLBACKS == 1U)
static void PCD_SetupStageCallback(PCD_HandleTypeDef *hpcd)
#else
void HAL_PCD_SetupStageCallback(PCD_HandleTypeDef *hpcd)
#endif /* USE_HAL_PCD_REGISTER_CALLBACKS */
{
 8005a18:	b580      	push	{r7, lr}
 8005a1a:	b082      	sub	sp, #8
 8005a1c:	af00      	add	r7, sp, #0
 8005a1e:	6078      	str	r0, [r7, #4]
  /* USER CODE BEGIN HAL_PCD_SetupStageCallback_PreTreatment */
  
  /* USER CODE END  HAL_PCD_SetupStageCallback_PreTreatment */
  USBD_LL_SetupStage((USBD_HandleTypeDef*)hpcd->pData, (uint8_t *)hpcd->Setup);  
 8005a20:	687b      	ldr	r3, [r7, #4]
 8005a22:	f8d3 2270 	ldr.w	r2, [r3, #624]	; 0x270
 8005a26:	687b      	ldr	r3, [r7, #4]
 8005a28:	f503 730c 	add.w	r3, r3, #560	; 0x230
 8005a2c:	4619      	mov	r1, r3
 8005a2e:	4610      	mov	r0, r2
 8005a30:	f7fe fc1c 	bl	800426c <USBD_LL_SetupStage>
  /* USER CODE BEGIN HAL_PCD_SetupStageCallback_PostTreatment */
  
  /* USER CODE END  HAL_PCD_SetupStageCallback_PostTreatment */
}
 8005a34:	bf00      	nop
 8005a36:	3708      	adds	r7, #8
 8005a38:	46bd      	mov	sp, r7
 8005a3a:	bd80      	pop	{r7, pc}

08005a3c <HAL_PCD_DataOutStageCallback>:
#if (USE_HAL_PCD_REGISTER_CALLBACKS == 1U)
static void PCD_DataOutStageCallback(PCD_HandleTypeDef *hpcd, uint8_t epnum)
#else
void HAL_PCD_DataOutStageCallback(PCD_HandleTypeDef *hpcd, uint8_t epnum)
#endif /* USE_HAL_PCD_REGISTER_CALLBACKS */
{
 8005a3c:	b580      	push	{r7, lr}
 8005a3e:	b082      	sub	sp, #8
 8005a40:	af00      	add	r7, sp, #0
 8005a42:	6078      	str	r0, [r7, #4]
 8005a44:	460b      	mov	r3, r1
 8005a46:	70fb      	strb	r3, [r7, #3]
  /* USER CODE BEGIN HAL_PCD_DataOutStageCallback_PreTreatment */
  
  /* USER CODE END HAL_PCD_DataOutStageCallback_PreTreatment */
  USBD_LL_DataOutStage((USBD_HandleTypeDef*)hpcd->pData, epnum, hpcd->OUT_ep[epnum].xfer_buff);  
 8005a48:	687b      	ldr	r3, [r7, #4]
 8005a4a:	f8d3 0270 	ldr.w	r0, [r3, #624]	; 0x270
 8005a4e:	78fb      	ldrb	r3, [r7, #3]
 8005a50:	687a      	ldr	r2, [r7, #4]
 8005a52:	015b      	lsls	r3, r3, #5
 8005a54:	4413      	add	r3, r2
 8005a56:	f503 739e 	add.w	r3, r3, #316	; 0x13c
 8005a5a:	681a      	ldr	r2, [r3, #0]
 8005a5c:	78fb      	ldrb	r3, [r7, #3]
 8005a5e:	4619      	mov	r1, r3
 8005a60:	f7fe fc4f 	bl	8004302 <USBD_LL_DataOutStage>
  /* USER CODE BEGIN HAL_PCD_DataOutStageCallback_PostTreatment */
  
  /* USER CODE END HAL_PCD_DataOutStageCallback_PostTreatment */
}
 8005a64:	bf00      	nop
 8005a66:	3708      	adds	r7, #8
 8005a68:	46bd      	mov	sp, r7
 8005a6a:	bd80      	pop	{r7, pc}

08005a6c <HAL_PCD_DataInStageCallback>:
#if (USE_HAL_PCD_REGISTER_CALLBACKS == 1U)
static void PCD_DataInStageCallback(PCD_HandleTypeDef *hpcd, uint8_t epnum)
#else
void HAL_PCD_DataInStageCallback(PCD_HandleTypeDef *hpcd, uint8_t epnum)
#endif /* USE_HAL_PCD_REGISTER_CALLBACKS */
{
 8005a6c:	b580      	push	{r7, lr}
 8005a6e:	b082      	sub	sp, #8
 8005a70:	af00      	add	r7, sp, #0
 8005a72:	6078      	str	r0, [r7, #4]
 8005a74:	460b      	mov	r3, r1
 8005a76:	70fb      	strb	r3, [r7, #3]
  /* USER CODE BEGIN HAL_PCD_DataInStageCallback_PreTreatment */
  
  /* USER CODE END HAL_PCD_DataInStageCallback_PreTreatment */  
  USBD_LL_DataInStage((USBD_HandleTypeDef*)hpcd->pData, epnum, hpcd->IN_ep[epnum].xfer_buff);  
 8005a78:	687b      	ldr	r3, [r7, #4]
 8005a7a:	f8d3 0270 	ldr.w	r0, [r3, #624]	; 0x270
 8005a7e:	78fb      	ldrb	r3, [r7, #3]
 8005a80:	687a      	ldr	r2, [r7, #4]
 8005a82:	015b      	lsls	r3, r3, #5
 8005a84:	4413      	add	r3, r2
 8005a86:	333c      	adds	r3, #60	; 0x3c
 8005a88:	681a      	ldr	r2, [r3, #0]
 8005a8a:	78fb      	ldrb	r3, [r7, #3]
 8005a8c:	4619      	mov	r1, r3
 8005a8e:	f7fe fca9 	bl	80043e4 <USBD_LL_DataInStage>
  /* USER CODE BEGIN HAL_PCD_DataInStageCallback_PostTreatment  */
  
  /* USER CODE END HAL_PCD_DataInStageCallback_PostTreatment */
}
 8005a92:	bf00      	nop
 8005a94:	3708      	adds	r7, #8
 8005a96:	46bd      	mov	sp, r7
 8005a98:	bd80      	pop	{r7, pc}

08005a9a <HAL_PCD_SOFCallback>:
#if (USE_HAL_PCD_REGISTER_CALLBACKS == 1U)
static void PCD_SOFCallback(PCD_HandleTypeDef *hpcd)
#else
void HAL_PCD_SOFCallback(PCD_HandleTypeDef *hpcd)
#endif /* USE_HAL_PCD_REGISTER_CALLBACKS */
{
 8005a9a:	b580      	push	{r7, lr}
 8005a9c:	b082      	sub	sp, #8
 8005a9e:	af00      	add	r7, sp, #0
 8005aa0:	6078      	str	r0, [r7, #4]
  /* USER CODE BEGIN HAL_PCD_SOFCallback_PreTreatment */
  
  /* USER CODE END HAL_PCD_SOFCallback_PreTreatment */  
  USBD_LL_SOF((USBD_HandleTypeDef*)hpcd->pData);  
 8005aa2:	687b      	ldr	r3, [r7, #4]
 8005aa4:	f8d3 3270 	ldr.w	r3, [r3, #624]	; 0x270
 8005aa8:	4618      	mov	r0, r3
 8005aaa:	f7fe fdbc 	bl	8004626 <USBD_LL_SOF>
  /* USER CODE BEGIN HAL_PCD_SOFCallback_PostTreatment */
  
  /* USER CODE END HAL_PCD_SOFCallback_PostTreatment */
}
 8005aae:	bf00      	nop
 8005ab0:	3708      	adds	r7, #8
 8005ab2:	46bd      	mov	sp, r7
 8005ab4:	bd80      	pop	{r7, pc}

08005ab6 <HAL_PCD_ResetCallback>:
#if (USE_HAL_PCD_REGISTER_CALLBACKS == 1U)
static void PCD_ResetCallback(PCD_HandleTypeDef *hpcd)
#else
void HAL_PCD_ResetCallback(PCD_HandleTypeDef *hpcd)
#endif /* USE_HAL_PCD_REGISTER_CALLBACKS */
{ 
 8005ab6:	b580      	push	{r7, lr}
 8005ab8:	b084      	sub	sp, #16
 8005aba:	af00      	add	r7, sp, #0
 8005abc:	6078      	str	r0, [r7, #4]
  /* USER CODE BEGIN HAL_PCD_ResetCallback_PreTreatment */
  
  /* USER CODE END HAL_PCD_ResetCallback_PreTreatment */
  USBD_SpeedTypeDef speed = USBD_SPEED_FULL;
 8005abe:	2301      	movs	r3, #1
 8005ac0:	73fb      	strb	r3, [r7, #15]

  if ( hpcd->Init.speed != PCD_SPEED_FULL)
 8005ac2:	687b      	ldr	r3, [r7, #4]
 8005ac4:	689b      	ldr	r3, [r3, #8]
 8005ac6:	2b02      	cmp	r3, #2
 8005ac8:	d001      	beq.n	8005ace <HAL_PCD_ResetCallback+0x18>
  {
    Error_Handler();
 8005aca:	f7ff fd95 	bl	80055f8 <Error_Handler>
  }
    /* Set Speed. */
  USBD_LL_SetSpeed((USBD_HandleTypeDef*)hpcd->pData, speed);
 8005ace:	687b      	ldr	r3, [r7, #4]
 8005ad0:	f8d3 3270 	ldr.w	r3, [r3, #624]	; 0x270
 8005ad4:	7bfa      	ldrb	r2, [r7, #15]
 8005ad6:	4611      	mov	r1, r2
 8005ad8:	4618      	mov	r0, r3
 8005ada:	f7fe fd69 	bl	80045b0 <USBD_LL_SetSpeed>

  /* Reset Device. */
  USBD_LL_Reset((USBD_HandleTypeDef*)hpcd->pData);
 8005ade:	687b      	ldr	r3, [r7, #4]
 8005ae0:	f8d3 3270 	ldr.w	r3, [r3, #624]	; 0x270
 8005ae4:	4618      	mov	r0, r3
 8005ae6:	f7fe fd22 	bl	800452e <USBD_LL_Reset>
  /* USER CODE BEGIN HAL_PCD_ResetCallback_PostTreatment */
  
  /* USER CODE END HAL_PCD_ResetCallback_PostTreatment */
}
 8005aea:	bf00      	nop
 8005aec:	3710      	adds	r7, #16
 8005aee:	46bd      	mov	sp, r7
 8005af0:	bd80      	pop	{r7, pc}
	...

08005af4 <HAL_PCD_SuspendCallback>:
#if (USE_HAL_PCD_REGISTER_CALLBACKS == 1U)
static void PCD_SuspendCallback(PCD_HandleTypeDef *hpcd)
#else
void HAL_PCD_SuspendCallback(PCD_HandleTypeDef *hpcd)
#endif /* USE_HAL_PCD_REGISTER_CALLBACKS */
{
 8005af4:	b580      	push	{r7, lr}
 8005af6:	b082      	sub	sp, #8
 8005af8:	af00      	add	r7, sp, #0
 8005afa:	6078      	str	r0, [r7, #4]
  /* USER CODE BEGIN HAL_PCD_SuspendCallback_PreTreatment */
  
  /* USER CODE END HAL_PCD_SuspendCallback_PreTreatment */
  /* Inform USB library that core enters in suspend Mode. */
  USBD_LL_Suspend((USBD_HandleTypeDef*)hpcd->pData);
 8005afc:	687b      	ldr	r3, [r7, #4]
 8005afe:	f8d3 3270 	ldr.w	r3, [r3, #624]	; 0x270
 8005b02:	4618      	mov	r0, r3
 8005b04:	f7fe fd64 	bl	80045d0 <USBD_LL_Suspend>
  /* Enter in STOP mode. */
  /* USER CODE BEGIN 2 */
  if (hpcd->Init.low_power_enable)
 8005b08:	687b      	ldr	r3, [r7, #4]
 8005b0a:	699b      	ldr	r3, [r3, #24]
 8005b0c:	2b00      	cmp	r3, #0
 8005b0e:	d005      	beq.n	8005b1c <HAL_PCD_SuspendCallback+0x28>
  {
    /* Set SLEEPDEEP bit and SleepOnExit of Cortex System Control Register. */
    SCB->SCR |= (uint32_t)((uint32_t)(SCB_SCR_SLEEPDEEP_Msk | SCB_SCR_SLEEPONEXIT_Msk));
 8005b10:	4b04      	ldr	r3, [pc, #16]	; (8005b24 <HAL_PCD_SuspendCallback+0x30>)
 8005b12:	691b      	ldr	r3, [r3, #16]
 8005b14:	4a03      	ldr	r2, [pc, #12]	; (8005b24 <HAL_PCD_SuspendCallback+0x30>)
 8005b16:	f043 0306 	orr.w	r3, r3, #6
 8005b1a:	6113      	str	r3, [r2, #16]
  }
  /* USER CODE END 2 */
  /* USER CODE BEGIN HAL_PCD_SuspendCallback_PostTreatment */
  
  /* USER CODE END HAL_PCD_SuspendCallback_PostTreatment */
}
 8005b1c:	bf00      	nop
 8005b1e:	3708      	adds	r7, #8
 8005b20:	46bd      	mov	sp, r7
 8005b22:	bd80      	pop	{r7, pc}
 8005b24:	e000ed00 	.word	0xe000ed00

08005b28 <HAL_PCD_ResumeCallback>:
#if (USE_HAL_PCD_REGISTER_CALLBACKS == 1U)
static void PCD_ResumeCallback(PCD_HandleTypeDef *hpcd)
#else
void HAL_PCD_ResumeCallback(PCD_HandleTypeDef *hpcd)
#endif /* USE_HAL_PCD_REGISTER_CALLBACKS */
{
 8005b28:	b580      	push	{r7, lr}
 8005b2a:	b082      	sub	sp, #8
 8005b2c:	af00      	add	r7, sp, #0
 8005b2e:	6078      	str	r0, [r7, #4]
  /* USER CODE BEGIN HAL_PCD_ResumeCallback_PreTreatment */
  
  /* USER CODE END HAL_PCD_ResumeCallback_PreTreatment */

  /* USER CODE BEGIN 3 */
  if (hpcd->Init.low_power_enable)
 8005b30:	687b      	ldr	r3, [r7, #4]
 8005b32:	699b      	ldr	r3, [r3, #24]
 8005b34:	2b00      	cmp	r3, #0
 8005b36:	d007      	beq.n	8005b48 <HAL_PCD_ResumeCallback+0x20>
  {
    /* Reset SLEEPDEEP bit of Cortex System Control Register. */
    SCB->SCR &= (uint32_t)~((uint32_t)(SCB_SCR_SLEEPDEEP_Msk | SCB_SCR_SLEEPONEXIT_Msk));
 8005b38:	4b08      	ldr	r3, [pc, #32]	; (8005b5c <HAL_PCD_ResumeCallback+0x34>)
 8005b3a:	691b      	ldr	r3, [r3, #16]
 8005b3c:	4a07      	ldr	r2, [pc, #28]	; (8005b5c <HAL_PCD_ResumeCallback+0x34>)
 8005b3e:	f023 0306 	bic.w	r3, r3, #6
 8005b42:	6113      	str	r3, [r2, #16]
    SystemClockConfig_Resume();
 8005b44:	f000 f9f6 	bl	8005f34 <SystemClockConfig_Resume>
  }
  /* USER CODE END 3 */
 
  USBD_LL_Resume((USBD_HandleTypeDef*)hpcd->pData);
 8005b48:	687b      	ldr	r3, [r7, #4]
 8005b4a:	f8d3 3270 	ldr.w	r3, [r3, #624]	; 0x270
 8005b4e:	4618      	mov	r0, r3
 8005b50:	f7fe fd53 	bl	80045fa <USBD_LL_Resume>
  /* USER CODE BEGIN HAL_PCD_ResumeCallback_PostTreatment */
  
  /* USER CODE END HAL_PCD_ResumeCallback_PostTreatment */
}
 8005b54:	bf00      	nop
 8005b56:	3708      	adds	r7, #8
 8005b58:	46bd      	mov	sp, r7
 8005b5a:	bd80      	pop	{r7, pc}
 8005b5c:	e000ed00 	.word	0xe000ed00

08005b60 <USBD_LL_Init>:
  * @brief  Initializes the low level portion of the device driver.
  * @param  pdev: Device handle
  * @retval USBD status
  */
USBD_StatusTypeDef USBD_LL_Init(USBD_HandleTypeDef *pdev)
{
 8005b60:	b580      	push	{r7, lr}
 8005b62:	b082      	sub	sp, #8
 8005b64:	af00      	add	r7, sp, #0
 8005b66:	6078      	str	r0, [r7, #4]
  /* Init USB Ip. */
  hpcd_USB_FS.pData = pdev;
 8005b68:	4a2b      	ldr	r2, [pc, #172]	; (8005c18 <USBD_LL_Init+0xb8>)
 8005b6a:	687b      	ldr	r3, [r7, #4]
 8005b6c:	f8c2 3270 	str.w	r3, [r2, #624]	; 0x270
  /* Link the driver to the stack. */
  pdev->pData = &hpcd_USB_FS;
 8005b70:	687b      	ldr	r3, [r7, #4]
 8005b72:	4a29      	ldr	r2, [pc, #164]	; (8005c18 <USBD_LL_Init+0xb8>)
 8005b74:	f8c3 22c0 	str.w	r2, [r3, #704]	; 0x2c0

  hpcd_USB_FS.Instance = USB;
 8005b78:	4b27      	ldr	r3, [pc, #156]	; (8005c18 <USBD_LL_Init+0xb8>)
 8005b7a:	4a28      	ldr	r2, [pc, #160]	; (8005c1c <USBD_LL_Init+0xbc>)
 8005b7c:	601a      	str	r2, [r3, #0]
  hpcd_USB_FS.Init.dev_endpoints = 8;
 8005b7e:	4b26      	ldr	r3, [pc, #152]	; (8005c18 <USBD_LL_Init+0xb8>)
 8005b80:	2208      	movs	r2, #8
 8005b82:	605a      	str	r2, [r3, #4]
  hpcd_USB_FS.Init.speed = PCD_SPEED_FULL;
 8005b84:	4b24      	ldr	r3, [pc, #144]	; (8005c18 <USBD_LL_Init+0xb8>)
 8005b86:	2202      	movs	r2, #2
 8005b88:	609a      	str	r2, [r3, #8]
  hpcd_USB_FS.Init.phy_itface = PCD_PHY_EMBEDDED;
 8005b8a:	4b23      	ldr	r3, [pc, #140]	; (8005c18 <USBD_LL_Init+0xb8>)
 8005b8c:	2202      	movs	r2, #2
 8005b8e:	611a      	str	r2, [r3, #16]
  hpcd_USB_FS.Init.Sof_enable = DISABLE;
 8005b90:	4b21      	ldr	r3, [pc, #132]	; (8005c18 <USBD_LL_Init+0xb8>)
 8005b92:	2200      	movs	r2, #0
 8005b94:	615a      	str	r2, [r3, #20]
  hpcd_USB_FS.Init.low_power_enable = DISABLE;
 8005b96:	4b20      	ldr	r3, [pc, #128]	; (8005c18 <USBD_LL_Init+0xb8>)
 8005b98:	2200      	movs	r2, #0
 8005b9a:	619a      	str	r2, [r3, #24]
  hpcd_USB_FS.Init.lpm_enable = DISABLE;
 8005b9c:	4b1e      	ldr	r3, [pc, #120]	; (8005c18 <USBD_LL_Init+0xb8>)
 8005b9e:	2200      	movs	r2, #0
 8005ba0:	61da      	str	r2, [r3, #28]
  hpcd_USB_FS.Init.battery_charging_enable = DISABLE;
 8005ba2:	4b1d      	ldr	r3, [pc, #116]	; (8005c18 <USBD_LL_Init+0xb8>)
 8005ba4:	2200      	movs	r2, #0
 8005ba6:	621a      	str	r2, [r3, #32]
  /* register Msp Callbacks (before the Init) */
  HAL_PCD_RegisterCallback(&hpcd_USB_FS, HAL_PCD_MSPINIT_CB_ID, PCD_MspInit);
  HAL_PCD_RegisterCallback(&hpcd_USB_FS, HAL_PCD_MSPDEINIT_CB_ID, PCD_MspDeInit);
  #endif /* USE_HAL_PCD_REGISTER_CALLBACKS */

  if (HAL_PCD_Init(&hpcd_USB_FS) != HAL_OK)
 8005ba8:	481b      	ldr	r0, [pc, #108]	; (8005c18 <USBD_LL_Init+0xb8>)
 8005baa:	f7fb f818 	bl	8000bde <HAL_PCD_Init>
 8005bae:	4603      	mov	r3, r0
 8005bb0:	2b00      	cmp	r3, #0
 8005bb2:	d001      	beq.n	8005bb8 <USBD_LL_Init+0x58>
  {
    Error_Handler( );
 8005bb4:	f7ff fd20 	bl	80055f8 <Error_Handler>
  /* USER CODE BEGIN RegisterCallBackSecondPart */
  
  /* USER CODE END RegisterCallBackSecondPart */
#endif /* USE_HAL_PCD_REGISTER_CALLBACKS */
  /* USER CODE BEGIN EndPoint_Configuration */
  HAL_PCDEx_PMAConfig((PCD_HandleTypeDef*)pdev->pData , 0x00 , PCD_SNG_BUF, 0x18);
 8005bb8:	687b      	ldr	r3, [r7, #4]
 8005bba:	f8d3 02c0 	ldr.w	r0, [r3, #704]	; 0x2c0
 8005bbe:	2318      	movs	r3, #24
 8005bc0:	2200      	movs	r2, #0
 8005bc2:	2100      	movs	r1, #0
 8005bc4:	f7fb feba 	bl	800193c <HAL_PCDEx_PMAConfig>
  HAL_PCDEx_PMAConfig((PCD_HandleTypeDef*)pdev->pData , 0x80 , PCD_SNG_BUF, 0x58);
 8005bc8:	687b      	ldr	r3, [r7, #4]
 8005bca:	f8d3 02c0 	ldr.w	r0, [r3, #704]	; 0x2c0
 8005bce:	2358      	movs	r3, #88	; 0x58
 8005bd0:	2200      	movs	r2, #0
 8005bd2:	2180      	movs	r1, #128	; 0x80
 8005bd4:	f7fb feb2 	bl	800193c <HAL_PCDEx_PMAConfig>
  /* USER CODE END EndPoint_Configuration */
  /* USER CODE BEGIN EndPoint_Configuration_CDC */
  HAL_PCDEx_PMAConfig((PCD_HandleTypeDef*)pdev->pData , 0x81 , PCD_SNG_BUF, 0xC0);
 8005bd8:	687b      	ldr	r3, [r7, #4]
 8005bda:	f8d3 02c0 	ldr.w	r0, [r3, #704]	; 0x2c0
 8005bde:	23c0      	movs	r3, #192	; 0xc0
 8005be0:	2200      	movs	r2, #0
 8005be2:	2181      	movs	r1, #129	; 0x81
 8005be4:	f7fb feaa 	bl	800193c <HAL_PCDEx_PMAConfig>
  HAL_PCDEx_PMAConfig((PCD_HandleTypeDef*)pdev->pData , 0x01 , PCD_SNG_BUF, 0x110);
 8005be8:	687b      	ldr	r3, [r7, #4]
 8005bea:	f8d3 02c0 	ldr.w	r0, [r3, #704]	; 0x2c0
 8005bee:	f44f 7388 	mov.w	r3, #272	; 0x110
 8005bf2:	2200      	movs	r2, #0
 8005bf4:	2101      	movs	r1, #1
 8005bf6:	f7fb fea1 	bl	800193c <HAL_PCDEx_PMAConfig>
  HAL_PCDEx_PMAConfig((PCD_HandleTypeDef*)pdev->pData , 0x82 , PCD_SNG_BUF, 0x100);
 8005bfa:	687b      	ldr	r3, [r7, #4]
 8005bfc:	f8d3 02c0 	ldr.w	r0, [r3, #704]	; 0x2c0
 8005c00:	f44f 7380 	mov.w	r3, #256	; 0x100
 8005c04:	2200      	movs	r2, #0
 8005c06:	2182      	movs	r1, #130	; 0x82
 8005c08:	f7fb fe98 	bl	800193c <HAL_PCDEx_PMAConfig>
  /* USER CODE END EndPoint_Configuration_CDC */
  return USBD_OK;
 8005c0c:	2300      	movs	r3, #0
}
 8005c0e:	4618      	mov	r0, r3
 8005c10:	3708      	adds	r7, #8
 8005c12:	46bd      	mov	sp, r7
 8005c14:	bd80      	pop	{r7, pc}
 8005c16:	bf00      	nop
 8005c18:	20001ec4 	.word	0x20001ec4
 8005c1c:	40005c00 	.word	0x40005c00

08005c20 <USBD_LL_Start>:
  * @brief  Starts the low level portion of the device driver.
  * @param  pdev: Device handle
  * @retval USBD status
  */
USBD_StatusTypeDef USBD_LL_Start(USBD_HandleTypeDef *pdev)
{
 8005c20:	b580      	push	{r7, lr}
 8005c22:	b084      	sub	sp, #16
 8005c24:	af00      	add	r7, sp, #0
 8005c26:	6078      	str	r0, [r7, #4]
  HAL_StatusTypeDef hal_status = HAL_OK;
 8005c28:	2300      	movs	r3, #0
 8005c2a:	73fb      	strb	r3, [r7, #15]
  USBD_StatusTypeDef usb_status = USBD_OK;
 8005c2c:	2300      	movs	r3, #0
 8005c2e:	73bb      	strb	r3, [r7, #14]
 
  hal_status = HAL_PCD_Start(pdev->pData);
 8005c30:	687b      	ldr	r3, [r7, #4]
 8005c32:	f8d3 32c0 	ldr.w	r3, [r3, #704]	; 0x2c0
 8005c36:	4618      	mov	r0, r3
 8005c38:	f7fb f88c 	bl	8000d54 <HAL_PCD_Start>
 8005c3c:	4603      	mov	r3, r0
 8005c3e:	73fb      	strb	r3, [r7, #15]
     
  usb_status =  USBD_Get_USB_Status(hal_status);
 8005c40:	7bfb      	ldrb	r3, [r7, #15]
 8005c42:	4618      	mov	r0, r3
 8005c44:	f000 f97c 	bl	8005f40 <USBD_Get_USB_Status>
 8005c48:	4603      	mov	r3, r0
 8005c4a:	73bb      	strb	r3, [r7, #14]
  
  return usb_status;
 8005c4c:	7bbb      	ldrb	r3, [r7, #14]
}
 8005c4e:	4618      	mov	r0, r3
 8005c50:	3710      	adds	r7, #16
 8005c52:	46bd      	mov	sp, r7
 8005c54:	bd80      	pop	{r7, pc}

08005c56 <USBD_LL_OpenEP>:
  * @param  ep_type: Endpoint type
  * @param  ep_mps: Endpoint max packet size
  * @retval USBD status
  */
USBD_StatusTypeDef USBD_LL_OpenEP(USBD_HandleTypeDef *pdev, uint8_t ep_addr, uint8_t ep_type, uint16_t ep_mps)
{
 8005c56:	b580      	push	{r7, lr}
 8005c58:	b084      	sub	sp, #16
 8005c5a:	af00      	add	r7, sp, #0
 8005c5c:	6078      	str	r0, [r7, #4]
 8005c5e:	4608      	mov	r0, r1
 8005c60:	4611      	mov	r1, r2
 8005c62:	461a      	mov	r2, r3
 8005c64:	4603      	mov	r3, r0
 8005c66:	70fb      	strb	r3, [r7, #3]
 8005c68:	460b      	mov	r3, r1
 8005c6a:	70bb      	strb	r3, [r7, #2]
 8005c6c:	4613      	mov	r3, r2
 8005c6e:	803b      	strh	r3, [r7, #0]
  HAL_StatusTypeDef hal_status = HAL_OK;
 8005c70:	2300      	movs	r3, #0
 8005c72:	73fb      	strb	r3, [r7, #15]
  USBD_StatusTypeDef usb_status = USBD_OK;
 8005c74:	2300      	movs	r3, #0
 8005c76:	73bb      	strb	r3, [r7, #14]

  hal_status = HAL_PCD_EP_Open(pdev->pData, ep_addr, ep_mps, ep_type);
 8005c78:	687b      	ldr	r3, [r7, #4]
 8005c7a:	f8d3 02c0 	ldr.w	r0, [r3, #704]	; 0x2c0
 8005c7e:	78bb      	ldrb	r3, [r7, #2]
 8005c80:	883a      	ldrh	r2, [r7, #0]
 8005c82:	78f9      	ldrb	r1, [r7, #3]
 8005c84:	f7fb f9fb 	bl	800107e <HAL_PCD_EP_Open>
 8005c88:	4603      	mov	r3, r0
 8005c8a:	73fb      	strb	r3, [r7, #15]

  usb_status =  USBD_Get_USB_Status(hal_status);
 8005c8c:	7bfb      	ldrb	r3, [r7, #15]
 8005c8e:	4618      	mov	r0, r3
 8005c90:	f000 f956 	bl	8005f40 <USBD_Get_USB_Status>
 8005c94:	4603      	mov	r3, r0
 8005c96:	73bb      	strb	r3, [r7, #14]
 
  return usb_status;
 8005c98:	7bbb      	ldrb	r3, [r7, #14]
}
 8005c9a:	4618      	mov	r0, r3
 8005c9c:	3710      	adds	r7, #16
 8005c9e:	46bd      	mov	sp, r7
 8005ca0:	bd80      	pop	{r7, pc}

08005ca2 <USBD_LL_CloseEP>:
  * @param  pdev: Device handle
  * @param  ep_addr: Endpoint number
  * @retval USBD status
  */
USBD_StatusTypeDef USBD_LL_CloseEP(USBD_HandleTypeDef *pdev, uint8_t ep_addr)
{
 8005ca2:	b580      	push	{r7, lr}
 8005ca4:	b084      	sub	sp, #16
 8005ca6:	af00      	add	r7, sp, #0
 8005ca8:	6078      	str	r0, [r7, #4]
 8005caa:	460b      	mov	r3, r1
 8005cac:	70fb      	strb	r3, [r7, #3]
  HAL_StatusTypeDef hal_status = HAL_OK;
 8005cae:	2300      	movs	r3, #0
 8005cb0:	73fb      	strb	r3, [r7, #15]
  USBD_StatusTypeDef usb_status = USBD_OK;
 8005cb2:	2300      	movs	r3, #0
 8005cb4:	73bb      	strb	r3, [r7, #14]
  
  hal_status = HAL_PCD_EP_Close(pdev->pData, ep_addr);
 8005cb6:	687b      	ldr	r3, [r7, #4]
 8005cb8:	f8d3 32c0 	ldr.w	r3, [r3, #704]	; 0x2c0
 8005cbc:	78fa      	ldrb	r2, [r7, #3]
 8005cbe:	4611      	mov	r1, r2
 8005cc0:	4618      	mov	r0, r3
 8005cc2:	f7fb fa3c 	bl	800113e <HAL_PCD_EP_Close>
 8005cc6:	4603      	mov	r3, r0
 8005cc8:	73fb      	strb	r3, [r7, #15]
      
  usb_status =  USBD_Get_USB_Status(hal_status);
 8005cca:	7bfb      	ldrb	r3, [r7, #15]
 8005ccc:	4618      	mov	r0, r3
 8005cce:	f000 f937 	bl	8005f40 <USBD_Get_USB_Status>
 8005cd2:	4603      	mov	r3, r0
 8005cd4:	73bb      	strb	r3, [r7, #14]

  return usb_status;  
 8005cd6:	7bbb      	ldrb	r3, [r7, #14]
}
 8005cd8:	4618      	mov	r0, r3
 8005cda:	3710      	adds	r7, #16
 8005cdc:	46bd      	mov	sp, r7
 8005cde:	bd80      	pop	{r7, pc}

08005ce0 <USBD_LL_StallEP>:
  * @param  pdev: Device handle
  * @param  ep_addr: Endpoint number
  * @retval USBD status
  */
USBD_StatusTypeDef USBD_LL_StallEP(USBD_HandleTypeDef *pdev, uint8_t ep_addr)
{
 8005ce0:	b580      	push	{r7, lr}
 8005ce2:	b084      	sub	sp, #16
 8005ce4:	af00      	add	r7, sp, #0
 8005ce6:	6078      	str	r0, [r7, #4]
 8005ce8:	460b      	mov	r3, r1
 8005cea:	70fb      	strb	r3, [r7, #3]
  HAL_StatusTypeDef hal_status = HAL_OK;
 8005cec:	2300      	movs	r3, #0
 8005cee:	73fb      	strb	r3, [r7, #15]
  USBD_StatusTypeDef usb_status = USBD_OK;
 8005cf0:	2300      	movs	r3, #0
 8005cf2:	73bb      	strb	r3, [r7, #14]
  
  hal_status = HAL_PCD_EP_SetStall(pdev->pData, ep_addr);
 8005cf4:	687b      	ldr	r3, [r7, #4]
 8005cf6:	f8d3 32c0 	ldr.w	r3, [r3, #704]	; 0x2c0
 8005cfa:	78fa      	ldrb	r2, [r7, #3]
 8005cfc:	4611      	mov	r1, r2
 8005cfe:	4618      	mov	r0, r3
 8005d00:	f7fb fae7 	bl	80012d2 <HAL_PCD_EP_SetStall>
 8005d04:	4603      	mov	r3, r0
 8005d06:	73fb      	strb	r3, [r7, #15]

  usb_status =  USBD_Get_USB_Status(hal_status);
 8005d08:	7bfb      	ldrb	r3, [r7, #15]
 8005d0a:	4618      	mov	r0, r3
 8005d0c:	f000 f918 	bl	8005f40 <USBD_Get_USB_Status>
 8005d10:	4603      	mov	r3, r0
 8005d12:	73bb      	strb	r3, [r7, #14]
 
  return usb_status;  
 8005d14:	7bbb      	ldrb	r3, [r7, #14]
}
 8005d16:	4618      	mov	r0, r3
 8005d18:	3710      	adds	r7, #16
 8005d1a:	46bd      	mov	sp, r7
 8005d1c:	bd80      	pop	{r7, pc}

08005d1e <USBD_LL_ClearStallEP>:
  * @param  pdev: Device handle
  * @param  ep_addr: Endpoint number
  * @retval USBD status
  */
USBD_StatusTypeDef USBD_LL_ClearStallEP(USBD_HandleTypeDef *pdev, uint8_t ep_addr)
{
 8005d1e:	b580      	push	{r7, lr}
 8005d20:	b084      	sub	sp, #16
 8005d22:	af00      	add	r7, sp, #0
 8005d24:	6078      	str	r0, [r7, #4]
 8005d26:	460b      	mov	r3, r1
 8005d28:	70fb      	strb	r3, [r7, #3]
  HAL_StatusTypeDef hal_status = HAL_OK;
 8005d2a:	2300      	movs	r3, #0
 8005d2c:	73fb      	strb	r3, [r7, #15]
  USBD_StatusTypeDef usb_status = USBD_OK;
 8005d2e:	2300      	movs	r3, #0
 8005d30:	73bb      	strb	r3, [r7, #14]
  
  hal_status = HAL_PCD_EP_ClrStall(pdev->pData, ep_addr);  
 8005d32:	687b      	ldr	r3, [r7, #4]
 8005d34:	f8d3 32c0 	ldr.w	r3, [r3, #704]	; 0x2c0
 8005d38:	78fa      	ldrb	r2, [r7, #3]
 8005d3a:	4611      	mov	r1, r2
 8005d3c:	4618      	mov	r0, r3
 8005d3e:	f7fb fb22 	bl	8001386 <HAL_PCD_EP_ClrStall>
 8005d42:	4603      	mov	r3, r0
 8005d44:	73fb      	strb	r3, [r7, #15]
     
  usb_status =  USBD_Get_USB_Status(hal_status);
 8005d46:	7bfb      	ldrb	r3, [r7, #15]
 8005d48:	4618      	mov	r0, r3
 8005d4a:	f000 f8f9 	bl	8005f40 <USBD_Get_USB_Status>
 8005d4e:	4603      	mov	r3, r0
 8005d50:	73bb      	strb	r3, [r7, #14]

  return usb_status; 
 8005d52:	7bbb      	ldrb	r3, [r7, #14]
}
 8005d54:	4618      	mov	r0, r3
 8005d56:	3710      	adds	r7, #16
 8005d58:	46bd      	mov	sp, r7
 8005d5a:	bd80      	pop	{r7, pc}

08005d5c <USBD_LL_IsStallEP>:
  * @param  pdev: Device handle
  * @param  ep_addr: Endpoint number
  * @retval Stall (1: Yes, 0: No)
  */
uint8_t USBD_LL_IsStallEP(USBD_HandleTypeDef *pdev, uint8_t ep_addr)
{
 8005d5c:	b480      	push	{r7}
 8005d5e:	b085      	sub	sp, #20
 8005d60:	af00      	add	r7, sp, #0
 8005d62:	6078      	str	r0, [r7, #4]
 8005d64:	460b      	mov	r3, r1
 8005d66:	70fb      	strb	r3, [r7, #3]
  PCD_HandleTypeDef *hpcd = (PCD_HandleTypeDef*) pdev->pData;
 8005d68:	687b      	ldr	r3, [r7, #4]
 8005d6a:	f8d3 32c0 	ldr.w	r3, [r3, #704]	; 0x2c0
 8005d6e:	60fb      	str	r3, [r7, #12]
  
  if((ep_addr & 0x80) == 0x80)
 8005d70:	f997 3003 	ldrsb.w	r3, [r7, #3]
 8005d74:	2b00      	cmp	r3, #0
 8005d76:	da08      	bge.n	8005d8a <USBD_LL_IsStallEP+0x2e>
  {
    return hpcd->IN_ep[ep_addr & 0x7F].is_stall; 
 8005d78:	78fb      	ldrb	r3, [r7, #3]
 8005d7a:	f003 037f 	and.w	r3, r3, #127	; 0x7f
 8005d7e:	68fa      	ldr	r2, [r7, #12]
 8005d80:	015b      	lsls	r3, r3, #5
 8005d82:	4413      	add	r3, r2
 8005d84:	332a      	adds	r3, #42	; 0x2a
 8005d86:	781b      	ldrb	r3, [r3, #0]
 8005d88:	e008      	b.n	8005d9c <USBD_LL_IsStallEP+0x40>
  }
  else
  {
    return hpcd->OUT_ep[ep_addr & 0x7F].is_stall; 
 8005d8a:	78fb      	ldrb	r3, [r7, #3]
 8005d8c:	f003 037f 	and.w	r3, r3, #127	; 0x7f
 8005d90:	68fa      	ldr	r2, [r7, #12]
 8005d92:	015b      	lsls	r3, r3, #5
 8005d94:	4413      	add	r3, r2
 8005d96:	f503 7395 	add.w	r3, r3, #298	; 0x12a
 8005d9a:	781b      	ldrb	r3, [r3, #0]
  }
}
 8005d9c:	4618      	mov	r0, r3
 8005d9e:	3714      	adds	r7, #20
 8005da0:	46bd      	mov	sp, r7
 8005da2:	f85d 7b04 	ldr.w	r7, [sp], #4
 8005da6:	4770      	bx	lr

08005da8 <USBD_LL_SetUSBAddress>:
  * @param  pdev: Device handle
  * @param  dev_addr: Device address
  * @retval USBD status
  */
USBD_StatusTypeDef USBD_LL_SetUSBAddress(USBD_HandleTypeDef *pdev, uint8_t dev_addr)
{
 8005da8:	b580      	push	{r7, lr}
 8005daa:	b084      	sub	sp, #16
 8005dac:	af00      	add	r7, sp, #0
 8005dae:	6078      	str	r0, [r7, #4]
 8005db0:	460b      	mov	r3, r1
 8005db2:	70fb      	strb	r3, [r7, #3]
  HAL_StatusTypeDef hal_status = HAL_OK;
 8005db4:	2300      	movs	r3, #0
 8005db6:	73fb      	strb	r3, [r7, #15]
  USBD_StatusTypeDef usb_status = USBD_OK;
 8005db8:	2300      	movs	r3, #0
 8005dba:	73bb      	strb	r3, [r7, #14]
  
  hal_status = HAL_PCD_SetAddress(pdev->pData, dev_addr);
 8005dbc:	687b      	ldr	r3, [r7, #4]
 8005dbe:	f8d3 32c0 	ldr.w	r3, [r3, #704]	; 0x2c0
 8005dc2:	78fa      	ldrb	r2, [r7, #3]
 8005dc4:	4611      	mov	r1, r2
 8005dc6:	4618      	mov	r0, r3
 8005dc8:	f7fb f934 	bl	8001034 <HAL_PCD_SetAddress>
 8005dcc:	4603      	mov	r3, r0
 8005dce:	73fb      	strb	r3, [r7, #15]
     
  usb_status =  USBD_Get_USB_Status(hal_status);
 8005dd0:	7bfb      	ldrb	r3, [r7, #15]
 8005dd2:	4618      	mov	r0, r3
 8005dd4:	f000 f8b4 	bl	8005f40 <USBD_Get_USB_Status>
 8005dd8:	4603      	mov	r3, r0
 8005dda:	73bb      	strb	r3, [r7, #14]
 
  return usb_status;  
 8005ddc:	7bbb      	ldrb	r3, [r7, #14]
}
 8005dde:	4618      	mov	r0, r3
 8005de0:	3710      	adds	r7, #16
 8005de2:	46bd      	mov	sp, r7
 8005de4:	bd80      	pop	{r7, pc}

08005de6 <USBD_LL_Transmit>:
  * @param  pbuf: Pointer to data to be sent
  * @param  size: Data size    
  * @retval USBD status
  */
USBD_StatusTypeDef USBD_LL_Transmit(USBD_HandleTypeDef *pdev, uint8_t ep_addr, uint8_t *pbuf, uint16_t size)
{
 8005de6:	b580      	push	{r7, lr}
 8005de8:	b086      	sub	sp, #24
 8005dea:	af00      	add	r7, sp, #0
 8005dec:	60f8      	str	r0, [r7, #12]
 8005dee:	607a      	str	r2, [r7, #4]
 8005df0:	461a      	mov	r2, r3
 8005df2:	460b      	mov	r3, r1
 8005df4:	72fb      	strb	r3, [r7, #11]
 8005df6:	4613      	mov	r3, r2
 8005df8:	813b      	strh	r3, [r7, #8]
  HAL_StatusTypeDef hal_status = HAL_OK;
 8005dfa:	2300      	movs	r3, #0
 8005dfc:	75fb      	strb	r3, [r7, #23]
  USBD_StatusTypeDef usb_status = USBD_OK;
 8005dfe:	2300      	movs	r3, #0
 8005e00:	75bb      	strb	r3, [r7, #22]

  hal_status = HAL_PCD_EP_Transmit(pdev->pData, ep_addr, pbuf, size);
 8005e02:	68fb      	ldr	r3, [r7, #12]
 8005e04:	f8d3 02c0 	ldr.w	r0, [r3, #704]	; 0x2c0
 8005e08:	893b      	ldrh	r3, [r7, #8]
 8005e0a:	7af9      	ldrb	r1, [r7, #11]
 8005e0c:	687a      	ldr	r2, [r7, #4]
 8005e0e:	f7fb fa27 	bl	8001260 <HAL_PCD_EP_Transmit>
 8005e12:	4603      	mov	r3, r0
 8005e14:	75fb      	strb	r3, [r7, #23]
     
  usb_status =  USBD_Get_USB_Status(hal_status);
 8005e16:	7dfb      	ldrb	r3, [r7, #23]
 8005e18:	4618      	mov	r0, r3
 8005e1a:	f000 f891 	bl	8005f40 <USBD_Get_USB_Status>
 8005e1e:	4603      	mov	r3, r0
 8005e20:	75bb      	strb	r3, [r7, #22]
  
  return usb_status;    
 8005e22:	7dbb      	ldrb	r3, [r7, #22]
}
 8005e24:	4618      	mov	r0, r3
 8005e26:	3718      	adds	r7, #24
 8005e28:	46bd      	mov	sp, r7
 8005e2a:	bd80      	pop	{r7, pc}

08005e2c <USBD_LL_PrepareReceive>:
  * @param  pbuf: Pointer to data to be received
  * @param  size: Data size
  * @retval USBD status
  */
USBD_StatusTypeDef USBD_LL_PrepareReceive(USBD_HandleTypeDef *pdev, uint8_t ep_addr, uint8_t *pbuf, uint16_t size)
{
 8005e2c:	b580      	push	{r7, lr}
 8005e2e:	b086      	sub	sp, #24
 8005e30:	af00      	add	r7, sp, #0
 8005e32:	60f8      	str	r0, [r7, #12]
 8005e34:	607a      	str	r2, [r7, #4]
 8005e36:	461a      	mov	r2, r3
 8005e38:	460b      	mov	r3, r1
 8005e3a:	72fb      	strb	r3, [r7, #11]
 8005e3c:	4613      	mov	r3, r2
 8005e3e:	813b      	strh	r3, [r7, #8]
  HAL_StatusTypeDef hal_status = HAL_OK;
 8005e40:	2300      	movs	r3, #0
 8005e42:	75fb      	strb	r3, [r7, #23]
  USBD_StatusTypeDef usb_status = USBD_OK;
 8005e44:	2300      	movs	r3, #0
 8005e46:	75bb      	strb	r3, [r7, #22]

  hal_status = HAL_PCD_EP_Receive(pdev->pData, ep_addr, pbuf, size);
 8005e48:	68fb      	ldr	r3, [r7, #12]
 8005e4a:	f8d3 02c0 	ldr.w	r0, [r3, #704]	; 0x2c0
 8005e4e:	893b      	ldrh	r3, [r7, #8]
 8005e50:	7af9      	ldrb	r1, [r7, #11]
 8005e52:	687a      	ldr	r2, [r7, #4]
 8005e54:	f7fb f9b5 	bl	80011c2 <HAL_PCD_EP_Receive>
 8005e58:	4603      	mov	r3, r0
 8005e5a:	75fb      	strb	r3, [r7, #23]
     
  usb_status =  USBD_Get_USB_Status(hal_status);
 8005e5c:	7dfb      	ldrb	r3, [r7, #23]
 8005e5e:	4618      	mov	r0, r3
 8005e60:	f000 f86e 	bl	8005f40 <USBD_Get_USB_Status>
 8005e64:	4603      	mov	r3, r0
 8005e66:	75bb      	strb	r3, [r7, #22]
  	
  return usb_status; 
 8005e68:	7dbb      	ldrb	r3, [r7, #22]
}
 8005e6a:	4618      	mov	r0, r3
 8005e6c:	3718      	adds	r7, #24
 8005e6e:	46bd      	mov	sp, r7
 8005e70:	bd80      	pop	{r7, pc}

08005e72 <USBD_LL_GetRxDataSize>:
  * @param  pdev: Device handle
  * @param  ep_addr: Endpoint number
  * @retval Recived Data Size
  */
uint32_t USBD_LL_GetRxDataSize(USBD_HandleTypeDef *pdev, uint8_t ep_addr)
{
 8005e72:	b580      	push	{r7, lr}
 8005e74:	b082      	sub	sp, #8
 8005e76:	af00      	add	r7, sp, #0
 8005e78:	6078      	str	r0, [r7, #4]
 8005e7a:	460b      	mov	r3, r1
 8005e7c:	70fb      	strb	r3, [r7, #3]
  return HAL_PCD_EP_GetRxCount((PCD_HandleTypeDef*) pdev->pData, ep_addr);
 8005e7e:	687b      	ldr	r3, [r7, #4]
 8005e80:	f8d3 32c0 	ldr.w	r3, [r3, #704]	; 0x2c0
 8005e84:	78fa      	ldrb	r2, [r7, #3]
 8005e86:	4611      	mov	r1, r2
 8005e88:	4618      	mov	r0, r3
 8005e8a:	f7fb f9d4 	bl	8001236 <HAL_PCD_EP_GetRxCount>
 8005e8e:	4603      	mov	r3, r0
}
 8005e90:	4618      	mov	r0, r3
 8005e92:	3708      	adds	r7, #8
 8005e94:	46bd      	mov	sp, r7
 8005e96:	bd80      	pop	{r7, pc}

08005e98 <HAL_PCDEx_LPM_Callback>:
#if (USE_HAL_PCD_REGISTER_CALLBACKS == 1U)
static void PCDEx_LPM_Callback(PCD_HandleTypeDef *hpcd, PCD_LPM_MsgTypeDef msg)
#else
void HAL_PCDEx_LPM_Callback(PCD_HandleTypeDef *hpcd, PCD_LPM_MsgTypeDef msg)
#endif /* USE_HAL_PCD_REGISTER_CALLBACKS */
{
 8005e98:	b580      	push	{r7, lr}
 8005e9a:	b082      	sub	sp, #8
 8005e9c:	af00      	add	r7, sp, #0
 8005e9e:	6078      	str	r0, [r7, #4]
 8005ea0:	460b      	mov	r3, r1
 8005ea2:	70fb      	strb	r3, [r7, #3]
  /* USER CODE BEGIN LPM_Callback */
  switch (msg)
 8005ea4:	78fb      	ldrb	r3, [r7, #3]
 8005ea6:	2b00      	cmp	r3, #0
 8005ea8:	d002      	beq.n	8005eb0 <HAL_PCDEx_LPM_Callback+0x18>
 8005eaa:	2b01      	cmp	r3, #1
 8005eac:	d013      	beq.n	8005ed6 <HAL_PCDEx_LPM_Callback+0x3e>
      SCB->SCR |= (uint32_t)((uint32_t)(SCB_SCR_SLEEPDEEP_Msk | SCB_SCR_SLEEPONEXIT_Msk));
    }
    break;   
  }
  /* USER CODE END LPM_Callback */
}
 8005eae:	e023      	b.n	8005ef8 <HAL_PCDEx_LPM_Callback+0x60>
    if (hpcd->Init.low_power_enable)
 8005eb0:	687b      	ldr	r3, [r7, #4]
 8005eb2:	699b      	ldr	r3, [r3, #24]
 8005eb4:	2b00      	cmp	r3, #0
 8005eb6:	d007      	beq.n	8005ec8 <HAL_PCDEx_LPM_Callback+0x30>
      SystemClockConfig_Resume();
 8005eb8:	f000 f83c 	bl	8005f34 <SystemClockConfig_Resume>
      SCB->SCR &= (uint32_t)~((uint32_t)(SCB_SCR_SLEEPDEEP_Msk | SCB_SCR_SLEEPONEXIT_Msk));
 8005ebc:	4b10      	ldr	r3, [pc, #64]	; (8005f00 <HAL_PCDEx_LPM_Callback+0x68>)
 8005ebe:	691b      	ldr	r3, [r3, #16]
 8005ec0:	4a0f      	ldr	r2, [pc, #60]	; (8005f00 <HAL_PCDEx_LPM_Callback+0x68>)
 8005ec2:	f023 0306 	bic.w	r3, r3, #6
 8005ec6:	6113      	str	r3, [r2, #16]
    USBD_LL_Resume(hpcd->pData);
 8005ec8:	687b      	ldr	r3, [r7, #4]
 8005eca:	f8d3 3270 	ldr.w	r3, [r3, #624]	; 0x270
 8005ece:	4618      	mov	r0, r3
 8005ed0:	f7fe fb93 	bl	80045fa <USBD_LL_Resume>
    break;
 8005ed4:	e010      	b.n	8005ef8 <HAL_PCDEx_LPM_Callback+0x60>
    USBD_LL_Suspend(hpcd->pData);
 8005ed6:	687b      	ldr	r3, [r7, #4]
 8005ed8:	f8d3 3270 	ldr.w	r3, [r3, #624]	; 0x270
 8005edc:	4618      	mov	r0, r3
 8005ede:	f7fe fb77 	bl	80045d0 <USBD_LL_Suspend>
    if (hpcd->Init.low_power_enable)
 8005ee2:	687b      	ldr	r3, [r7, #4]
 8005ee4:	699b      	ldr	r3, [r3, #24]
 8005ee6:	2b00      	cmp	r3, #0
 8005ee8:	d005      	beq.n	8005ef6 <HAL_PCDEx_LPM_Callback+0x5e>
      SCB->SCR |= (uint32_t)((uint32_t)(SCB_SCR_SLEEPDEEP_Msk | SCB_SCR_SLEEPONEXIT_Msk));
 8005eea:	4b05      	ldr	r3, [pc, #20]	; (8005f00 <HAL_PCDEx_LPM_Callback+0x68>)
 8005eec:	691b      	ldr	r3, [r3, #16]
 8005eee:	4a04      	ldr	r2, [pc, #16]	; (8005f00 <HAL_PCDEx_LPM_Callback+0x68>)
 8005ef0:	f043 0306 	orr.w	r3, r3, #6
 8005ef4:	6113      	str	r3, [r2, #16]
    break;   
 8005ef6:	bf00      	nop
}
 8005ef8:	bf00      	nop
 8005efa:	3708      	adds	r7, #8
 8005efc:	46bd      	mov	sp, r7
 8005efe:	bd80      	pop	{r7, pc}
 8005f00:	e000ed00 	.word	0xe000ed00

08005f04 <USBD_static_malloc>:
  * @brief  Static single allocation.
  * @param  size: Size of allocated memory
  * @retval None
  */
void *USBD_static_malloc(uint32_t size)
{
 8005f04:	b480      	push	{r7}
 8005f06:	b083      	sub	sp, #12
 8005f08:	af00      	add	r7, sp, #0
 8005f0a:	6078      	str	r0, [r7, #4]
  static uint32_t mem[(sizeof(USBD_CDC_HandleTypeDef)/4)+1];/* On 32-bit boundary */
  return mem;
 8005f0c:	4b03      	ldr	r3, [pc, #12]	; (8005f1c <USBD_static_malloc+0x18>)
}
 8005f0e:	4618      	mov	r0, r3
 8005f10:	370c      	adds	r7, #12
 8005f12:	46bd      	mov	sp, r7
 8005f14:	f85d 7b04 	ldr.w	r7, [sp], #4
 8005f18:	4770      	bx	lr
 8005f1a:	bf00      	nop
 8005f1c:	200001a0 	.word	0x200001a0

08005f20 <USBD_static_free>:
  * @brief  Dummy memory free
  * @param  p: Pointer to allocated  memory address
  * @retval None
  */
void USBD_static_free(void *p)
{
 8005f20:	b480      	push	{r7}
 8005f22:	b083      	sub	sp, #12
 8005f24:	af00      	add	r7, sp, #0
 8005f26:	6078      	str	r0, [r7, #4]

}
 8005f28:	bf00      	nop
 8005f2a:	370c      	adds	r7, #12
 8005f2c:	46bd      	mov	sp, r7
 8005f2e:	f85d 7b04 	ldr.w	r7, [sp], #4
 8005f32:	4770      	bx	lr

08005f34 <SystemClockConfig_Resume>:
  * @brief  Configures system clock after wake-up from USB resume callBack:
  *         enable HSI, PLL and select PLL as system clock source.
  * @retval None
  */
static void SystemClockConfig_Resume(void)
{
 8005f34:	b580      	push	{r7, lr}
 8005f36:	af00      	add	r7, sp, #0
  SystemClock_Config();
 8005f38:	f7ff fa62 	bl	8005400 <SystemClock_Config>
}
 8005f3c:	bf00      	nop
 8005f3e:	bd80      	pop	{r7, pc}

08005f40 <USBD_Get_USB_Status>:
  * @brief  Retuns the USB status depending on the HAL status:
  * @param  hal_status: HAL status
  * @retval USB status
  */
USBD_StatusTypeDef USBD_Get_USB_Status(HAL_StatusTypeDef hal_status)
{
 8005f40:	b480      	push	{r7}
 8005f42:	b085      	sub	sp, #20
 8005f44:	af00      	add	r7, sp, #0
 8005f46:	4603      	mov	r3, r0
 8005f48:	71fb      	strb	r3, [r7, #7]
  USBD_StatusTypeDef usb_status = USBD_OK;
 8005f4a:	2300      	movs	r3, #0
 8005f4c:	73fb      	strb	r3, [r7, #15]

  switch (hal_status)
 8005f4e:	79fb      	ldrb	r3, [r7, #7]
 8005f50:	2b03      	cmp	r3, #3
 8005f52:	d817      	bhi.n	8005f84 <USBD_Get_USB_Status+0x44>
 8005f54:	a201      	add	r2, pc, #4	; (adr r2, 8005f5c <USBD_Get_USB_Status+0x1c>)
 8005f56:	f852 f023 	ldr.w	pc, [r2, r3, lsl #2]
 8005f5a:	bf00      	nop
 8005f5c:	08005f6d 	.word	0x08005f6d
 8005f60:	08005f73 	.word	0x08005f73
 8005f64:	08005f79 	.word	0x08005f79
 8005f68:	08005f7f 	.word	0x08005f7f
  {
    case HAL_OK :
      usb_status = USBD_OK;
 8005f6c:	2300      	movs	r3, #0
 8005f6e:	73fb      	strb	r3, [r7, #15]
    break;
 8005f70:	e00b      	b.n	8005f8a <USBD_Get_USB_Status+0x4a>
    case HAL_ERROR :
      usb_status = USBD_FAIL;
 8005f72:	2302      	movs	r3, #2
 8005f74:	73fb      	strb	r3, [r7, #15]
    break;
 8005f76:	e008      	b.n	8005f8a <USBD_Get_USB_Status+0x4a>
    case HAL_BUSY :
      usb_status = USBD_BUSY;
 8005f78:	2301      	movs	r3, #1
 8005f7a:	73fb      	strb	r3, [r7, #15]
    break;
 8005f7c:	e005      	b.n	8005f8a <USBD_Get_USB_Status+0x4a>
    case HAL_TIMEOUT :
      usb_status = USBD_FAIL;
 8005f7e:	2302      	movs	r3, #2
 8005f80:	73fb      	strb	r3, [r7, #15]
    break;
 8005f82:	e002      	b.n	8005f8a <USBD_Get_USB_Status+0x4a>
    default :
      usb_status = USBD_FAIL;
 8005f84:	2302      	movs	r3, #2
 8005f86:	73fb      	strb	r3, [r7, #15]
    break;
 8005f88:	bf00      	nop
  }
  return usb_status;
 8005f8a:	7bfb      	ldrb	r3, [r7, #15]
}
 8005f8c:	4618      	mov	r0, r3
 8005f8e:	3714      	adds	r7, #20
 8005f90:	46bd      	mov	sp, r7
 8005f92:	f85d 7b04 	ldr.w	r7, [sp], #4
 8005f96:	4770      	bx	lr

08005f98 <USBD_CDC_DeviceDescriptor>:
  * @param  speed : Current device speed
  * @param  length : Pointer to data length variable
  * @retval Pointer to descriptor buffer
  */
uint8_t * USBD_CDC_DeviceDescriptor(USBD_SpeedTypeDef speed, uint16_t *length)
{
 8005f98:	b480      	push	{r7}
 8005f9a:	b083      	sub	sp, #12
 8005f9c:	af00      	add	r7, sp, #0
 8005f9e:	4603      	mov	r3, r0
 8005fa0:	6039      	str	r1, [r7, #0]
 8005fa2:	71fb      	strb	r3, [r7, #7]
  UNUSED(speed);
  *length = sizeof(USBD_CDC_DeviceDesc);
 8005fa4:	683b      	ldr	r3, [r7, #0]
 8005fa6:	2212      	movs	r2, #18
 8005fa8:	801a      	strh	r2, [r3, #0]
  return USBD_CDC_DeviceDesc;
 8005faa:	4b03      	ldr	r3, [pc, #12]	; (8005fb8 <USBD_CDC_DeviceDescriptor+0x20>)
}
 8005fac:	4618      	mov	r0, r3
 8005fae:	370c      	adds	r7, #12
 8005fb0:	46bd      	mov	sp, r7
 8005fb2:	f85d 7b04 	ldr.w	r7, [sp], #4
 8005fb6:	4770      	bx	lr
 8005fb8:	2000014c 	.word	0x2000014c

08005fbc <USBD_CDC_LangIDStrDescriptor>:
  * @param  speed : Current device speed
  * @param  length : Pointer to data length variable
  * @retval Pointer to descriptor buffer
  */
uint8_t * USBD_CDC_LangIDStrDescriptor(USBD_SpeedTypeDef speed, uint16_t *length)
{
 8005fbc:	b480      	push	{r7}
 8005fbe:	b083      	sub	sp, #12
 8005fc0:	af00      	add	r7, sp, #0
 8005fc2:	4603      	mov	r3, r0
 8005fc4:	6039      	str	r1, [r7, #0]
 8005fc6:	71fb      	strb	r3, [r7, #7]
  UNUSED(speed);
  *length = sizeof(USBD_LangIDDesc);
 8005fc8:	683b      	ldr	r3, [r7, #0]
 8005fca:	2204      	movs	r2, #4
 8005fcc:	801a      	strh	r2, [r3, #0]
  return USBD_LangIDDesc;
 8005fce:	4b03      	ldr	r3, [pc, #12]	; (8005fdc <USBD_CDC_LangIDStrDescriptor+0x20>)
}
 8005fd0:	4618      	mov	r0, r3
 8005fd2:	370c      	adds	r7, #12
 8005fd4:	46bd      	mov	sp, r7
 8005fd6:	f85d 7b04 	ldr.w	r7, [sp], #4
 8005fda:	4770      	bx	lr
 8005fdc:	20000160 	.word	0x20000160

08005fe0 <USBD_CDC_ProductStrDescriptor>:
  * @param  speed : Current device speed
  * @param  length : Pointer to data length variable
  * @retval Pointer to descriptor buffer
  */
uint8_t * USBD_CDC_ProductStrDescriptor(USBD_SpeedTypeDef speed, uint16_t *length)
{
 8005fe0:	b580      	push	{r7, lr}
 8005fe2:	b082      	sub	sp, #8
 8005fe4:	af00      	add	r7, sp, #0
 8005fe6:	4603      	mov	r3, r0
 8005fe8:	6039      	str	r1, [r7, #0]
 8005fea:	71fb      	strb	r3, [r7, #7]
  if(speed == 0)
 8005fec:	79fb      	ldrb	r3, [r7, #7]
 8005fee:	2b00      	cmp	r3, #0
 8005ff0:	d105      	bne.n	8005ffe <USBD_CDC_ProductStrDescriptor+0x1e>
  {
    USBD_GetString((uint8_t *)USBD_PRODUCT_STRING, USBD_StrDesc, length);
 8005ff2:	683a      	ldr	r2, [r7, #0]
 8005ff4:	4907      	ldr	r1, [pc, #28]	; (8006014 <USBD_CDC_ProductStrDescriptor+0x34>)
 8005ff6:	4808      	ldr	r0, [pc, #32]	; (8006018 <USBD_CDC_ProductStrDescriptor+0x38>)
 8005ff8:	f7ff f88a 	bl	8005110 <USBD_GetString>
 8005ffc:	e004      	b.n	8006008 <USBD_CDC_ProductStrDescriptor+0x28>
  }
  else
  {
    USBD_GetString((uint8_t *)USBD_PRODUCT_STRING, USBD_StrDesc, length);
 8005ffe:	683a      	ldr	r2, [r7, #0]
 8006000:	4904      	ldr	r1, [pc, #16]	; (8006014 <USBD_CDC_ProductStrDescriptor+0x34>)
 8006002:	4805      	ldr	r0, [pc, #20]	; (8006018 <USBD_CDC_ProductStrDescriptor+0x38>)
 8006004:	f7ff f884 	bl	8005110 <USBD_GetString>
  }
  return USBD_StrDesc;
 8006008:	4b02      	ldr	r3, [pc, #8]	; (8006014 <USBD_CDC_ProductStrDescriptor+0x34>)
}
 800600a:	4618      	mov	r0, r3
 800600c:	3708      	adds	r7, #8
 800600e:	46bd      	mov	sp, r7
 8006010:	bd80      	pop	{r7, pc}
 8006012:	bf00      	nop
 8006014:	20002138 	.word	0x20002138
 8006018:	08006290 	.word	0x08006290

0800601c <USBD_CDC_ManufacturerStrDescriptor>:
  * @param  speed : Current device speed
  * @param  length : Pointer to data length variable
  * @retval Pointer to descriptor buffer
  */
uint8_t * USBD_CDC_ManufacturerStrDescriptor(USBD_SpeedTypeDef speed, uint16_t *length)
{
 800601c:	b580      	push	{r7, lr}
 800601e:	b082      	sub	sp, #8
 8006020:	af00      	add	r7, sp, #0
 8006022:	4603      	mov	r3, r0
 8006024:	6039      	str	r1, [r7, #0]
 8006026:	71fb      	strb	r3, [r7, #7]
  UNUSED(speed);
  USBD_GetString((uint8_t *)USBD_MANUFACTURER_STRING, USBD_StrDesc, length);
 8006028:	683a      	ldr	r2, [r7, #0]
 800602a:	4904      	ldr	r1, [pc, #16]	; (800603c <USBD_CDC_ManufacturerStrDescriptor+0x20>)
 800602c:	4804      	ldr	r0, [pc, #16]	; (8006040 <USBD_CDC_ManufacturerStrDescriptor+0x24>)
 800602e:	f7ff f86f 	bl	8005110 <USBD_GetString>
  return USBD_StrDesc;
 8006032:	4b02      	ldr	r3, [pc, #8]	; (800603c <USBD_CDC_ManufacturerStrDescriptor+0x20>)
}
 8006034:	4618      	mov	r0, r3
 8006036:	3708      	adds	r7, #8
 8006038:	46bd      	mov	sp, r7
 800603a:	bd80      	pop	{r7, pc}
 800603c:	20002138 	.word	0x20002138
 8006040:	0800629c 	.word	0x0800629c

08006044 <USBD_CDC_SerialStrDescriptor>:
  * @param  speed : Current device speed
  * @param  length : Pointer to data length variable
  * @retval Pointer to descriptor buffer
  */
uint8_t * USBD_CDC_SerialStrDescriptor(USBD_SpeedTypeDef speed, uint16_t *length)
{
 8006044:	b580      	push	{r7, lr}
 8006046:	b082      	sub	sp, #8
 8006048:	af00      	add	r7, sp, #0
 800604a:	4603      	mov	r3, r0
 800604c:	6039      	str	r1, [r7, #0]
 800604e:	71fb      	strb	r3, [r7, #7]
  UNUSED(speed);
  *length = USB_SIZ_STRING_SERIAL;
 8006050:	683b      	ldr	r3, [r7, #0]
 8006052:	221a      	movs	r2, #26
 8006054:	801a      	strh	r2, [r3, #0]

  /* Update the serial number string descriptor with the data from the unique
   * ID */
  Get_SerialNum();
 8006056:	f000 f843 	bl	80060e0 <Get_SerialNum>
  
  /* USER CODE BEGIN USBD_CDC_SerialStrDescriptor */
  
  /* USER CODE END USBD_CDC_SerialStrDescriptor */

  return (uint8_t *) USBD_StringSerial;
 800605a:	4b02      	ldr	r3, [pc, #8]	; (8006064 <USBD_CDC_SerialStrDescriptor+0x20>)
}
 800605c:	4618      	mov	r0, r3
 800605e:	3708      	adds	r7, #8
 8006060:	46bd      	mov	sp, r7
 8006062:	bd80      	pop	{r7, pc}
 8006064:	20000164 	.word	0x20000164

08006068 <USBD_CDC_ConfigStrDescriptor>:
  * @param  speed : Current device speed
  * @param  length : Pointer to data length variable
  * @retval Pointer to descriptor buffer
  */
uint8_t * USBD_CDC_ConfigStrDescriptor(USBD_SpeedTypeDef speed, uint16_t *length)
{
 8006068:	b580      	push	{r7, lr}
 800606a:	b082      	sub	sp, #8
 800606c:	af00      	add	r7, sp, #0
 800606e:	4603      	mov	r3, r0
 8006070:	6039      	str	r1, [r7, #0]
 8006072:	71fb      	strb	r3, [r7, #7]
  if(speed == USBD_SPEED_HIGH)
 8006074:	79fb      	ldrb	r3, [r7, #7]
 8006076:	2b00      	cmp	r3, #0
 8006078:	d105      	bne.n	8006086 <USBD_CDC_ConfigStrDescriptor+0x1e>
  {
    USBD_GetString((uint8_t *)USBD_CONFIGURATION_STRING, USBD_StrDesc, length);
 800607a:	683a      	ldr	r2, [r7, #0]
 800607c:	4907      	ldr	r1, [pc, #28]	; (800609c <USBD_CDC_ConfigStrDescriptor+0x34>)
 800607e:	4808      	ldr	r0, [pc, #32]	; (80060a0 <USBD_CDC_ConfigStrDescriptor+0x38>)
 8006080:	f7ff f846 	bl	8005110 <USBD_GetString>
 8006084:	e004      	b.n	8006090 <USBD_CDC_ConfigStrDescriptor+0x28>
  }
  else
  {
    USBD_GetString((uint8_t *)USBD_CONFIGURATION_STRING, USBD_StrDesc, length);
 8006086:	683a      	ldr	r2, [r7, #0]
 8006088:	4904      	ldr	r1, [pc, #16]	; (800609c <USBD_CDC_ConfigStrDescriptor+0x34>)
 800608a:	4805      	ldr	r0, [pc, #20]	; (80060a0 <USBD_CDC_ConfigStrDescriptor+0x38>)
 800608c:	f7ff f840 	bl	8005110 <USBD_GetString>
  }
  return USBD_StrDesc;
 8006090:	4b02      	ldr	r3, [pc, #8]	; (800609c <USBD_CDC_ConfigStrDescriptor+0x34>)
}
 8006092:	4618      	mov	r0, r3
 8006094:	3708      	adds	r7, #8
 8006096:	46bd      	mov	sp, r7
 8006098:	bd80      	pop	{r7, pc}
 800609a:	bf00      	nop
 800609c:	20002138 	.word	0x20002138
 80060a0:	080062b0 	.word	0x080062b0

080060a4 <USBD_CDC_InterfaceStrDescriptor>:
  * @param  speed : Current device speed
  * @param  length : Pointer to data length variable
  * @retval Pointer to descriptor buffer
  */
uint8_t * USBD_CDC_InterfaceStrDescriptor(USBD_SpeedTypeDef speed, uint16_t *length)
{
 80060a4:	b580      	push	{r7, lr}
 80060a6:	b082      	sub	sp, #8
 80060a8:	af00      	add	r7, sp, #0
 80060aa:	4603      	mov	r3, r0
 80060ac:	6039      	str	r1, [r7, #0]
 80060ae:	71fb      	strb	r3, [r7, #7]
  if(speed == 0)
 80060b0:	79fb      	ldrb	r3, [r7, #7]
 80060b2:	2b00      	cmp	r3, #0
 80060b4:	d105      	bne.n	80060c2 <USBD_CDC_InterfaceStrDescriptor+0x1e>
  {
    USBD_GetString((uint8_t *)USBD_INTERFACE_STRING, USBD_StrDesc, length);
 80060b6:	683a      	ldr	r2, [r7, #0]
 80060b8:	4907      	ldr	r1, [pc, #28]	; (80060d8 <USBD_CDC_InterfaceStrDescriptor+0x34>)
 80060ba:	4808      	ldr	r0, [pc, #32]	; (80060dc <USBD_CDC_InterfaceStrDescriptor+0x38>)
 80060bc:	f7ff f828 	bl	8005110 <USBD_GetString>
 80060c0:	e004      	b.n	80060cc <USBD_CDC_InterfaceStrDescriptor+0x28>
  }
  else
  {
    USBD_GetString((uint8_t *)USBD_INTERFACE_STRING, USBD_StrDesc, length);
 80060c2:	683a      	ldr	r2, [r7, #0]
 80060c4:	4904      	ldr	r1, [pc, #16]	; (80060d8 <USBD_CDC_InterfaceStrDescriptor+0x34>)
 80060c6:	4805      	ldr	r0, [pc, #20]	; (80060dc <USBD_CDC_InterfaceStrDescriptor+0x38>)
 80060c8:	f7ff f822 	bl	8005110 <USBD_GetString>
  }
  return USBD_StrDesc;
 80060cc:	4b02      	ldr	r3, [pc, #8]	; (80060d8 <USBD_CDC_InterfaceStrDescriptor+0x34>)
}
 80060ce:	4618      	mov	r0, r3
 80060d0:	3708      	adds	r7, #8
 80060d2:	46bd      	mov	sp, r7
 80060d4:	bd80      	pop	{r7, pc}
 80060d6:	bf00      	nop
 80060d8:	20002138 	.word	0x20002138
 80060dc:	080062bc 	.word	0x080062bc

080060e0 <Get_SerialNum>:
  * @brief  Create the serial number string descriptor 
  * @param  None 
  * @retval None
  */
static void Get_SerialNum(void)
{
 80060e0:	b580      	push	{r7, lr}
 80060e2:	b084      	sub	sp, #16
 80060e4:	af00      	add	r7, sp, #0
  uint32_t deviceserial0, deviceserial1, deviceserial2;

  deviceserial0 = *(uint32_t *) DEVICE_ID1;
 80060e6:	4b0f      	ldr	r3, [pc, #60]	; (8006124 <Get_SerialNum+0x44>)
 80060e8:	681b      	ldr	r3, [r3, #0]
 80060ea:	60fb      	str	r3, [r7, #12]
  deviceserial1 = *(uint32_t *) DEVICE_ID2;
 80060ec:	4b0e      	ldr	r3, [pc, #56]	; (8006128 <Get_SerialNum+0x48>)
 80060ee:	681b      	ldr	r3, [r3, #0]
 80060f0:	60bb      	str	r3, [r7, #8]
  deviceserial2 = *(uint32_t *) DEVICE_ID3;
 80060f2:	4b0e      	ldr	r3, [pc, #56]	; (800612c <Get_SerialNum+0x4c>)
 80060f4:	681b      	ldr	r3, [r3, #0]
 80060f6:	607b      	str	r3, [r7, #4]

  deviceserial0 += deviceserial2;
 80060f8:	68fa      	ldr	r2, [r7, #12]
 80060fa:	687b      	ldr	r3, [r7, #4]
 80060fc:	4413      	add	r3, r2
 80060fe:	60fb      	str	r3, [r7, #12]

  if (deviceserial0 != 0)
 8006100:	68fb      	ldr	r3, [r7, #12]
 8006102:	2b00      	cmp	r3, #0
 8006104:	d009      	beq.n	800611a <Get_SerialNum+0x3a>
  {
    IntToUnicode(deviceserial0, &USBD_StringSerial[2], 8);
 8006106:	2208      	movs	r2, #8
 8006108:	4909      	ldr	r1, [pc, #36]	; (8006130 <Get_SerialNum+0x50>)
 800610a:	68f8      	ldr	r0, [r7, #12]
 800610c:	f000 f814 	bl	8006138 <IntToUnicode>
    IntToUnicode(deviceserial1, &USBD_StringSerial[18], 4);
 8006110:	2204      	movs	r2, #4
 8006112:	4908      	ldr	r1, [pc, #32]	; (8006134 <Get_SerialNum+0x54>)
 8006114:	68b8      	ldr	r0, [r7, #8]
 8006116:	f000 f80f 	bl	8006138 <IntToUnicode>
  }
}
 800611a:	bf00      	nop
 800611c:	3710      	adds	r7, #16
 800611e:	46bd      	mov	sp, r7
 8006120:	bd80      	pop	{r7, pc}
 8006122:	bf00      	nop
 8006124:	1fff7590 	.word	0x1fff7590
 8006128:	1fff7594 	.word	0x1fff7594
 800612c:	1fff7598 	.word	0x1fff7598
 8006130:	20000166 	.word	0x20000166
 8006134:	20000176 	.word	0x20000176

08006138 <IntToUnicode>:
  * @param  pbuf: pointer to the buffer 
  * @param  len: buffer length
  * @retval None
  */
static void IntToUnicode(uint32_t value, uint8_t * pbuf, uint8_t len)
{
 8006138:	b480      	push	{r7}
 800613a:	b087      	sub	sp, #28
 800613c:	af00      	add	r7, sp, #0
 800613e:	60f8      	str	r0, [r7, #12]
 8006140:	60b9      	str	r1, [r7, #8]
 8006142:	4613      	mov	r3, r2
 8006144:	71fb      	strb	r3, [r7, #7]
  uint8_t idx = 0;
 8006146:	2300      	movs	r3, #0
 8006148:	75fb      	strb	r3, [r7, #23]

  for (idx = 0; idx < len; idx++)
 800614a:	2300      	movs	r3, #0
 800614c:	75fb      	strb	r3, [r7, #23]
 800614e:	e027      	b.n	80061a0 <IntToUnicode+0x68>
  {
    if (((value >> 28)) < 0xA)
 8006150:	68fb      	ldr	r3, [r7, #12]
 8006152:	0f1b      	lsrs	r3, r3, #28
 8006154:	2b09      	cmp	r3, #9
 8006156:	d80b      	bhi.n	8006170 <IntToUnicode+0x38>
    {
      pbuf[2 * idx] = (value >> 28) + '0';
 8006158:	68fb      	ldr	r3, [r7, #12]
 800615a:	0f1b      	lsrs	r3, r3, #28
 800615c:	b2da      	uxtb	r2, r3
 800615e:	7dfb      	ldrb	r3, [r7, #23]
 8006160:	005b      	lsls	r3, r3, #1
 8006162:	4619      	mov	r1, r3
 8006164:	68bb      	ldr	r3, [r7, #8]
 8006166:	440b      	add	r3, r1
 8006168:	3230      	adds	r2, #48	; 0x30
 800616a:	b2d2      	uxtb	r2, r2
 800616c:	701a      	strb	r2, [r3, #0]
 800616e:	e00a      	b.n	8006186 <IntToUnicode+0x4e>
    }
    else
    {
      pbuf[2 * idx] = (value >> 28) + 'A' - 10;
 8006170:	68fb      	ldr	r3, [r7, #12]
 8006172:	0f1b      	lsrs	r3, r3, #28
 8006174:	b2da      	uxtb	r2, r3
 8006176:	7dfb      	ldrb	r3, [r7, #23]
 8006178:	005b      	lsls	r3, r3, #1
 800617a:	4619      	mov	r1, r3
 800617c:	68bb      	ldr	r3, [r7, #8]
 800617e:	440b      	add	r3, r1
 8006180:	3237      	adds	r2, #55	; 0x37
 8006182:	b2d2      	uxtb	r2, r2
 8006184:	701a      	strb	r2, [r3, #0]
    }

    value = value << 4;
 8006186:	68fb      	ldr	r3, [r7, #12]
 8006188:	011b      	lsls	r3, r3, #4
 800618a:	60fb      	str	r3, [r7, #12]

    pbuf[2 * idx + 1] = 0;
 800618c:	7dfb      	ldrb	r3, [r7, #23]
 800618e:	005b      	lsls	r3, r3, #1
 8006190:	3301      	adds	r3, #1
 8006192:	68ba      	ldr	r2, [r7, #8]
 8006194:	4413      	add	r3, r2
 8006196:	2200      	movs	r2, #0
 8006198:	701a      	strb	r2, [r3, #0]
  for (idx = 0; idx < len; idx++)
 800619a:	7dfb      	ldrb	r3, [r7, #23]
 800619c:	3301      	adds	r3, #1
 800619e:	75fb      	strb	r3, [r7, #23]
 80061a0:	7dfa      	ldrb	r2, [r7, #23]
 80061a2:	79fb      	ldrb	r3, [r7, #7]
 80061a4:	429a      	cmp	r2, r3
 80061a6:	d3d3      	bcc.n	8006150 <IntToUnicode+0x18>
  }
}
 80061a8:	bf00      	nop
 80061aa:	371c      	adds	r7, #28
 80061ac:	46bd      	mov	sp, r7
 80061ae:	f85d 7b04 	ldr.w	r7, [sp], #4
 80061b2:	4770      	bx	lr

080061b4 <Reset_Handler>:

    .section	.text.Reset_Handler
	.weak	Reset_Handler
	.type	Reset_Handler, %function
Reset_Handler:
  ldr   r0, =_estack
 80061b4:	480d      	ldr	r0, [pc, #52]	; (80061ec <LoopForever+0x2>)
  mov   sp, r0          /* set stack pointer */
 80061b6:	4685      	mov	sp, r0

/* Copy the data segment initializers from flash to SRAM */
  ldr r0, =_sdata
 80061b8:	480d      	ldr	r0, [pc, #52]	; (80061f0 <LoopForever+0x6>)
  ldr r1, =_edata
 80061ba:	490e      	ldr	r1, [pc, #56]	; (80061f4 <LoopForever+0xa>)
  ldr r2, =_sidata
 80061bc:	4a0e      	ldr	r2, [pc, #56]	; (80061f8 <LoopForever+0xe>)
  movs r3, #0
 80061be:	2300      	movs	r3, #0
  b	LoopCopyDataInit
 80061c0:	e002      	b.n	80061c8 <LoopCopyDataInit>

080061c2 <CopyDataInit>:

CopyDataInit:
  ldr r4, [r2, r3]
 80061c2:	58d4      	ldr	r4, [r2, r3]
  str r4, [r0, r3]
 80061c4:	50c4      	str	r4, [r0, r3]
  adds r3, r3, #4
 80061c6:	3304      	adds	r3, #4

080061c8 <LoopCopyDataInit>:

LoopCopyDataInit:
  adds r4, r0, r3
 80061c8:	18c4      	adds	r4, r0, r3
  cmp r4, r1
 80061ca:	428c      	cmp	r4, r1
  bcc CopyDataInit
 80061cc:	d3f9      	bcc.n	80061c2 <CopyDataInit>
  
/* Zero fill the bss segment. */
  ldr r2, =_sbss
 80061ce:	4a0b      	ldr	r2, [pc, #44]	; (80061fc <LoopForever+0x12>)
  ldr r4, =_ebss
 80061d0:	4c0b      	ldr	r4, [pc, #44]	; (8006200 <LoopForever+0x16>)
  movs r3, #0
 80061d2:	2300      	movs	r3, #0
  b LoopFillZerobss
 80061d4:	e001      	b.n	80061da <LoopFillZerobss>

080061d6 <FillZerobss>:

FillZerobss:
  str  r3, [r2]
 80061d6:	6013      	str	r3, [r2, #0]
  adds r2, r2, #4
 80061d8:	3204      	adds	r2, #4

080061da <LoopFillZerobss>:

LoopFillZerobss:
  cmp r2, r4
 80061da:	42a2      	cmp	r2, r4
  bcc FillZerobss
 80061dc:	d3fb      	bcc.n	80061d6 <FillZerobss>

/* Call the clock system intitialization function.*/
    bl  SystemInit
 80061de:	f7ff fac3 	bl	8005768 <SystemInit>
/* Call static constructors */
    bl __libc_init_array
 80061e2:	f000 f811 	bl	8006208 <__libc_init_array>
/* Call the application's entry point.*/
	bl	main
 80061e6:	f7ff f8f3 	bl	80053d0 <main>

080061ea <LoopForever>:

LoopForever:
    b LoopForever
 80061ea:	e7fe      	b.n	80061ea <LoopForever>
  ldr   r0, =_estack
 80061ec:	20008000 	.word	0x20008000
  ldr r0, =_sdata
 80061f0:	20000000 	.word	0x20000000
  ldr r1, =_edata
 80061f4:	20000180 	.word	0x20000180
  ldr r2, =_sidata
 80061f8:	080062e4 	.word	0x080062e4
  ldr r2, =_sbss
 80061fc:	20000180 	.word	0x20000180
  ldr r4, =_ebss
 8006200:	20002338 	.word	0x20002338

08006204 <ADC1_2_IRQHandler>:
 * @retval : None
*/
    .section	.text.Default_Handler,"ax",%progbits
Default_Handler:
Infinite_Loop:
	b	Infinite_Loop
 8006204:	e7fe      	b.n	8006204 <ADC1_2_IRQHandler>
	...

08006208 <__libc_init_array>:
 8006208:	b570      	push	{r4, r5, r6, lr}
 800620a:	4e0d      	ldr	r6, [pc, #52]	; (8006240 <__libc_init_array+0x38>)
 800620c:	4c0d      	ldr	r4, [pc, #52]	; (8006244 <__libc_init_array+0x3c>)
 800620e:	1ba4      	subs	r4, r4, r6
 8006210:	10a4      	asrs	r4, r4, #2
 8006212:	2500      	movs	r5, #0
 8006214:	42a5      	cmp	r5, r4
 8006216:	d109      	bne.n	800622c <__libc_init_array+0x24>
 8006218:	4e0b      	ldr	r6, [pc, #44]	; (8006248 <__libc_init_array+0x40>)
 800621a:	4c0c      	ldr	r4, [pc, #48]	; (800624c <__libc_init_array+0x44>)
 800621c:	f000 f82c 	bl	8006278 <_init>
 8006220:	1ba4      	subs	r4, r4, r6
 8006222:	10a4      	asrs	r4, r4, #2
 8006224:	2500      	movs	r5, #0
 8006226:	42a5      	cmp	r5, r4
 8006228:	d105      	bne.n	8006236 <__libc_init_array+0x2e>
 800622a:	bd70      	pop	{r4, r5, r6, pc}
 800622c:	f856 3025 	ldr.w	r3, [r6, r5, lsl #2]
 8006230:	4798      	blx	r3
 8006232:	3501      	adds	r5, #1
 8006234:	e7ee      	b.n	8006214 <__libc_init_array+0xc>
 8006236:	f856 3025 	ldr.w	r3, [r6, r5, lsl #2]
 800623a:	4798      	blx	r3
 800623c:	3501      	adds	r5, #1
 800623e:	e7f2      	b.n	8006226 <__libc_init_array+0x1e>
 8006240:	080062dc 	.word	0x080062dc
 8006244:	080062dc 	.word	0x080062dc
 8006248:	080062dc 	.word	0x080062dc
 800624c:	080062e0 	.word	0x080062e0

08006250 <memcpy>:
 8006250:	b510      	push	{r4, lr}
 8006252:	1e43      	subs	r3, r0, #1
 8006254:	440a      	add	r2, r1
 8006256:	4291      	cmp	r1, r2
 8006258:	d100      	bne.n	800625c <memcpy+0xc>
 800625a:	bd10      	pop	{r4, pc}
 800625c:	f811 4b01 	ldrb.w	r4, [r1], #1
 8006260:	f803 4f01 	strb.w	r4, [r3, #1]!
 8006264:	e7f7      	b.n	8006256 <memcpy+0x6>

08006266 <memset>:
 8006266:	4402      	add	r2, r0
 8006268:	4603      	mov	r3, r0
 800626a:	4293      	cmp	r3, r2
 800626c:	d100      	bne.n	8006270 <memset+0xa>
 800626e:	4770      	bx	lr
 8006270:	f803 1b01 	strb.w	r1, [r3], #1
 8006274:	e7f9      	b.n	800626a <memset+0x4>
	...

08006278 <_init>:
 8006278:	b5f8      	push	{r3, r4, r5, r6, r7, lr}
 800627a:	bf00      	nop
 800627c:	bcf8      	pop	{r3, r4, r5, r6, r7}
 800627e:	bc08      	pop	{r3}
 8006280:	469e      	mov	lr, r3
 8006282:	4770      	bx	lr

08006284 <_fini>:
 8006284:	b5f8      	push	{r3, r4, r5, r6, r7, lr}
 8006286:	bf00      	nop
 8006288:	bcf8      	pop	{r3, r4, r5, r6, r7}
 800628a:	bc08      	pop	{r3}
 800628c:	469e      	mov	lr, r3
 800628e:	4770      	bx	lr
